C000  4C F5 C5  JMP $C5F5                       A:00 X:00 Y:00 P:24 SP:FD
C5F5  A2 00     LDX #$00                        A:00 X:00 Y:00 P:24 SP:FD
C5F7  86 00     STX $00 = 00                    A:00 X:00 Y:00 P:26 SP:FD
C5F9  86 10     STX $10 = 00                    A:00 X:00 Y:00 P:26 SP:FD
C5FB  86 11     STX $11 = 00                    A:00 X:00 Y:00 P:26 SP:FD
C5FD  20 2D C7  JSR $C72D                       A:00 X:00 Y:00 P:26 SP:FD
C72D  EA        NOP                             A:00 X:00 Y:00 P:26 SP:FB
C72E  38        SEC                             A:00 X:00 Y:00 P:26 SP:FB
C72F  B0 04     BCS $C735                       A:00 X:00 Y:00 P:27 SP:FB
C735  EA        NOP                             A:00 X:00 Y:00 P:27 SP:FB
C736  18        CLC                             A:00 X:00 Y:00 P:27 SP:FB
C737  B0 03     BCS $C73C                       A:00 X:00 Y:00 P:26 SP:FB
C739  4C 40 C7  JMP $C740                       A:00 X:00 Y:00 P:26 SP:FB
C740  EA        NOP                             A:00 X:00 Y:00 P:26 SP:FB
C741  38        SEC                             A:00 X:00 Y:00 P:26 SP:FB
C742  90 03     BCC $C747                       A:00 X:00 Y:00 P:27 SP:FB
C744  4C 4B C7  JMP $C74B                       A:00 X:00 Y:00 P:27 SP:FB
C74B  EA        NOP                             A:00 X:00 Y:00 P:27 SP:FB
C74C  18        CLC                             A:00 X:00 Y:00 P:27 SP:FB
C74D  90 04     BCC $C753                       A:00 X:00 Y:00 P:26 SP:FB
C753  EA        NOP                             A:00 X:00 Y:00 P:26 SP:FB
C754  A9 00     LDA #$00                        A:00 X:00 Y:00 P:26 SP:FB
C756  F0 04     BEQ $C75C                       A:00 X:00 Y:00 P:26 SP:FB
C75C  EA        NOP                             A:00 X:00 Y:00 P:26 SP:FB
C75D  A9 40     LDA #$40                        A:00 X:00 Y:00 P:26 SP:FB
C75F  F0 03     BEQ $C764                       A:40 X:00 Y:00 P:24 SP:FB
C761  4C 68 C7  JMP $C768                       A:40 X:00 Y:00 P:24 SP:FB
C768  EA        NOP                             A:40 X:00 Y:00 P:24 SP:FB
C769  A9 40     LDA #$40                        A:40 X:00 Y:00 P:24 SP:FB
C76B  D0 04     BNE $C771                       A:40 X:00 Y:00 P:24 SP:FB
C771  EA        NOP                             A:40 X:00 Y:00 P:24 SP:FB
C772  A9 00     LDA #$00                        A:40 X:00 Y:00 P:24 SP:FB
C774  D0 03     BNE $C779                       A:00 X:00 Y:00 P:26 SP:FB
C776  4C 7D C7  JMP $C77D                       A:00 X:00 Y:00 P:26 SP:FB
C77D  EA        NOP                             A:00 X:00 Y:00 P:26 SP:FB
C77E  A9 FF     LDA #$FF                        A:00 X:00 Y:00 P:26 SP:FB
C780  85 01     STA $01 = 00                    A:FF X:00 Y:00 P:A4 SP:FB
C782  24 01     BIT $01 = FF                    A:FF X:00 Y:00 P:A4 SP:FB
C784  70 04     BVS $C78A                       A:FF X:00 Y:00 P:E4 SP:FB
C78A  EA        NOP                             A:FF X:00 Y:00 P:E4 SP:FB
C78B  24 01     BIT $01 = FF                    A:FF X:00 Y:00 P:E4 SP:FB
C78D  50 03     BVC $C792                       A:FF X:00 Y:00 P:E4 SP:FB
C78F  4C 96 C7  JMP $C796                       A:FF X:00 Y:00 P:E4 SP:FB
C796  EA        NOP                             A:FF X:00 Y:00 P:E4 SP:FB
C797  A9 00     LDA #$00                        A:FF X:00 Y:00 P:E4 SP:FB
C799  85 01     STA $01 = FF                    A:00 X:00 Y:00 P:66 SP:FB
C79B  24 01     BIT $01 = 00                    A:00 X:00 Y:00 P:66 SP:FB
C79D  50 04     BVC $C7A3                       A:00 X:00 Y:00 P:26 SP:FB
C7A3  EA        NOP                             A:00 X:00 Y:00 P:26 SP:FB
C7A4  24 01     BIT $01 = 00                    A:00 X:00 Y:00 P:26 SP:FB
C7A6  70 03     BVS $C7AB                       A:00 X:00 Y:00 P:26 SP:FB
C7A8  4C AF C7  JMP $C7AF                       A:00 X:00 Y:00 P:26 SP:FB
C7AF  EA        NOP                             A:00 X:00 Y:00 P:26 SP:FB
C7B0  A9 00     LDA #$00                        A:00 X:00 Y:00 P:26 SP:FB
C7B2  10 04     BPL $C7B8                       A:00 X:00 Y:00 P:26 SP:FB
C7B8  EA        NOP                             A:00 X:00 Y:00 P:26 SP:FB
C7B9  A9 80     LDA #$80                        A:00 X:00 Y:00 P:26 SP:FB
C7BB  10 03     BPL $C7C0                       A:80 X:00 Y:00 P:A4 SP:FB
C7BD  4C D9 C7  JMP $C7D9                       A:80 X:00 Y:00 P:A4 SP:FB
C7D9  EA        NOP                             A:80 X:00 Y:00 P:A4 SP:FB
C7DA  60        RTS                             A:80 X:00 Y:00 P:A4 SP:FB
C600  20 DB C7  JSR $C7DB                       A:80 X:00 Y:00 P:A4 SP:FD
C7DB  EA        NOP                             A:80 X:00 Y:00 P:A4 SP:FB
C7DC  A9 FF     LDA #$FF                        A:80 X:00 Y:00 P:A4 SP:FB
C7DE  85 01     STA $01 = 00                    A:FF X:00 Y:00 P:A4 SP:FB
C7E0  24 01     BIT $01 = FF                    A:FF X:00 Y:00 P:A4 SP:FB
C7E2  A9 00     LDA #$00                        A:FF X:00 Y:00 P:E4 SP:FB
C7E4  38        SEC                             A:00 X:00 Y:00 P:66 SP:FB
C7E5  78        SEI                             A:00 X:00 Y:00 P:67 SP:FB
C7E6  F8        SED                             A:00 X:00 Y:00 P:67 SP:FB
C7E7  08        PHP                             A:00 X:00 Y:00 P:6F SP:FB
C7E8  68        PLA                             A:00 X:00 Y:00 P:6F SP:FA
C7E9  29 EF     AND #$EF                        A:7F X:00 Y:00 P:6D SP:FB
C7EB  C9 6F     CMP #$6F                        A:6F X:00 Y:00 P:6D SP:FB
C7ED  F0 04     BEQ $C7F3                       A:6F X:00 Y:00 P:6F SP:FB
C7F3  EA        NOP                             A:6F X:00 Y:00 P:6F SP:FB
C7F4  A9 40     LDA #$40                        A:6F X:00 Y:00 P:6F SP:FB
C7F6  85 01     STA $01 = FF                    A:40 X:00 Y:00 P:6D SP:FB
C7F8  24 01     BIT $01 = 40                    A:40 X:00 Y:00 P:6D SP:FB
C7FA  D8        CLD                             A:40 X:00 Y:00 P:6D SP:FB
C7FB  A9 10     LDA #$10                        A:40 X:00 Y:00 P:65 SP:FB
C7FD  18        CLC                             A:10 X:00 Y:00 P:65 SP:FB
C7FE  08        PHP                             A:10 X:00 Y:00 P:64 SP:FB
C7FF  68        PLA                             A:10 X:00 Y:00 P:64 SP:FA
C800  29 EF     AND #$EF                        A:74 X:00 Y:00 P:64 SP:FB
C802  C9 64     CMP #$64                        A:64 X:00 Y:00 P:64 SP:FB
C804  F0 04     BEQ $C80A                       A:64 X:00 Y:00 P:67 SP:FB
C80A  EA        NOP                             A:64 X:00 Y:00 P:67 SP:FB
C80B  A9 80     LDA #$80                        A:64 X:00 Y:00 P:67 SP:FB
C80D  85 01     STA $01 = 40                    A:80 X:00 Y:00 P:E5 SP:FB
C80F  24 01     BIT $01 = 80                    A:80 X:00 Y:00 P:E5 SP:FB
C811  F8        SED                             A:80 X:00 Y:00 P:A5 SP:FB
C812  A9 00     LDA #$00                        A:80 X:00 Y:00 P:AD SP:FB
C814  38        SEC                             A:00 X:00 Y:00 P:2F SP:FB
C815  08        PHP                             A:00 X:00 Y:00 P:2F SP:FB
C816  68        PLA                             A:00 X:00 Y:00 P:2F SP:FA
C817  29 EF     AND #$EF                        A:3F X:00 Y:00 P:2D SP:FB
C819  C9 2F     CMP #$2F                        A:2F X:00 Y:00 P:2D SP:FB
C81B  F0 04     BEQ $C821                       A:2F X:00 Y:00 P:2F SP:FB
C821  EA        NOP                             A:2F X:00 Y:00 P:2F SP:FB
C822  A9 FF     LDA #$FF                        A:2F X:00 Y:00 P:2F SP:FB
C824  48        PHA                             A:FF X:00 Y:00 P:AD SP:FB
C825  28        PLP                             A:FF X:00 Y:00 P:AD SP:FA
C826  D0 09     BNE $C831                       A:FF X:00 Y:00 P:EF SP:FB
C828  10 07     BPL $C831                       A:FF X:00 Y:00 P:EF SP:FB
C82A  50 05     BVC $C831                       A:FF X:00 Y:00 P:EF SP:FB
C82C  90 03     BCC $C831                       A:FF X:00 Y:00 P:EF SP:FB
C82E  4C 35 C8  JMP $C835                       A:FF X:00 Y:00 P:EF SP:FB
C835  EA        NOP                             A:FF X:00 Y:00 P:EF SP:FB
C836  A9 04     LDA #$04                        A:FF X:00 Y:00 P:EF SP:FB
C838  48        PHA                             A:04 X:00 Y:00 P:6D SP:FB
C839  28        PLP                             A:04 X:00 Y:00 P:6D SP:FA
C83A  F0 09     BEQ $C845                       A:04 X:00 Y:00 P:24 SP:FB
C83C  30 07     BMI $C845                       A:04 X:00 Y:00 P:24 SP:FB
C83E  70 05     BVS $C845                       A:04 X:00 Y:00 P:24 SP:FB
C840  B0 03     BCS $C845                       A:04 X:00 Y:00 P:24 SP:FB
C842  4C 49 C8  JMP $C849                       A:04 X:00 Y:00 P:24 SP:FB
C849  EA        NOP                             A:04 X:00 Y:00 P:24 SP:FB
C84A  F8        SED                             A:04 X:00 Y:00 P:24 SP:FB
C84B  A9 FF     LDA #$FF                        A:04 X:00 Y:00 P:2C SP:FB
C84D  85 01     STA $01 = 80                    A:FF X:00 Y:00 P:AC SP:FB
C84F  24 01     BIT $01 = FF                    A:FF X:00 Y:00 P:AC SP:FB
C851  18        CLC                             A:FF X:00 Y:00 P:EC SP:FB
C852  A9 00     LDA #$00                        A:FF X:00 Y:00 P:EC SP:FB
C854  48        PHA                             A:00 X:00 Y:00 P:6E SP:FB
C855  A9 FF     LDA #$FF                        A:00 X:00 Y:00 P:6E SP:FA
C857  68        PLA                             A:FF X:00 Y:00 P:EC SP:FA
C858  D0 09     BNE $C863                       A:00 X:00 Y:00 P:6E SP:FB
C85A  30 07     BMI $C863                       A:00 X:00 Y:00 P:6E SP:FB
C85C  50 05     BVC $C863                       A:00 X:00 Y:00 P:6E SP:FB
C85E  B0 03     BCS $C863                       A:00 X:00 Y:00 P:6E SP:FB
C860  4C 67 C8  JMP $C867                       A:00 X:00 Y:00 P:6E SP:FB
C867  EA        NOP                             A:00 X:00 Y:00 P:6E SP:FB
C868  A9 00     LDA #$00                        A:00 X:00 Y:00 P:6E SP:FB
C86A  85 01     STA $01 = FF                    A:00 X:00 Y:00 P:6E SP:FB
C86C  24 01     BIT $01 = 00                    A:00 X:00 Y:00 P:6E SP:FB
C86E  38        SEC                             A:00 X:00 Y:00 P:2E SP:FB
C86F  A9 FF     LDA #$FF                        A:00 X:00 Y:00 P:2F SP:FB
C871  48        PHA                             A:FF X:00 Y:00 P:AD SP:FB
C872  A9 00     LDA #$00                        A:FF X:00 Y:00 P:AD SP:FA
C874  68        PLA                             A:00 X:00 Y:00 P:2F SP:FA
C875  F0 09     BEQ $C880                       A:FF X:00 Y:00 P:AD SP:FB
C877  10 07     BPL $C880                       A:FF X:00 Y:00 P:AD SP:FB
C879  70 05     BVS $C880                       A:FF X:00 Y:00 P:AD SP:FB
C87B  90 03     BCC $C880                       A:FF X:00 Y:00 P:AD SP:FB
C87D  4C 84 C8  JMP $C884                       A:FF X:00 Y:00 P:AD SP:FB
C884  60        RTS                             A:FF X:00 Y:00 P:AD SP:FB
C603  20 85 C8  JSR $C885                       A:FF X:00 Y:00 P:AD SP:FD
C885  EA        NOP                             A:FF X:00 Y:00 P:AD SP:FB
C886  18        CLC                             A:FF X:00 Y:00 P:AD SP:FB
C887  A9 FF     LDA #$FF                        A:FF X:00 Y:00 P:AC SP:FB
C889  85 01     STA $01 = 00                    A:FF X:00 Y:00 P:AC SP:FB
C88B  24 01     BIT $01 = FF                    A:FF X:00 Y:00 P:AC SP:FB
C88D  A9 55     LDA #$55                        A:FF X:00 Y:00 P:EC SP:FB
C88F  09 AA     ORA #$AA                        A:55 X:00 Y:00 P:6C SP:FB
C891  B0 0B     BCS $C89E                       A:FF X:00 Y:00 P:EC SP:FB
C893  10 09     BPL $C89E                       A:FF X:00 Y:00 P:EC SP:FB
C895  C9 FF     CMP #$FF                        A:FF X:00 Y:00 P:EC SP:FB
C897  D0 05     BNE $C89E                       A:FF X:00 Y:00 P:6F SP:FB
C899  50 03     BVC $C89E                       A:FF X:00 Y:00 P:6F SP:FB
C89B  4C A2 C8  JMP $C8A2                       A:FF X:00 Y:00 P:6F SP:FB
C8A2  EA        NOP                             A:FF X:00 Y:00 P:6F SP:FB
C8A3  38        SEC                             A:FF X:00 Y:00 P:6F SP:FB
C8A4  B8        CLV                             A:FF X:00 Y:00 P:6F SP:FB
C8A5  A9 00     LDA #$00                        A:FF X:00 Y:00 P:2F SP:FB
C8A7  09 00     ORA #$00                        A:00 X:00 Y:00 P:2F SP:FB
C8A9  D0 09     BNE $C8B4                       A:00 X:00 Y:00 P:2F SP:FB
C8AB  70 07     BVS $C8B4                       A:00 X:00 Y:00 P:2F SP:FB
C8AD  90 05     BCC $C8B4                       A:00 X:00 Y:00 P:2F SP:FB
C8AF  30 03     BMI $C8B4                       A:00 X:00 Y:00 P:2F SP:FB
C8B1  4C B8 C8  JMP $C8B8                       A:00 X:00 Y:00 P:2F SP:FB
C8B8  EA        NOP                             A:00 X:00 Y:00 P:2F SP:FB
C8B9  18        CLC                             A:00 X:00 Y:00 P:2F SP:FB
C8BA  24 01     BIT $01 = FF                    A:00 X:00 Y:00 P:2E SP:FB
C8BC  A9 55     LDA #$55                        A:00 X:00 Y:00 P:EE SP:FB
C8BE  29 AA     AND #$AA                        A:55 X:00 Y:00 P:6C SP:FB
C8C0  D0 09     BNE $C8CB                       A:00 X:00 Y:00 P:6E SP:FB
C8C2  50 07     BVC $C8CB                       A:00 X:00 Y:00 P:6E SP:FB
C8C4  B0 05     BCS $C8CB                       A:00 X:00 Y:00 P:6E SP:FB
C8C6  30 03     BMI $C8CB                       A:00 X:00 Y:00 P:6E SP:FB
C8C8  4C CF C8  JMP $C8CF                       A:00 X:00 Y:00 P:6E SP:FB
C8CF  EA        NOP                             A:00 X:00 Y:00 P:6E SP:FB
C8D0  38        SEC                             A:00 X:00 Y:00 P:6E SP:FB
C8D1  B8        CLV                             A:00 X:00 Y:00 P:6F SP:FB
C8D2  A9 F8     LDA #$F8                        A:00 X:00 Y:00 P:2F SP:FB
C8D4  29 EF     AND #$EF                        A:F8 X:00 Y:00 P:AD SP:FB
C8D6  90 0B     BCC $C8E3                       A:E8 X:00 Y:00 P:AD SP:FB
C8D8  10 09     BPL $C8E3                       A:E8 X:00 Y:00 P:AD SP:FB
C8DA  C9 E8     CMP #$E8                        A:E8 X:00 Y:00 P:AD SP:FB
C8DC  D0 05     BNE $C8E3                       A:E8 X:00 Y:00 P:2F SP:FB
C8DE  70 03     BVS $C8E3                       A:E8 X:00 Y:00 P:2F SP:FB
C8E0  4C E7 C8  JMP $C8E7                       A:E8 X:00 Y:00 P:2F SP:FB
C8E7  EA        NOP                             A:E8 X:00 Y:00 P:2F SP:FB
C8E8  18        CLC                             A:E8 X:00 Y:00 P:2F SP:FB
C8E9  24 01     BIT $01 = FF                    A:E8 X:00 Y:00 P:2E SP:FB
C8EB  A9 5F     LDA #$5F                        A:E8 X:00 Y:00 P:EC SP:FB
C8ED  49 AA     EOR #$AA                        A:5F X:00 Y:00 P:6C SP:FB
C8EF  B0 0B     BCS $C8FC                       A:F5 X:00 Y:00 P:EC SP:FB
C8F1  10 09     BPL $C8FC                       A:F5 X:00 Y:00 P:EC SP:FB
C8F3  C9 F5     CMP #$F5                        A:F5 X:00 Y:00 P:EC SP:FB
C8F5  D0 05     BNE $C8FC                       A:F5 X:00 Y:00 P:6F SP:FB
C8F7  50 03     BVC $C8FC                       A:F5 X:00 Y:00 P:6F SP:FB
C8F9  4C 00 C9  JMP $C900                       A:F5 X:00 Y:00 P:6F SP:FB
C900  EA        NOP                             A:F5 X:00 Y:00 P:6F SP:FB
C901  38        SEC                             A:F5 X:00 Y:00 P:6F SP:FB
C902  B8        CLV                             A:F5 X:00 Y:00 P:6F SP:FB
C903  A9 70     LDA #$70                        A:F5 X:00 Y:00 P:2F SP:FB
C905  49 70     EOR #$70                        A:70 X:00 Y:00 P:2D SP:FB
C907  D0 09     BNE $C912                       A:00 X:00 Y:00 P:2F SP:FB
C909  70 07     BVS $C912                       A:00 X:00 Y:00 P:2F SP:FB
C90B  90 05     BCC $C912                       A:00 X:00 Y:00 P:2F SP:FB
C90D  30 03     BMI $C912                       A:00 X:00 Y:00 P:2F SP:FB
C90F  4C 16 C9  JMP $C916                       A:00 X:00 Y:00 P:2F SP:FB
C916  EA        NOP                             A:00 X:00 Y:00 P:2F SP:FB
C917  18        CLC                             A:00 X:00 Y:00 P:2F SP:FB
C918  24 01     BIT $01 = FF                    A:00 X:00 Y:00 P:2E SP:FB
C91A  A9 00     LDA #$00                        A:00 X:00 Y:00 P:EE SP:FB
C91C  69 69     ADC #$69                        A:00 X:00 Y:00 P:6E SP:FB
C91E  30 0B     BMI $C92B                       A:69 X:00 Y:00 P:2C SP:FB
C920  B0 09     BCS $C92B                       A:69 X:00 Y:00 P:2C SP:FB
C922  C9 69     CMP #$69                        A:69 X:00 Y:00 P:2C SP:FB
C924  D0 05     BNE $C92B                       A:69 X:00 Y:00 P:2F SP:FB
C926  70 03     BVS $C92B                       A:69 X:00 Y:00 P:2F SP:FB
C928  4C 2F C9  JMP $C92F                       A:69 X:00 Y:00 P:2F SP:FB
C92F  EA        NOP                             A:69 X:00 Y:00 P:2F SP:FB
C930  38        SEC                             A:69 X:00 Y:00 P:2F SP:FB
C931  F8        SED                             A:69 X:00 Y:00 P:2F SP:FB
C932  24 01     BIT $01 = FF                    A:69 X:00 Y:00 P:2F SP:FB
C934  A9 01     LDA #$01                        A:69 X:00 Y:00 P:ED SP:FB
C936  69 69     ADC #$69                        A:01 X:00 Y:00 P:6D SP:FB
C938  30 0B     BMI $C945                       A:6B X:00 Y:00 P:2C SP:FB
C93A  B0 09     BCS $C945                       A:6B X:00 Y:00 P:2C SP:FB
C93C  C9 6B     CMP #$6B                        A:6B X:00 Y:00 P:2C SP:FB
C93E  D0 05     BNE $C945                       A:6B X:00 Y:00 P:2F SP:FB
C940  70 03     BVS $C945                       A:6B X:00 Y:00 P:2F SP:FB
C942  4C 49 C9  JMP $C949                       A:6B X:00 Y:00 P:2F SP:FB
C949  EA        NOP                             A:6B X:00 Y:00 P:2F SP:FB
C94A  D8        CLD                             A:6B X:00 Y:00 P:2F SP:FB
C94B  38        SEC                             A:6B X:00 Y:00 P:27 SP:FB
C94C  B8        CLV                             A:6B X:00 Y:00 P:27 SP:FB
C94D  A9 7F     LDA #$7F                        A:6B X:00 Y:00 P:27 SP:FB
C94F  69 7F     ADC #$7F                        A:7F X:00 Y:00 P:25 SP:FB
C951  10 0B     BPL $C95E                       A:FF X:00 Y:00 P:E4 SP:FB
C953  B0 09     BCS $C95E                       A:FF X:00 Y:00 P:E4 SP:FB
C955  C9 FF     CMP #$FF                        A:FF X:00 Y:00 P:E4 SP:FB
C957  D0 05     BNE $C95E                       A:FF X:00 Y:00 P:67 SP:FB
C959  50 03     BVC $C95E                       A:FF X:00 Y:00 P:67 SP:FB
C95B  4C 62 C9  JMP $C962                       A:FF X:00 Y:00 P:67 SP:FB
C962  EA        NOP                             A:FF X:00 Y:00 P:67 SP:FB
C963  18        CLC                             A:FF X:00 Y:00 P:67 SP:FB
C964  24 01     BIT $01 = FF                    A:FF X:00 Y:00 P:66 SP:FB
C966  A9 7F     LDA #$7F                        A:FF X:00 Y:00 P:E4 SP:FB
C968  69 80     ADC #$80                        A:7F X:00 Y:00 P:64 SP:FB
C96A  10 0B     BPL $C977                       A:FF X:00 Y:00 P:A4 SP:FB
C96C  B0 09     BCS $C977                       A:FF X:00 Y:00 P:A4 SP:FB
C96E  C9 FF     CMP #$FF                        A:FF X:00 Y:00 P:A4 SP:FB
C970  D0 05     BNE $C977                       A:FF X:00 Y:00 P:27 SP:FB
C972  70 03     BVS $C977                       A:FF X:00 Y:00 P:27 SP:FB
C974  4C 7B C9  JMP $C97B                       A:FF X:00 Y:00 P:27 SP:FB
C97B  EA        NOP                             A:FF X:00 Y:00 P:27 SP:FB
C97C  38        SEC                             A:FF X:00 Y:00 P:27 SP:FB
C97D  B8        CLV                             A:FF X:00 Y:00 P:27 SP:FB
C97E  A9 7F     LDA #$7F                        A:FF X:00 Y:00 P:27 SP:FB
C980  69 80     ADC #$80                        A:7F X:00 Y:00 P:25 SP:FB
C982  D0 09     BNE $C98D                       A:00 X:00 Y:00 P:27 SP:FB
C984  30 07     BMI $C98D                       A:00 X:00 Y:00 P:27 SP:FB
C986  70 05     BVS $C98D                       A:00 X:00 Y:00 P:27 SP:FB
C988  90 03     BCC $C98D                       A:00 X:00 Y:00 P:27 SP:FB
C98A  4C 91 C9  JMP $C991                       A:00 X:00 Y:00 P:27 SP:FB
C991  EA        NOP                             A:00 X:00 Y:00 P:27 SP:FB
C992  38        SEC                             A:00 X:00 Y:00 P:27 SP:FB
C993  B8        CLV                             A:00 X:00 Y:00 P:27 SP:FB
C994  A9 9F     LDA #$9F                        A:00 X:00 Y:00 P:27 SP:FB
C996  F0 09     BEQ $C9A1                       A:9F X:00 Y:00 P:A5 SP:FB
C998  10 07     BPL $C9A1                       A:9F X:00 Y:00 P:A5 SP:FB
C99A  70 05     BVS $C9A1                       A:9F X:00 Y:00 P:A5 SP:FB
C99C  90 03     BCC $C9A1                       A:9F X:00 Y:00 P:A5 SP:FB
C99E  4C A5 C9  JMP $C9A5                       A:9F X:00 Y:00 P:A5 SP:FB
C9A5  EA        NOP                             A:9F X:00 Y:00 P:A5 SP:FB
C9A6  18        CLC                             A:9F X:00 Y:00 P:A5 SP:FB
C9A7  24 01     BIT $01 = FF                    A:9F X:00 Y:00 P:A4 SP:FB
C9A9  A9 00     LDA #$00                        A:9F X:00 Y:00 P:E4 SP:FB
C9AB  D0 09     BNE $C9B6                       A:00 X:00 Y:00 P:66 SP:FB
C9AD  30 07     BMI $C9B6                       A:00 X:00 Y:00 P:66 SP:FB
C9AF  50 05     BVC $C9B6                       A:00 X:00 Y:00 P:66 SP:FB
C9B1  B0 03     BCS $C9B6                       A:00 X:00 Y:00 P:66 SP:FB
C9B3  4C BA C9  JMP $C9BA                       A:00 X:00 Y:00 P:66 SP:FB
C9BA  EA        NOP                             A:00 X:00 Y:00 P:66 SP:FB
C9BB  24 01     BIT $01 = FF                    A:00 X:00 Y:00 P:66 SP:FB
C9BD  A9 40     LDA #$40                        A:00 X:00 Y:00 P:E6 SP:FB
C9BF  C9 40     CMP #$40                        A:40 X:00 Y:00 P:64 SP:FB
C9C1  30 09     BMI $C9CC                       A:40 X:00 Y:00 P:67 SP:FB
C9C3  90 07     BCC $C9CC                       A:40 X:00 Y:00 P:67 SP:FB
C9C5  D0 05     BNE $C9CC                       A:40 X:00 Y:00 P:67 SP:FB
C9C7  50 03     BVC $C9CC                       A:40 X:00 Y:00 P:67 SP:FB
C9C9  4C D0 C9  JMP $C9D0                       A:40 X:00 Y:00 P:67 SP:FB
C9D0  EA        NOP                             A:40 X:00 Y:00 P:67 SP:FB
C9D1  B8        CLV                             A:40 X:00 Y:00 P:67 SP:FB
C9D2  C9 3F     CMP #$3F                        A:40 X:00 Y:00 P:27 SP:FB
C9D4  F0 09     BEQ $C9DF                       A:40 X:00 Y:00 P:25 SP:FB
C9D6  30 07     BMI $C9DF                       A:40 X:00 Y:00 P:25 SP:FB
C9D8  90 05     BCC $C9DF                       A:40 X:00 Y:00 P:25 SP:FB
C9DA  70 03     BVS $C9DF                       A:40 X:00 Y:00 P:25 SP:FB
C9DC  4C E3 C9  JMP $C9E3                       A:40 X:00 Y:00 P:25 SP:FB
C9E3  EA        NOP                             A:40 X:00 Y:00 P:25 SP:FB
C9E4  C9 41     CMP #$41                        A:40 X:00 Y:00 P:25 SP:FB
C9E6  F0 07     BEQ $C9EF                       A:40 X:00 Y:00 P:A4 SP:FB
C9E8  10 05     BPL $C9EF                       A:40 X:00 Y:00 P:A4 SP:FB
C9EA  10 03     BPL $C9EF                       A:40 X:00 Y:00 P:A4 SP:FB
C9EC  4C F3 C9  JMP $C9F3                       A:40 X:00 Y:00 P:A4 SP:FB
C9F3  EA        NOP                             A:40 X:00 Y:00 P:A4 SP:FB
C9F4  A9 80     LDA #$80                        A:40 X:00 Y:00 P:A4 SP:FB
C9F6  C9 00     CMP #$00                        A:80 X:00 Y:00 P:A4 SP:FB
C9F8  F0 07     BEQ $CA01                       A:80 X:00 Y:00 P:A5 SP:FB
C9FA  10 05     BPL $CA01                       A:80 X:00 Y:00 P:A5 SP:FB
C9FC  90 03     BCC $CA01                       A:80 X:00 Y:00 P:A5 SP:FB
C9FE  4C 05 CA  JMP $CA05                       A:80 X:00 Y:00 P:A5 SP:FB
CA05  EA        NOP                             A:80 X:00 Y:00 P:A5 SP:FB
CA06  C9 80     CMP #$80                        A:80 X:00 Y:00 P:A5 SP:FB
CA08  D0 07     BNE $CA11                       A:80 X:00 Y:00 P:27 SP:FB
CA0A  30 05     BMI $CA11                       A:80 X:00 Y:00 P:27 SP:FB
CA0C  90 03     BCC $CA11                       A:80 X:00 Y:00 P:27 SP:FB
CA0E  4C 15 CA  JMP $CA15                       A:80 X:00 Y:00 P:27 SP:FB
CA15  EA        NOP                             A:80 X:00 Y:00 P:27 SP:FB
CA16  C9 81     CMP #$81                        A:80 X:00 Y:00 P:27 SP:FB
CA18  B0 07     BCS $CA21                       A:80 X:00 Y:00 P:A4 SP:FB
CA1A  F0 05     BEQ $CA21                       A:80 X:00 Y:00 P:A4 SP:FB
CA1C  10 03     BPL $CA21                       A:80 X:00 Y:00 P:A4 SP:FB
CA1E  4C 25 CA  JMP $CA25                       A:80 X:00 Y:00 P:A4 SP:FB
CA25  EA        NOP                             A:80 X:00 Y:00 P:A4 SP:FB
CA26  C9 7F     CMP #$7F                        A:80 X:00 Y:00 P:A4 SP:FB
CA28  90 07     BCC $CA31                       A:80 X:00 Y:00 P:25 SP:FB
CA2A  F0 05     BEQ $CA31                       A:80 X:00 Y:00 P:25 SP:FB
CA2C  30 03     BMI $CA31                       A:80 X:00 Y:00 P:25 SP:FB
CA2E  4C 35 CA  JMP $CA35                       A:80 X:00 Y:00 P:25 SP:FB
CA35  EA        NOP                             A:80 X:00 Y:00 P:25 SP:FB
CA36  24 01     BIT $01 = FF                    A:80 X:00 Y:00 P:25 SP:FB
CA38  A0 40     LDY #$40                        A:80 X:00 Y:00 P:E5 SP:FB
CA3A  C0 40     CPY #$40                        A:80 X:00 Y:40 P:65 SP:FB
CA3C  D0 09     BNE $CA47                       A:80 X:00 Y:40 P:67 SP:FB
CA3E  30 07     BMI $CA47                       A:80 X:00 Y:40 P:67 SP:FB
CA40  90 05     BCC $CA47                       A:80 X:00 Y:40 P:67 SP:FB
CA42  50 03     BVC $CA47                       A:80 X:00 Y:40 P:67 SP:FB
CA44  4C 4B CA  JMP $CA4B                       A:80 X:00 Y:40 P:67 SP:FB
CA4B  EA        NOP                             A:80 X:00 Y:40 P:67 SP:FB
CA4C  B8        CLV                             A:80 X:00 Y:40 P:67 SP:FB
CA4D  C0 3F     CPY #$3F                        A:80 X:00 Y:40 P:27 SP:FB
CA4F  F0 09     BEQ $CA5A                       A:80 X:00 Y:40 P:25 SP:FB
CA51  30 07     BMI $CA5A                       A:80 X:00 Y:40 P:25 SP:FB
CA53  90 05     BCC $CA5A                       A:80 X:00 Y:40 P:25 SP:FB
CA55  70 03     BVS $CA5A                       A:80 X:00 Y:40 P:25 SP:FB
CA57  4C 5E CA  JMP $CA5E                       A:80 X:00 Y:40 P:25 SP:FB
CA5E  EA        NOP                             A:80 X:00 Y:40 P:25 SP:FB
CA5F  C0 41     CPY #$41                        A:80 X:00 Y:40 P:25 SP:FB
CA61  F0 07     BEQ $CA6A                       A:80 X:00 Y:40 P:A4 SP:FB
CA63  10 05     BPL $CA6A                       A:80 X:00 Y:40 P:A4 SP:FB
CA65  10 03     BPL $CA6A                       A:80 X:00 Y:40 P:A4 SP:FB
CA67  4C 6E CA  JMP $CA6E                       A:80 X:00 Y:40 P:A4 SP:FB
CA6E  EA        NOP                             A:80 X:00 Y:40 P:A4 SP:FB
CA6F  A0 80     LDY #$80                        A:80 X:00 Y:40 P:A4 SP:FB
CA71  C0 00     CPY #$00                        A:80 X:00 Y:80 P:A4 SP:FB
CA73  F0 07     BEQ $CA7C                       A:80 X:00 Y:80 P:A5 SP:FB
CA75  10 05     BPL $CA7C                       A:80 X:00 Y:80 P:A5 SP:FB
CA77  90 03     BCC $CA7C                       A:80 X:00 Y:80 P:A5 SP:FB
CA79  4C 80 CA  JMP $CA80                       A:80 X:00 Y:80 P:A5 SP:FB
CA80  EA        NOP                             A:80 X:00 Y:80 P:A5 SP:FB
CA81  C0 80     CPY #$80                        A:80 X:00 Y:80 P:A5 SP:FB
CA83  D0 07     BNE $CA8C                       A:80 X:00 Y:80 P:27 SP:FB
CA85  30 05     BMI $CA8C                       A:80 X:00 Y:80 P:27 SP:FB
CA87  90 03     BCC $CA8C                       A:80 X:00 Y:80 P:27 SP:FB
CA89  4C 90 CA  JMP $CA90                       A:80 X:00 Y:80 P:27 SP:FB
CA90  EA        NOP                             A:80 X:00 Y:80 P:27 SP:FB
CA91  C0 81     CPY #$81                        A:80 X:00 Y:80 P:27 SP:FB
CA93  B0 07     BCS $CA9C                       A:80 X:00 Y:80 P:A4 SP:FB
CA95  F0 05     BEQ $CA9C                       A:80 X:00 Y:80 P:A4 SP:FB
CA97  10 03     BPL $CA9C                       A:80 X:00 Y:80 P:A4 SP:FB
CA99  4C A0 CA  JMP $CAA0                       A:80 X:00 Y:80 P:A4 SP:FB
CAA0  EA        NOP                             A:80 X:00 Y:80 P:A4 SP:FB
CAA1  C0 7F     CPY #$7F                        A:80 X:00 Y:80 P:A4 SP:FB
CAA3  90 07     BCC $CAAC                       A:80 X:00 Y:80 P:25 SP:FB
CAA5  F0 05     BEQ $CAAC                       A:80 X:00 Y:80 P:25 SP:FB
CAA7  30 03     BMI $CAAC                       A:80 X:00 Y:80 P:25 SP:FB
CAA9  4C B0 CA  JMP $CAB0                       A:80 X:00 Y:80 P:25 SP:FB
CAB0  EA        NOP                             A:80 X:00 Y:80 P:25 SP:FB
CAB1  24 01     BIT $01 = FF                    A:80 X:00 Y:80 P:25 SP:FB
CAB3  A2 40     LDX #$40                        A:80 X:00 Y:80 P:E5 SP:FB
CAB5  E0 40     CPX #$40                        A:80 X:40 Y:80 P:65 SP:FB
CAB7  D0 09     BNE $CAC2                       A:80 X:40 Y:80 P:67 SP:FB
CAB9  30 07     BMI $CAC2                       A:80 X:40 Y:80 P:67 SP:FB
CABB  90 05     BCC $CAC2                       A:80 X:40 Y:80 P:67 SP:FB
CABD  50 03     BVC $CAC2                       A:80 X:40 Y:80 P:67 SP:FB
CABF  4C C6 CA  JMP $CAC6                       A:80 X:40 Y:80 P:67 SP:FB
CAC6  EA        NOP                             A:80 X:40 Y:80 P:67 SP:FB
CAC7  B8        CLV                             A:80 X:40 Y:80 P:67 SP:FB
CAC8  E0 3F     CPX #$3F                        A:80 X:40 Y:80 P:27 SP:FB
CACA  F0 09     BEQ $CAD5                       A:80 X:40 Y:80 P:25 SP:FB
CACC  30 07     BMI $CAD5                       A:80 X:40 Y:80 P:25 SP:FB
CACE  90 05     BCC $CAD5                       A:80 X:40 Y:80 P:25 SP:FB
CAD0  70 03     BVS $CAD5                       A:80 X:40 Y:80 P:25 SP:FB
CAD2  4C D9 CA  JMP $CAD9                       A:80 X:40 Y:80 P:25 SP:FB
CAD9  EA        NOP                             A:80 X:40 Y:80 P:25 SP:FB
CADA  E0 41     CPX #$41                        A:80 X:40 Y:80 P:25 SP:FB
CADC  F0 07     BEQ $CAE5                       A:80 X:40 Y:80 P:A4 SP:FB
CADE  10 05     BPL $CAE5                       A:80 X:40 Y:80 P:A4 SP:FB
CAE0  10 03     BPL $CAE5                       A:80 X:40 Y:80 P:A4 SP:FB
CAE2  4C E9 CA  JMP $CAE9                       A:80 X:40 Y:80 P:A4 SP:FB
CAE9  EA        NOP                             A:80 X:40 Y:80 P:A4 SP:FB
CAEA  A2 80     LDX #$80                        A:80 X:40 Y:80 P:A4 SP:FB
CAEC  E0 00     CPX #$00                        A:80 X:80 Y:80 P:A4 SP:FB
CAEE  F0 07     BEQ $CAF7                       A:80 X:80 Y:80 P:A5 SP:FB
CAF0  10 05     BPL $CAF7                       A:80 X:80 Y:80 P:A5 SP:FB
CAF2  90 03     BCC $CAF7                       A:80 X:80 Y:80 P:A5 SP:FB
CAF4  4C FB CA  JMP $CAFB                       A:80 X:80 Y:80 P:A5 SP:FB
CAFB  EA        NOP                             A:80 X:80 Y:80 P:A5 SP:FB
CAFC  E0 80     CPX #$80                        A:80 X:80 Y:80 P:A5 SP:FB
CAFE  D0 07     BNE $CB07                       A:80 X:80 Y:80 P:27 SP:FB
CB00  30 05     BMI $CB07                       A:80 X:80 Y:80 P:27 SP:FB
CB02  90 03     BCC $CB07                       A:80 X:80 Y:80 P:27 SP:FB
CB04  4C 0B CB  JMP $CB0B                       A:80 X:80 Y:80 P:27 SP:FB
CB0B  EA        NOP                             A:80 X:80 Y:80 P:27 SP:FB
CB0C  E0 81     CPX #$81                        A:80 X:80 Y:80 P:27 SP:FB
CB0E  B0 07     BCS $CB17                       A:80 X:80 Y:80 P:A4 SP:FB
CB10  F0 05     BEQ $CB17                       A:80 X:80 Y:80 P:A4 SP:FB
CB12  10 03     BPL $CB17                       A:80 X:80 Y:80 P:A4 SP:FB
CB14  4C 1B CB  JMP $CB1B                       A:80 X:80 Y:80 P:A4 SP:FB
CB1B  EA        NOP                             A:80 X:80 Y:80 P:A4 SP:FB
CB1C  E0 7F     CPX #$7F                        A:80 X:80 Y:80 P:A4 SP:FB
CB1E  90 07     BCC $CB27                       A:80 X:80 Y:80 P:25 SP:FB
CB20  F0 05     BEQ $CB27                       A:80 X:80 Y:80 P:25 SP:FB
CB22  30 03     BMI $CB27                       A:80 X:80 Y:80 P:25 SP:FB
CB24  4C 2B CB  JMP $CB2B                       A:80 X:80 Y:80 P:25 SP:FB
CB2B  EA        NOP                             A:80 X:80 Y:80 P:25 SP:FB
CB2C  38        SEC                             A:80 X:80 Y:80 P:25 SP:FB
CB2D  B8        CLV                             A:80 X:80 Y:80 P:25 SP:FB
CB2E  A2 9F     LDX #$9F                        A:80 X:80 Y:80 P:25 SP:FB
CB30  F0 09     BEQ $CB3B                       A:80 X:9F Y:80 P:A5 SP:FB
CB32  10 07     BPL $CB3B                       A:80 X:9F Y:80 P:A5 SP:FB
CB34  70 05     BVS $CB3B                       A:80 X:9F Y:80 P:A5 SP:FB
CB36  90 03     BCC $CB3B                       A:80 X:9F Y:80 P:A5 SP:FB
CB38  4C 3F CB  JMP $CB3F                       A:80 X:9F Y:80 P:A5 SP:FB
CB3F  EA        NOP                             A:80 X:9F Y:80 P:A5 SP:FB
CB40  18        CLC                             A:80 X:9F Y:80 P:A5 SP:FB
CB41  24 01     BIT $01 = FF                    A:80 X:9F Y:80 P:A4 SP:FB
CB43  A2 00     LDX #$00                        A:80 X:9F Y:80 P:E4 SP:FB
CB45  D0 09     BNE $CB50                       A:80 X:00 Y:80 P:66 SP:FB
CB47  30 07     BMI $CB50                       A:80 X:00 Y:80 P:66 SP:FB
CB49  50 05     BVC $CB50                       A:80 X:00 Y:80 P:66 SP:FB
CB4B  B0 03     BCS $CB50                       A:80 X:00 Y:80 P:66 SP:FB
CB4D  4C 54 CB  JMP $CB54                       A:80 X:00 Y:80 P:66 SP:FB
CB54  EA        NOP                             A:80 X:00 Y:80 P:66 SP:FB
CB55  38        SEC                             A:80 X:00 Y:80 P:66 SP:FB
CB56  B8        CLV                             A:80 X:00 Y:80 P:67 SP:FB
CB57  A0 9F     LDY #$9F                        A:80 X:00 Y:80 P:27 SP:FB
CB59  F0 09     BEQ $CB64                       A:80 X:00 Y:9F P:A5 SP:FB
CB5B  10 07     BPL $CB64                       A:80 X:00 Y:9F P:A5 SP:FB
CB5D  70 05     BVS $CB64                       A:80 X:00 Y:9F P:A5 SP:FB
CB5F  90 03     BCC $CB64                       A:80 X:00 Y:9F P:A5 SP:FB
CB61  4C 68 CB  JMP $CB68                       A:80 X:00 Y:9F P:A5 SP:FB
CB68  EA        NOP                             A:80 X:00 Y:9F P:A5 SP:FB
CB69  18        CLC                             A:80 X:00 Y:9F P:A5 SP:FB
CB6A  24 01     BIT $01 = FF                    A:80 X:00 Y:9F P:A4 SP:FB
CB6C  A0 00     LDY #$00                        A:80 X:00 Y:9F P:E4 SP:FB
CB6E  D0 09     BNE $CB79                       A:80 X:00 Y:00 P:66 SP:FB
CB70  30 07     BMI $CB79                       A:80 X:00 Y:00 P:66 SP:FB
CB72  50 05     BVC $CB79                       A:80 X:00 Y:00 P:66 SP:FB
CB74  B0 03     BCS $CB79                       A:80 X:00 Y:00 P:66 SP:FB
CB76  4C 7D CB  JMP $CB7D                       A:80 X:00 Y:00 P:66 SP:FB
CB7D  EA        NOP                             A:80 X:00 Y:00 P:66 SP:FB
CB7E  A9 55     LDA #$55                        A:80 X:00 Y:00 P:66 SP:FB
CB80  A2 AA     LDX #$AA                        A:55 X:00 Y:00 P:64 SP:FB
CB82  A0 33     LDY #$33                        A:55 X:AA Y:00 P:E4 SP:FB
CB84  C9 55     CMP #$55                        A:55 X:AA Y:33 P:64 SP:FB
CB86  D0 23     BNE $CBAB                       A:55 X:AA Y:33 P:67 SP:FB
CB88  E0 AA     CPX #$AA                        A:55 X:AA Y:33 P:67 SP:FB
CB8A  D0 1F     BNE $CBAB                       A:55 X:AA Y:33 P:67 SP:FB
CB8C  C0 33     CPY #$33                        A:55 X:AA Y:33 P:67 SP:FB
CB8E  D0 1B     BNE $CBAB                       A:55 X:AA Y:33 P:67 SP:FB
CB90  C9 55     CMP #$55                        A:55 X:AA Y:33 P:67 SP:FB
CB92  D0 17     BNE $CBAB                       A:55 X:AA Y:33 P:67 SP:FB
CB94  E0 AA     CPX #$AA                        A:55 X:AA Y:33 P:67 SP:FB
CB96  D0 13     BNE $CBAB                       A:55 X:AA Y:33 P:67 SP:FB
CB98  C0 33     CPY #$33                        A:55 X:AA Y:33 P:67 SP:FB
CB9A  D0 0F     BNE $CBAB                       A:55 X:AA Y:33 P:67 SP:FB
CB9C  C9 56     CMP #$56                        A:55 X:AA Y:33 P:67 SP:FB
CB9E  F0 0B     BEQ $CBAB                       A:55 X:AA Y:33 P:E4 SP:FB
CBA0  E0 AB     CPX #$AB                        A:55 X:AA Y:33 P:E4 SP:FB
CBA2  F0 07     BEQ $CBAB                       A:55 X:AA Y:33 P:E4 SP:FB
CBA4  C0 34     CPY #$34                        A:55 X:AA Y:33 P:E4 SP:FB
CBA6  F0 03     BEQ $CBAB                       A:55 X:AA Y:33 P:E4 SP:FB
CBA8  4C AF CB  JMP $CBAF                       A:55 X:AA Y:33 P:E4 SP:FB
CBAF  A0 71     LDY #$71                        A:55 X:AA Y:33 P:E4 SP:FB
CBB1  20 31 F9  JSR $F931                       A:55 X:AA Y:71 P:64 SP:FB
F931  24 01     BIT $01 = FF                    A:55 X:AA Y:71 P:64 SP:F9
F933  A9 40     LDA #$40                        A:55 X:AA Y:71 P:E4 SP:F9
F935  38        SEC                             A:40 X:AA Y:71 P:64 SP:F9
F936  60        RTS                             A:40 X:AA Y:71 P:65 SP:F9
CBB4  E9 40     SBC #$40                        A:40 X:AA Y:71 P:65 SP:FB
CBB6  20 37 F9  JSR $F937                       A:00 X:AA Y:71 P:27 SP:FB
F937  30 0B     BMI $F944                       A:00 X:AA Y:71 P:27 SP:F9
F939  90 09     BCC $F944                       A:00 X:AA Y:71 P:27 SP:F9
F93B  D0 07     BNE $F944                       A:00 X:AA Y:71 P:27 SP:F9
F93D  70 05     BVS $F944                       A:00 X:AA Y:71 P:27 SP:F9
F93F  C9 00     CMP #$00                        A:00 X:AA Y:71 P:27 SP:F9
F941  D0 01     BNE $F944                       A:00 X:AA Y:71 P:27 SP:F9
F943  60        RTS                             A:00 X:AA Y:71 P:27 SP:F9
CBB9  C8        INY                             A:00 X:AA Y:71 P:27 SP:FB
CBBA  20 47 F9  JSR $F947                       A:00 X:AA Y:72 P:25 SP:FB
F947  B8        CLV                             A:00 X:AA Y:72 P:25 SP:F9
F948  38        SEC                             A:00 X:AA Y:72 P:25 SP:F9
F949  A9 40     LDA #$40                        A:00 X:AA Y:72 P:25 SP:F9
F94B  60        RTS                             A:40 X:AA Y:72 P:25 SP:F9
CBBD  E9 3F     SBC #$3F                        A:40 X:AA Y:72 P:25 SP:FB
CBBF  20 4C F9  JSR $F94C                       A:01 X:AA Y:72 P:25 SP:FB
F94C  F0 0B     BEQ $F959                       A:01 X:AA Y:72 P:25 SP:F9
F94E  30 09     BMI $F959                       A:01 X:AA Y:72 P:25 SP:F9
F950  90 07     BCC $F959                       A:01 X:AA Y:72 P:25 SP:F9
F952  70 05     BVS $F959                       A:01 X:AA Y:72 P:25 SP:F9
F954  C9 01     CMP #$01                        A:01 X:AA Y:72 P:25 SP:F9
F956  D0 01     BNE $F959                       A:01 X:AA Y:72 P:27 SP:F9
F958  60        RTS                             A:01 X:AA Y:72 P:27 SP:F9
CBC2  C8        INY                             A:01 X:AA Y:72 P:27 SP:FB
CBC3  20 5C F9  JSR $F95C                       A:01 X:AA Y:73 P:25 SP:FB
F95C  A9 40     LDA #$40                        A:01 X:AA Y:73 P:25 SP:F9
F95E  38        SEC                             A:40 X:AA Y:73 P:25 SP:F9
F95F  24 01     BIT $01 = FF                    A:40 X:AA Y:73 P:25 SP:F9
F961  60        RTS                             A:40 X:AA Y:73 P:E5 SP:F9
CBC6  E9 41     SBC #$41                        A:40 X:AA Y:73 P:E5 SP:FB
CBC8  20 62 F9  JSR $F962                       A:FF X:AA Y:73 P:A4 SP:FB
F962  B0 0B     BCS $F96F                       A:FF X:AA Y:73 P:A4 SP:F9
F964  F0 09     BEQ $F96F                       A:FF X:AA Y:73 P:A4 SP:F9
F966  10 07     BPL $F96F                       A:FF X:AA Y:73 P:A4 SP:F9
F968  70 05     BVS $F96F                       A:FF X:AA Y:73 P:A4 SP:F9
F96A  C9 FF     CMP #$FF                        A:FF X:AA Y:73 P:A4 SP:F9
F96C  D0 01     BNE $F96F                       A:FF X:AA Y:73 P:27 SP:F9
F96E  60        RTS                             A:FF X:AA Y:73 P:27 SP:F9
CBCB  C8        INY                             A:FF X:AA Y:73 P:27 SP:FB
CBCC  20 72 F9  JSR $F972                       A:FF X:AA Y:74 P:25 SP:FB
F972  18        CLC                             A:FF X:AA Y:74 P:25 SP:F9
F973  A9 80     LDA #$80                        A:FF X:AA Y:74 P:24 SP:F9
F975  60        RTS                             A:80 X:AA Y:74 P:A4 SP:F9
CBCF  E9 00     SBC #$00                        A:80 X:AA Y:74 P:A4 SP:FB
CBD1  20 76 F9  JSR $F976                       A:7F X:AA Y:74 P:65 SP:FB
F976  90 05     BCC $F97D                       A:7F X:AA Y:74 P:65 SP:F9
F978  C9 7F     CMP #$7F                        A:7F X:AA Y:74 P:65 SP:F9
F97A  D0 01     BNE $F97D                       A:7F X:AA Y:74 P:67 SP:F9
F97C  60        RTS                             A:7F X:AA Y:74 P:67 SP:F9
CBD4  C8        INY                             A:7F X:AA Y:74 P:67 SP:FB
CBD5  20 80 F9  JSR $F980                       A:7F X:AA Y:75 P:65 SP:FB
F980  38        SEC                             A:7F X:AA Y:75 P:65 SP:F9
F981  A9 81     LDA #$81                        A:7F X:AA Y:75 P:65 SP:F9
F983  60        RTS                             A:81 X:AA Y:75 P:E5 SP:F9
CBD8  E9 7F     SBC #$7F                        A:81 X:AA Y:75 P:E5 SP:FB
CBDA  20 84 F9  JSR $F984                       A:02 X:AA Y:75 P:65 SP:FB
F984  50 07     BVC $F98D                       A:02 X:AA Y:75 P:65 SP:F9
F986  90 05     BCC $F98D                       A:02 X:AA Y:75 P:65 SP:F9
F988  C9 02     CMP #$02                        A:02 X:AA Y:75 P:65 SP:F9
F98A  D0 01     BNE $F98D                       A:02 X:AA Y:75 P:67 SP:F9
F98C  60        RTS                             A:02 X:AA Y:75 P:67 SP:F9
CBDD  60        RTS                             A:02 X:AA Y:75 P:67 SP:FB
C606  20 DE CB  JSR $CBDE                       A:02 X:AA Y:75 P:67 SP:FD
CBDE  EA        NOP                             A:02 X:AA Y:75 P:67 SP:FB
CBDF  A9 FF     LDA #$FF                        A:02 X:AA Y:75 P:67 SP:FB
CBE1  85 01     STA $01 = FF                    A:FF X:AA Y:75 P:E5 SP:FB
CBE3  A9 44     LDA #$44                        A:FF X:AA Y:75 P:E5 SP:FB
CBE5  A2 55     LDX #$55                        A:44 X:AA Y:75 P:65 SP:FB
CBE7  A0 66     LDY #$66                        A:44 X:55 Y:75 P:65 SP:FB
CBE9  E8        INX                             A:44 X:55 Y:66 P:65 SP:FB
CBEA  88        DEY                             A:44 X:56 Y:66 P:65 SP:FB
CBEB  E0 56     CPX #$56                        A:44 X:56 Y:65 P:65 SP:FB
CBED  D0 21     BNE $CC10                       A:44 X:56 Y:65 P:67 SP:FB
CBEF  C0 65     CPY #$65                        A:44 X:56 Y:65 P:67 SP:FB
CBF1  D0 1D     BNE $CC10                       A:44 X:56 Y:65 P:67 SP:FB
CBF3  E8        INX                             A:44 X:56 Y:65 P:67 SP:FB
CBF4  E8        INX                             A:44 X:57 Y:65 P:65 SP:FB
CBF5  88        DEY                             A:44 X:58 Y:65 P:65 SP:FB
CBF6  88        DEY                             A:44 X:58 Y:64 P:65 SP:FB
CBF7  E0 58     CPX #$58                        A:44 X:58 Y:63 P:65 SP:FB
CBF9  D0 15     BNE $CC10                       A:44 X:58 Y:63 P:67 SP:FB
CBFB  C0 63     CPY #$63                        A:44 X:58 Y:63 P:67 SP:FB
CBFD  D0 11     BNE $CC10                       A:44 X:58 Y:63 P:67 SP:FB
CBFF  CA        DEX                             A:44 X:58 Y:63 P:67 SP:FB
CC00  C8        INY                             A:44 X:57 Y:63 P:65 SP:FB
CC01  E0 57     CPX #$57                        A:44 X:57 Y:64 P:65 SP:FB
CC03  D0 0B     BNE $CC10                       A:44 X:57 Y:64 P:67 SP:FB
CC05  C0 64     CPY #$64                        A:44 X:57 Y:64 P:67 SP:FB
CC07  D0 07     BNE $CC10                       A:44 X:57 Y:64 P:67 SP:FB
CC09  C9 44     CMP #$44                        A:44 X:57 Y:64 P:67 SP:FB
CC0B  D0 03     BNE $CC10                       A:44 X:57 Y:64 P:67 SP:FB
CC0D  4C 14 CC  JMP $CC14                       A:44 X:57 Y:64 P:67 SP:FB
CC14  EA        NOP                             A:44 X:57 Y:64 P:67 SP:FB
CC15  38        SEC                             A:44 X:57 Y:64 P:67 SP:FB
CC16  A2 69     LDX #$69                        A:44 X:57 Y:64 P:67 SP:FB
CC18  A9 96     LDA #$96                        A:44 X:69 Y:64 P:65 SP:FB
CC1A  24 01     BIT $01 = FF                    A:96 X:69 Y:64 P:E5 SP:FB
CC1C  A0 FF     LDY #$FF                        A:96 X:69 Y:64 P:E5 SP:FB
CC1E  C8        INY                             A:96 X:69 Y:FF P:E5 SP:FB
CC1F  D0 3D     BNE $CC5E                       A:96 X:69 Y:00 P:67 SP:FB
CC21  30 3B     BMI $CC5E                       A:96 X:69 Y:00 P:67 SP:FB
CC23  90 39     BCC $CC5E                       A:96 X:69 Y:00 P:67 SP:FB
CC25  50 37     BVC $CC5E                       A:96 X:69 Y:00 P:67 SP:FB
CC27  C0 00     CPY #$00                        A:96 X:69 Y:00 P:67 SP:FB
CC29  D0 33     BNE $CC5E                       A:96 X:69 Y:00 P:67 SP:FB
CC2B  C8        INY                             A:96 X:69 Y:00 P:67 SP:FB
CC2C  F0 30     BEQ $CC5E                       A:96 X:69 Y:01 P:65 SP:FB
CC2E  30 2E     BMI $CC5E                       A:96 X:69 Y:01 P:65 SP:FB
CC30  90 2C     BCC $CC5E                       A:96 X:69 Y:01 P:65 SP:FB
CC32  50 2A     BVC $CC5E                       A:96 X:69 Y:01 P:65 SP:FB
CC34  18        CLC                             A:96 X:69 Y:01 P:65 SP:FB
CC35  B8        CLV                             A:96 X:69 Y:01 P:64 SP:FB
CC36  A0 00     LDY #$00                        A:96 X:69 Y:01 P:24 SP:FB
CC38  88        DEY                             A:96 X:69 Y:00 P:26 SP:FB
CC39  F0 23     BEQ $CC5E                       A:96 X:69 Y:FF P:A4 SP:FB
CC3B  10 21     BPL $CC5E                       A:96 X:69 Y:FF P:A4 SP:FB
CC3D  B0 1F     BCS $CC5E                       A:96 X:69 Y:FF P:A4 SP:FB
CC3F  70 1D     BVS $CC5E                       A:96 X:69 Y:FF P:A4 SP:FB
CC41  C0 FF     CPY #$FF                        A:96 X:69 Y:FF P:A4 SP:FB
CC43  D0 19     BNE $CC5E                       A:96 X:69 Y:FF P:27 SP:FB
CC45  18        CLC                             A:96 X:69 Y:FF P:27 SP:FB
CC46  88        DEY                             A:96 X:69 Y:FF P:26 SP:FB
CC47  F0 15     BEQ $CC5E                       A:96 X:69 Y:FE P:A4 SP:FB
CC49  10 13     BPL $CC5E                       A:96 X:69 Y:FE P:A4 SP:FB
CC4B  B0 11     BCS $CC5E                       A:96 X:69 Y:FE P:A4 SP:FB
CC4D  70 0F     BVS $CC5E                       A:96 X:69 Y:FE P:A4 SP:FB
CC4F  C0 FE     CPY #$FE                        A:96 X:69 Y:FE P:A4 SP:FB
CC51  D0 0B     BNE $CC5E                       A:96 X:69 Y:FE P:27 SP:FB
CC53  C9 96     CMP #$96                        A:96 X:69 Y:FE P:27 SP:FB
CC55  D0 07     BNE $CC5E                       A:96 X:69 Y:FE P:27 SP:FB
CC57  E0 69     CPX #$69                        A:96 X:69 Y:FE P:27 SP:FB
CC59  D0 03     BNE $CC5E                       A:96 X:69 Y:FE P:27 SP:FB
CC5B  4C 62 CC  JMP $CC62                       A:96 X:69 Y:FE P:27 SP:FB
CC62  EA        NOP                             A:96 X:69 Y:FE P:27 SP:FB
CC63  38        SEC                             A:96 X:69 Y:FE P:27 SP:FB
CC64  A0 69     LDY #$69                        A:96 X:69 Y:FE P:27 SP:FB
CC66  A9 96     LDA #$96                        A:96 X:69 Y:69 P:25 SP:FB
CC68  24 01     BIT $01 = FF                    A:96 X:69 Y:69 P:A5 SP:FB
CC6A  A2 FF     LDX #$FF                        A:96 X:69 Y:69 P:E5 SP:FB
CC6C  E8        INX                             A:96 X:FF Y:69 P:E5 SP:FB
CC6D  D0 3D     BNE $CCAC                       A:96 X:00 Y:69 P:67 SP:FB
CC6F  30 3B     BMI $CCAC                       A:96 X:00 Y:69 P:67 SP:FB
CC71  90 39     BCC $CCAC                       A:96 X:00 Y:69 P:67 SP:FB
CC73  50 37     BVC $CCAC                       A:96 X:00 Y:69 P:67 SP:FB
CC75  E0 00     CPX #$00                        A:96 X:00 Y:69 P:67 SP:FB
CC77  D0 33     BNE $CCAC                       A:96 X:00 Y:69 P:67 SP:FB
CC79  E8        INX                             A:96 X:00 Y:69 P:67 SP:FB
CC7A  F0 30     BEQ $CCAC                       A:96 X:01 Y:69 P:65 SP:FB
CC7C  30 2E     BMI $CCAC                       A:96 X:01 Y:69 P:65 SP:FB
CC7E  90 2C     BCC $CCAC                       A:96 X:01 Y:69 P:65 SP:FB
CC80  50 2A     BVC $CCAC                       A:96 X:01 Y:69 P:65 SP:FB
CC82  18        CLC                             A:96 X:01 Y:69 P:65 SP:FB
CC83  B8        CLV                             A:96 X:01 Y:69 P:64 SP:FB
CC84  A2 00     LDX #$00                        A:96 X:01 Y:69 P:24 SP:FB
CC86  CA        DEX                             A:96 X:00 Y:69 P:26 SP:FB
CC87  F0 23     BEQ $CCAC                       A:96 X:FF Y:69 P:A4 SP:FB
CC89  10 21     BPL $CCAC                       A:96 X:FF Y:69 P:A4 SP:FB
CC8B  B0 1F     BCS $CCAC                       A:96 X:FF Y:69 P:A4 SP:FB
CC8D  70 1D     BVS $CCAC                       A:96 X:FF Y:69 P:A4 SP:FB
CC8F  E0 FF     CPX #$FF                        A:96 X:FF Y:69 P:A4 SP:FB
CC91  D0 19     BNE $CCAC                       A:96 X:FF Y:69 P:27 SP:FB
CC93  18        CLC                             A:96 X:FF Y:69 P:27 SP:FB
CC94  CA        DEX                             A:96 X:FF Y:69 P:26 SP:FB
CC95  F0 15     BEQ $CCAC                       A:96 X:FE Y:69 P:A4 SP:FB
CC97  10 13     BPL $CCAC                       A:96 X:FE Y:69 P:A4 SP:FB
CC99  B0 11     BCS $CCAC                       A:96 X:FE Y:69 P:A4 SP:FB
CC9B  70 0F     BVS $CCAC                       A:96 X:FE Y:69 P:A4 SP:FB
CC9D  E0 FE     CPX #$FE                        A:96 X:FE Y:69 P:A4 SP:FB
CC9F  D0 0B     BNE $CCAC                       A:96 X:FE Y:69 P:27 SP:FB
CCA1  C9 96     CMP #$96                        A:96 X:FE Y:69 P:27 SP:FB
CCA3  D0 07     BNE $CCAC                       A:96 X:FE Y:69 P:27 SP:FB
CCA5  C0 69     CPY #$69                        A:96 X:FE Y:69 P:27 SP:FB
CCA7  D0 03     BNE $CCAC                       A:96 X:FE Y:69 P:27 SP:FB
CCA9  4C B0 CC  JMP $CCB0                       A:96 X:FE Y:69 P:27 SP:FB
CCB0  EA        NOP                             A:96 X:FE Y:69 P:27 SP:FB
CCB1  A9 85     LDA #$85                        A:96 X:FE Y:69 P:27 SP:FB
CCB3  A2 34     LDX #$34                        A:85 X:FE Y:69 P:A5 SP:FB
CCB5  A0 99     LDY #$99                        A:85 X:34 Y:69 P:25 SP:FB
CCB7  18        CLC                             A:85 X:34 Y:99 P:A5 SP:FB
CCB8  24 01     BIT $01 = FF                    A:85 X:34 Y:99 P:A4 SP:FB
CCBA  A8        TAY                             A:85 X:34 Y:99 P:E4 SP:FB
CCBB  F0 2E     BEQ $CCEB                       A:85 X:34 Y:85 P:E4 SP:FB
CCBD  B0 2C     BCS $CCEB                       A:85 X:34 Y:85 P:E4 SP:FB
CCBF  50 2A     BVC $CCEB                       A:85 X:34 Y:85 P:E4 SP:FB
CCC1  10 28     BPL $CCEB                       A:85 X:34 Y:85 P:E4 SP:FB
CCC3  C9 85     CMP #$85                        A:85 X:34 Y:85 P:E4 SP:FB
CCC5  D0 24     BNE $CCEB                       A:85 X:34 Y:85 P:67 SP:FB
CCC7  E0 34     CPX #$34                        A:85 X:34 Y:85 P:67 SP:FB
CCC9  D0 20     BNE $CCEB                       A:85 X:34 Y:85 P:67 SP:FB
CCCB  C0 85     CPY #$85                        A:85 X:34 Y:85 P:67 SP:FB
CCCD  D0 1C     BNE $CCEB                       A:85 X:34 Y:85 P:67 SP:FB
CCCF  A9 00     LDA #$00                        A:85 X:34 Y:85 P:67 SP:FB
CCD1  38        SEC                             A:00 X:34 Y:85 P:67 SP:FB
CCD2  B8        CLV                             A:00 X:34 Y:85 P:67 SP:FB
CCD3  A8        TAY                             A:00 X:34 Y:85 P:27 SP:FB
CCD4  D0 15     BNE $CCEB                       A:00 X:34 Y:00 P:27 SP:FB
CCD6  90 13     BCC $CCEB                       A:00 X:34 Y:00 P:27 SP:FB
CCD8  70 11     BVS $CCEB                       A:00 X:34 Y:00 P:27 SP:FB
CCDA  30 0F     BMI $CCEB                       A:00 X:34 Y:00 P:27 SP:FB
CCDC  C9 00     CMP #$00                        A:00 X:34 Y:00 P:27 SP:FB
CCDE  D0 0B     BNE $CCEB                       A:00 X:34 Y:00 P:27 SP:FB
CCE0  E0 34     CPX #$34                        A:00 X:34 Y:00 P:27 SP:FB
CCE2  D0 07     BNE $CCEB                       A:00 X:34 Y:00 P:27 SP:FB
CCE4  C0 00     CPY #$00                        A:00 X:34 Y:00 P:27 SP:FB
CCE6  D0 03     BNE $CCEB                       A:00 X:34 Y:00 P:27 SP:FB
CCE8  4C EF CC  JMP $CCEF                       A:00 X:34 Y:00 P:27 SP:FB
CCEF  EA        NOP                             A:00 X:34 Y:00 P:27 SP:FB
CCF0  A9 85     LDA #$85                        A:00 X:34 Y:00 P:27 SP:FB
CCF2  A2 34     LDX #$34                        A:85 X:34 Y:00 P:A5 SP:FB
CCF4  A0 99     LDY #$99                        A:85 X:34 Y:00 P:25 SP:FB
CCF6  18        CLC                             A:85 X:34 Y:99 P:A5 SP:FB
CCF7  24 01     BIT $01 = FF                    A:85 X:34 Y:99 P:A4 SP:FB
CCF9  AA        TAX                             A:85 X:34 Y:99 P:E4 SP:FB
CCFA  F0 2E     BEQ $CD2A                       A:85 X:85 Y:99 P:E4 SP:FB
CCFC  B0 2C     BCS $CD2A                       A:85 X:85 Y:99 P:E4 SP:FB
CCFE  50 2A     BVC $CD2A                       A:85 X:85 Y:99 P:E4 SP:FB
CD00  10 28     BPL $CD2A                       A:85 X:85 Y:99 P:E4 SP:FB
CD02  C9 85     CMP #$85                        A:85 X:85 Y:99 P:E4 SP:FB
CD04  D0 24     BNE $CD2A                       A:85 X:85 Y:99 P:67 SP:FB
CD06  E0 85     CPX #$85                        A:85 X:85 Y:99 P:67 SP:FB
CD08  D0 20     BNE $CD2A                       A:85 X:85 Y:99 P:67 SP:FB
CD0A  C0 99     CPY #$99                        A:85 X:85 Y:99 P:67 SP:FB
CD0C  D0 1C     BNE $CD2A                       A:85 X:85 Y:99 P:67 SP:FB
CD0E  A9 00     LDA #$00                        A:85 X:85 Y:99 P:67 SP:FB
CD10  38        SEC                             A:00 X:85 Y:99 P:67 SP:FB
CD11  B8        CLV                             A:00 X:85 Y:99 P:67 SP:FB
CD12  AA        TAX                             A:00 X:85 Y:99 P:27 SP:FB
CD13  D0 15     BNE $CD2A                       A:00 X:00 Y:99 P:27 SP:FB
CD15  90 13     BCC $CD2A                       A:00 X:00 Y:99 P:27 SP:FB
CD17  70 11     BVS $CD2A                       A:00 X:00 Y:99 P:27 SP:FB
CD19  30 0F     BMI $CD2A                       A:00 X:00 Y:99 P:27 SP:FB
CD1B  C9 00     CMP #$00                        A:00 X:00 Y:99 P:27 SP:FB
CD1D  D0 0B     BNE $CD2A                       A:00 X:00 Y:99 P:27 SP:FB
CD1F  E0 00     CPX #$00                        A:00 X:00 Y:99 P:27 SP:FB
CD21  D0 07     BNE $CD2A                       A:00 X:00 Y:99 P:27 SP:FB
CD23  C0 99     CPY #$99                        A:00 X:00 Y:99 P:27 SP:FB
CD25  D0 03     BNE $CD2A                       A:00 X:00 Y:99 P:27 SP:FB
CD27  4C 2E CD  JMP $CD2E                       A:00 X:00 Y:99 P:27 SP:FB
CD2E  EA        NOP                             A:00 X:00 Y:99 P:27 SP:FB
CD2F  A9 85     LDA #$85                        A:00 X:00 Y:99 P:27 SP:FB
CD31  A2 34     LDX #$34                        A:85 X:00 Y:99 P:A5 SP:FB
CD33  A0 99     LDY #$99                        A:85 X:34 Y:99 P:25 SP:FB
CD35  18        CLC                             A:85 X:34 Y:99 P:A5 SP:FB
CD36  24 01     BIT $01 = FF                    A:85 X:34 Y:99 P:A4 SP:FB
CD38  98        TYA                             A:85 X:34 Y:99 P:E4 SP:FB
CD39  F0 2E     BEQ $CD69                       A:99 X:34 Y:99 P:E4 SP:FB
CD3B  B0 2C     BCS $CD69                       A:99 X:34 Y:99 P:E4 SP:FB
CD3D  50 2A     BVC $CD69                       A:99 X:34 Y:99 P:E4 SP:FB
CD3F  10 28     BPL $CD69                       A:99 X:34 Y:99 P:E4 SP:FB
CD41  C9 99     CMP #$99                        A:99 X:34 Y:99 P:E4 SP:FB
CD43  D0 24     BNE $CD69                       A:99 X:34 Y:99 P:67 SP:FB
CD45  E0 34     CPX #$34                        A:99 X:34 Y:99 P:67 SP:FB
CD47  D0 20     BNE $CD69                       A:99 X:34 Y:99 P:67 SP:FB
CD49  C0 99     CPY #$99                        A:99 X:34 Y:99 P:67 SP:FB
CD4B  D0 1C     BNE $CD69                       A:99 X:34 Y:99 P:67 SP:FB
CD4D  A0 00     LDY #$00                        A:99 X:34 Y:99 P:67 SP:FB
CD4F  38        SEC                             A:99 X:34 Y:00 P:67 SP:FB
CD50  B8        CLV                             A:99 X:34 Y:00 P:67 SP:FB
CD51  98        TYA                             A:99 X:34 Y:00 P:27 SP:FB
CD52  D0 15     BNE $CD69                       A:00 X:34 Y:00 P:27 SP:FB
CD54  90 13     BCC $CD69                       A:00 X:34 Y:00 P:27 SP:FB
CD56  70 11     BVS $CD69                       A:00 X:34 Y:00 P:27 SP:FB
CD58  30 0F     BMI $CD69                       A:00 X:34 Y:00 P:27 SP:FB
CD5A  C9 00     CMP #$00                        A:00 X:34 Y:00 P:27 SP:FB
CD5C  D0 0B     BNE $CD69                       A:00 X:34 Y:00 P:27 SP:FB
CD5E  E0 34     CPX #$34                        A:00 X:34 Y:00 P:27 SP:FB
CD60  D0 07     BNE $CD69                       A:00 X:34 Y:00 P:27 SP:FB
CD62  C0 00     CPY #$00                        A:00 X:34 Y:00 P:27 SP:FB
CD64  D0 03     BNE $CD69                       A:00 X:34 Y:00 P:27 SP:FB
CD66  4C 6D CD  JMP $CD6D                       A:00 X:34 Y:00 P:27 SP:FB
CD6D  EA        NOP                             A:00 X:34 Y:00 P:27 SP:FB
CD6E  A9 85     LDA #$85                        A:00 X:34 Y:00 P:27 SP:FB
CD70  A2 34     LDX #$34                        A:85 X:34 Y:00 P:A5 SP:FB
CD72  A0 99     LDY #$99                        A:85 X:34 Y:00 P:25 SP:FB
CD74  18        CLC                             A:85 X:34 Y:99 P:A5 SP:FB
CD75  24 01     BIT $01 = FF                    A:85 X:34 Y:99 P:A4 SP:FB
CD77  8A        TXA                             A:85 X:34 Y:99 P:E4 SP:FB
CD78  F0 2E     BEQ $CDA8                       A:34 X:34 Y:99 P:64 SP:FB
CD7A  B0 2C     BCS $CDA8                       A:34 X:34 Y:99 P:64 SP:FB
CD7C  50 2A     BVC $CDA8                       A:34 X:34 Y:99 P:64 SP:FB
CD7E  30 28     BMI $CDA8                       A:34 X:34 Y:99 P:64 SP:FB
CD80  C9 34     CMP #$34                        A:34 X:34 Y:99 P:64 SP:FB
CD82  D0 24     BNE $CDA8                       A:34 X:34 Y:99 P:67 SP:FB
CD84  E0 34     CPX #$34                        A:34 X:34 Y:99 P:67 SP:FB
CD86  D0 20     BNE $CDA8                       A:34 X:34 Y:99 P:67 SP:FB
CD88  C0 99     CPY #$99                        A:34 X:34 Y:99 P:67 SP:FB
CD8A  D0 1C     BNE $CDA8                       A:34 X:34 Y:99 P:67 SP:FB
CD8C  A2 00     LDX #$00                        A:34 X:34 Y:99 P:67 SP:FB
CD8E  38        SEC                             A:34 X:00 Y:99 P:67 SP:FB
CD8F  B8        CLV                             A:34 X:00 Y:99 P:67 SP:FB
CD90  8A        TXA                             A:34 X:00 Y:99 P:27 SP:FB
CD91  D0 15     BNE $CDA8                       A:00 X:00 Y:99 P:27 SP:FB
CD93  90 13     BCC $CDA8                       A:00 X:00 Y:99 P:27 SP:FB
CD95  70 11     BVS $CDA8                       A:00 X:00 Y:99 P:27 SP:FB
CD97  30 0F     BMI $CDA8                       A:00 X:00 Y:99 P:27 SP:FB
CD99  C9 00     CMP #$00                        A:00 X:00 Y:99 P:27 SP:FB
CD9B  D0 0B     BNE $CDA8                       A:00 X:00 Y:99 P:27 SP:FB
CD9D  E0 00     CPX #$00                        A:00 X:00 Y:99 P:27 SP:FB
CD9F  D0 07     BNE $CDA8                       A:00 X:00 Y:99 P:27 SP:FB
CDA1  C0 99     CPY #$99                        A:00 X:00 Y:99 P:27 SP:FB
CDA3  D0 03     BNE $CDA8                       A:00 X:00 Y:99 P:27 SP:FB
CDA5  4C AC CD  JMP $CDAC                       A:00 X:00 Y:99 P:27 SP:FB
CDAC  EA        NOP                             A:00 X:00 Y:99 P:27 SP:FB
CDAD  BA        TSX                             A:00 X:00 Y:99 P:27 SP:FB
CDAE  8E FF 07  STX $07FF                       A:00 X:FB Y:99 P:A5 SP:FB
CDB1  A0 33     LDY #$33                        A:00 X:FB Y:99 P:A5 SP:FB
CDB3  A2 69     LDX #$69                        A:00 X:FB Y:33 P:25 SP:FB
CDB5  A9 84     LDA #$84                        A:00 X:69 Y:33 P:25 SP:FB
CDB7  18        CLC                             A:84 X:69 Y:33 P:A5 SP:FB
CDB8  24 01     BIT $01 = FF                    A:84 X:69 Y:33 P:A4 SP:FB
CDBA  9A        TXS                             A:84 X:69 Y:33 P:E4 SP:FB
CDBB  F0 32     BEQ $CDEF                       A:84 X:69 Y:33 P:E4 SP:69
CDBD  10 30     BPL $CDEF                       A:84 X:69 Y:33 P:E4 SP:69
CDBF  B0 2E     BCS $CDEF                       A:84 X:69 Y:33 P:E4 SP:69
CDC1  50 2C     BVC $CDEF                       A:84 X:69 Y:33 P:E4 SP:69
CDC3  C9 84     CMP #$84                        A:84 X:69 Y:33 P:E4 SP:69
CDC5  D0 28     BNE $CDEF                       A:84 X:69 Y:33 P:67 SP:69
CDC7  E0 69     CPX #$69                        A:84 X:69 Y:33 P:67 SP:69
CDC9  D0 24     BNE $CDEF                       A:84 X:69 Y:33 P:67 SP:69
CDCB  C0 33     CPY #$33                        A:84 X:69 Y:33 P:67 SP:69
CDCD  D0 20     BNE $CDEF                       A:84 X:69 Y:33 P:67 SP:69
CDCF  A0 01     LDY #$01                        A:84 X:69 Y:33 P:67 SP:69
CDD1  A9 04     LDA #$04                        A:84 X:69 Y:01 P:65 SP:69
CDD3  38        SEC                             A:04 X:69 Y:01 P:65 SP:69
CDD4  B8        CLV                             A:04 X:69 Y:01 P:65 SP:69
CDD5  A2 00     LDX #$00                        A:04 X:69 Y:01 P:25 SP:69
CDD7  BA        TSX                             A:04 X:00 Y:01 P:27 SP:69
CDD8  F0 15     BEQ $CDEF                       A:04 X:69 Y:01 P:25 SP:69
CDDA  30 13     BMI $CDEF                       A:04 X:69 Y:01 P:25 SP:69
CDDC  90 11     BCC $CDEF                       A:04 X:69 Y:01 P:25 SP:69
CDDE  70 0F     BVS $CDEF                       A:04 X:69 Y:01 P:25 SP:69
CDE0  E0 69     CPX #$69                        A:04 X:69 Y:01 P:25 SP:69
CDE2  D0 0B     BNE $CDEF                       A:04 X:69 Y:01 P:27 SP:69
CDE4  C9 04     CMP #$04                        A:04 X:69 Y:01 P:27 SP:69
CDE6  D0 07     BNE $CDEF                       A:04 X:69 Y:01 P:27 SP:69
CDE8  C0 01     CPY #$01                        A:04 X:69 Y:01 P:27 SP:69
CDEA  D0 03     BNE $CDEF                       A:04 X:69 Y:01 P:27 SP:69
CDEC  4C F3 CD  JMP $CDF3                       A:04 X:69 Y:01 P:27 SP:69
CDF3  AE FF 07  LDX $07FF                       A:04 X:69 Y:01 P:27 SP:69
CDF6  9A        TXS                             A:04 X:FB Y:01 P:A5 SP:69
CDF7  60        RTS                             A:04 X:FB Y:01 P:A5 SP:FB
C609  20 F8 CD  JSR $CDF8                       A:04 X:FB Y:01 P:A5 SP:FD
CDF8  A9 FF     LDA #$FF                        A:04 X:FB Y:01 P:A5 SP:FB
CDFA  85 01     STA $01 = FF                    A:FF X:FB Y:01 P:A5 SP:FB
CDFC  BA        TSX                             A:FF X:FB Y:01 P:A5 SP:FB
CDFD  8E FF 07  STX $07FF                       A:FF X:FB Y:01 P:A5 SP:FB
CE00  EA        NOP                             A:FF X:FB Y:01 P:A5 SP:FB
CE01  A2 80     LDX #$80                        A:FF X:FB Y:01 P:A5 SP:FB
CE03  9A        TXS                             A:FF X:80 Y:01 P:A5 SP:FB
CE04  A9 33     LDA #$33                        A:FF X:80 Y:01 P:A5 SP:80
CE06  48        PHA                             A:33 X:80 Y:01 P:25 SP:80
CE07  A9 69     LDA #$69                        A:33 X:80 Y:01 P:25 SP:7F
CE09  48        PHA                             A:69 X:80 Y:01 P:25 SP:7F
CE0A  BA        TSX                             A:69 X:80 Y:01 P:25 SP:7E
CE0B  E0 7E     CPX #$7E                        A:69 X:7E Y:01 P:25 SP:7E
CE0D  D0 20     BNE $CE2F                       A:69 X:7E Y:01 P:27 SP:7E
CE0F  68        PLA                             A:69 X:7E Y:01 P:27 SP:7E
CE10  C9 69     CMP #$69                        A:69 X:7E Y:01 P:25 SP:7F
CE12  D0 1B     BNE $CE2F                       A:69 X:7E Y:01 P:27 SP:7F
CE14  68        PLA                             A:69 X:7E Y:01 P:27 SP:7F
CE15  C9 33     CMP #$33                        A:33 X:7E Y:01 P:25 SP:80
CE17  D0 16     BNE $CE2F                       A:33 X:7E Y:01 P:27 SP:80
CE19  BA        TSX                             A:33 X:7E Y:01 P:27 SP:80
CE1A  E0 80     CPX #$80                        A:33 X:80 Y:01 P:A5 SP:80
CE1C  D0 11     BNE $CE2F                       A:33 X:80 Y:01 P:27 SP:80
CE1E  AD 80 01  LDA $0180                       A:33 X:80 Y:01 P:27 SP:80
CE21  C9 33     CMP #$33                        A:33 X:80 Y:01 P:25 SP:80
CE23  D0 0A     BNE $CE2F                       A:33 X:80 Y:01 P:27 SP:80
CE25  AD 7F 01  LDA $017F                       A:33 X:80 Y:01 P:27 SP:80
CE28  C9 69     CMP #$69                        A:69 X:80 Y:01 P:25 SP:80
CE2A  D0 03     BNE $CE2F                       A:69 X:80 Y:01 P:27 SP:80
CE2C  4C 33 CE  JMP $CE33                       A:69 X:80 Y:01 P:27 SP:80
CE33  EA        NOP                             A:69 X:80 Y:01 P:27 SP:80
CE34  A2 80     LDX #$80                        A:69 X:80 Y:01 P:27 SP:80
CE36  9A        TXS                             A:69 X:80 Y:01 P:A5 SP:80
CE37  20 3D CE  JSR $CE3D                       A:69 X:80 Y:01 P:A5 SP:80
CE3D  BA        TSX                             A:69 X:80 Y:01 P:A5 SP:7E
CE3E  E0 7E     CPX #$7E                        A:69 X:7E Y:01 P:25 SP:7E
CE40  D0 19     BNE $CE5B                       A:69 X:7E Y:01 P:27 SP:7E
CE42  68        PLA                             A:69 X:7E Y:01 P:27 SP:7E
CE43  68        PLA                             A:39 X:7E Y:01 P:25 SP:7F
CE44  BA        TSX                             A:CE X:7E Y:01 P:A5 SP:80
CE45  E0 80     CPX #$80                        A:CE X:80 Y:01 P:A5 SP:80
CE47  D0 12     BNE $CE5B                       A:CE X:80 Y:01 P:27 SP:80
CE49  A9 00     LDA #$00                        A:CE X:80 Y:01 P:27 SP:80
CE4B  20 4E CE  JSR $CE4E                       A:00 X:80 Y:01 P:27 SP:80
CE4E  68        PLA                             A:00 X:80 Y:01 P:27 SP:7E
CE4F  C9 4D     CMP #$4D                        A:4D X:80 Y:01 P:25 SP:7F
CE51  D0 08     BNE $CE5B                       A:4D X:80 Y:01 P:27 SP:7F
CE53  68        PLA                             A:4D X:80 Y:01 P:27 SP:7F
CE54  C9 CE     CMP #$CE                        A:CE X:80 Y:01 P:A5 SP:80
CE56  D0 03     BNE $CE5B                       A:CE X:80 Y:01 P:27 SP:80
CE58  4C 5F CE  JMP $CE5F                       A:CE X:80 Y:01 P:27 SP:80
CE5F  EA        NOP                             A:CE X:80 Y:01 P:27 SP:80
CE60  A9 CE     LDA #$CE                        A:CE X:80 Y:01 P:27 SP:80
CE62  48        PHA                             A:CE X:80 Y:01 P:A5 SP:80
CE63  A9 66     LDA #$66                        A:CE X:80 Y:01 P:A5 SP:7F
CE65  48        PHA                             A:66 X:80 Y:01 P:25 SP:7F
CE66  60        RTS                             A:66 X:80 Y:01 P:25 SP:7E
CE67  A2 77     LDX #$77                        A:66 X:80 Y:01 P:25 SP:80
CE69  A0 69     LDY #$69                        A:66 X:77 Y:01 P:25 SP:80
CE6B  18        CLC                             A:66 X:77 Y:69 P:25 SP:80
CE6C  24 01     BIT $01 = FF                    A:66 X:77 Y:69 P:24 SP:80
CE6E  A9 83     LDA #$83                        A:66 X:77 Y:69 P:E4 SP:80
CE70  20 66 CE  JSR $CE66                       A:83 X:77 Y:69 P:E4 SP:80
CE66  60        RTS                             A:83 X:77 Y:69 P:E4 SP:7E
CE73  F0 24     BEQ $CE99                       A:83 X:77 Y:69 P:E4 SP:80
CE75  10 22     BPL $CE99                       A:83 X:77 Y:69 P:E4 SP:80
CE77  B0 20     BCS $CE99                       A:83 X:77 Y:69 P:E4 SP:80
CE79  50 1E     BVC $CE99                       A:83 X:77 Y:69 P:E4 SP:80
CE7B  C9 83     CMP #$83                        A:83 X:77 Y:69 P:E4 SP:80
CE7D  D0 1A     BNE $CE99                       A:83 X:77 Y:69 P:67 SP:80
CE7F  C0 69     CPY #$69                        A:83 X:77 Y:69 P:67 SP:80
CE81  D0 16     BNE $CE99                       A:83 X:77 Y:69 P:67 SP:80
CE83  E0 77     CPX #$77                        A:83 X:77 Y:69 P:67 SP:80
CE85  D0 12     BNE $CE99                       A:83 X:77 Y:69 P:67 SP:80
CE87  38        SEC                             A:83 X:77 Y:69 P:67 SP:80
CE88  B8        CLV                             A:83 X:77 Y:69 P:67 SP:80
CE89  A9 00     LDA #$00                        A:83 X:77 Y:69 P:27 SP:80
CE8B  20 66 CE  JSR $CE66                       A:00 X:77 Y:69 P:27 SP:80
CE66  60        RTS                             A:00 X:77 Y:69 P:27 SP:7E
CE8E  D0 09     BNE $CE99                       A:00 X:77 Y:69 P:27 SP:80
CE90  30 07     BMI $CE99                       A:00 X:77 Y:69 P:27 SP:80
CE92  90 05     BCC $CE99                       A:00 X:77 Y:69 P:27 SP:80
CE94  70 03     BVS $CE99                       A:00 X:77 Y:69 P:27 SP:80
CE96  4C 9D CE  JMP $CE9D                       A:00 X:77 Y:69 P:27 SP:80
CE9D  EA        NOP                             A:00 X:77 Y:69 P:27 SP:80
CE9E  A9 CE     LDA #$CE                        A:00 X:77 Y:69 P:27 SP:80
CEA0  48        PHA                             A:CE X:77 Y:69 P:A5 SP:80
CEA1  A9 AE     LDA #$AE                        A:CE X:77 Y:69 P:A5 SP:7F
CEA3  48        PHA                             A:AE X:77 Y:69 P:A5 SP:7F
CEA4  A9 65     LDA #$65                        A:AE X:77 Y:69 P:A5 SP:7E
CEA6  48        PHA                             A:65 X:77 Y:69 P:25 SP:7E
CEA7  A9 55     LDA #$55                        A:65 X:77 Y:69 P:25 SP:7D
CEA9  A0 88     LDY #$88                        A:55 X:77 Y:69 P:25 SP:7D
CEAB  A2 99     LDX #$99                        A:55 X:77 Y:88 P:A5 SP:7D
CEAD  40        RTI                             A:55 X:99 Y:88 P:A5 SP:7D
CEAE  30 35     BMI $CEE5                       A:55 X:99 Y:88 P:65 SP:80
CEB0  50 33     BVC $CEE5                       A:55 X:99 Y:88 P:65 SP:80
CEB2  F0 31     BEQ $CEE5                       A:55 X:99 Y:88 P:65 SP:80
CEB4  90 2F     BCC $CEE5                       A:55 X:99 Y:88 P:65 SP:80
CEB6  C9 55     CMP #$55                        A:55 X:99 Y:88 P:65 SP:80
CEB8  D0 2B     BNE $CEE5                       A:55 X:99 Y:88 P:67 SP:80
CEBA  C0 88     CPY #$88                        A:55 X:99 Y:88 P:67 SP:80
CEBC  D0 27     BNE $CEE5                       A:55 X:99 Y:88 P:67 SP:80
CEBE  E0 99     CPX #$99                        A:55 X:99 Y:88 P:67 SP:80
CEC0  D0 23     BNE $CEE5                       A:55 X:99 Y:88 P:67 SP:80
CEC2  A9 CE     LDA #$CE                        A:55 X:99 Y:88 P:67 SP:80
CEC4  48        PHA                             A:CE X:99 Y:88 P:E5 SP:80
CEC5  A9 CE     LDA #$CE                        A:CE X:99 Y:88 P:E5 SP:7F
CEC7  48        PHA                             A:CE X:99 Y:88 P:E5 SP:7F
CEC8  A9 87     LDA #$87                        A:CE X:99 Y:88 P:E5 SP:7E
CECA  48        PHA                             A:87 X:99 Y:88 P:E5 SP:7E
CECB  A9 55     LDA #$55                        A:87 X:99 Y:88 P:E5 SP:7D
CECD  40        RTI                             A:55 X:99 Y:88 P:65 SP:7D
CECE  10 15     BPL $CEE5                       A:55 X:99 Y:88 P:A7 SP:80
CED0  70 13     BVS $CEE5                       A:55 X:99 Y:88 P:A7 SP:80
CED2  D0 11     BNE $CEE5                       A:55 X:99 Y:88 P:A7 SP:80
CED4  90 0F     BCC $CEE5                       A:55 X:99 Y:88 P:A7 SP:80
CED6  C9 55     CMP #$55                        A:55 X:99 Y:88 P:A7 SP:80
CED8  D0 0B     BNE $CEE5                       A:55 X:99 Y:88 P:27 SP:80
CEDA  C0 88     CPY #$88                        A:55 X:99 Y:88 P:27 SP:80
CEDC  D0 07     BNE $CEE5                       A:55 X:99 Y:88 P:27 SP:80
CEDE  E0 99     CPX #$99                        A:55 X:99 Y:88 P:27 SP:80
CEE0  D0 03     BNE $CEE5                       A:55 X:99 Y:88 P:27 SP:80
CEE2  4C E9 CE  JMP $CEE9                       A:55 X:99 Y:88 P:27 SP:80
CEE9  AE FF 07  LDX $07FF                       A:55 X:99 Y:88 P:27 SP:80
CEEC  9A        TXS                             A:55 X:FB Y:88 P:A5 SP:80
CEED  60        RTS                             A:55 X:FB Y:88 P:A5 SP:FB
C60C  20 EE CE  JSR $CEEE                       A:55 X:FB Y:88 P:A5 SP:FD
CEEE  A2 55     LDX #$55                        A:55 X:FB Y:88 P:A5 SP:FB
CEF0  A0 69     LDY #$69                        A:55 X:55 Y:88 P:25 SP:FB
CEF2  A9 FF     LDA #$FF                        A:55 X:55 Y:69 P:25 SP:FB
CEF4  85 01     STA $01 = FF                    A:FF X:55 Y:69 P:A5 SP:FB
CEF6  EA        NOP                             A:FF X:55 Y:69 P:A5 SP:FB
CEF7  24 01     BIT $01 = FF                    A:FF X:55 Y:69 P:A5 SP:FB
CEF9  38        SEC                             A:FF X:55 Y:69 P:E5 SP:FB
CEFA  A9 01     LDA #$01                        A:FF X:55 Y:69 P:E5 SP:FB
CEFC  4A        LSR                             A:01 X:55 Y:69 P:65 SP:FB
CEFD  90 1D     BCC $CF1C                       A:00 X:55 Y:69 P:67 SP:FB
CEFF  D0 1B     BNE $CF1C                       A:00 X:55 Y:69 P:67 SP:FB
CF01  30 19     BMI $CF1C                       A:00 X:55 Y:69 P:67 SP:FB
CF03  50 17     BVC $CF1C                       A:00 X:55 Y:69 P:67 SP:FB
CF05  C9 00     CMP #$00                        A:00 X:55 Y:69 P:67 SP:FB
CF07  D0 13     BNE $CF1C                       A:00 X:55 Y:69 P:67 SP:FB
CF09  B8        CLV                             A:00 X:55 Y:69 P:67 SP:FB
CF0A  A9 AA     LDA #$AA                        A:00 X:55 Y:69 P:27 SP:FB
CF0C  4A        LSR                             A:AA X:55 Y:69 P:A5 SP:FB
CF0D  B0 0D     BCS $CF1C                       A:55 X:55 Y:69 P:24 SP:FB
CF0F  F0 0B     BEQ $CF1C                       A:55 X:55 Y:69 P:24 SP:FB
CF11  30 09     BMI $CF1C                       A:55 X:55 Y:69 P:24 SP:FB
CF13  70 07     BVS $CF1C                       A:55 X:55 Y:69 P:24 SP:FB
CF15  C9 55     CMP #$55                        A:55 X:55 Y:69 P:24 SP:FB
CF17  D0 03     BNE $CF1C                       A:55 X:55 Y:69 P:27 SP:FB
CF19  4C 20 CF  JMP $CF20                       A:55 X:55 Y:69 P:27 SP:FB
CF20  EA        NOP                             A:55 X:55 Y:69 P:27 SP:FB
CF21  24 01     BIT $01 = FF                    A:55 X:55 Y:69 P:27 SP:FB
CF23  38        SEC                             A:55 X:55 Y:69 P:E5 SP:FB
CF24  A9 80     LDA #$80                        A:55 X:55 Y:69 P:E5 SP:FB
CF26  0A        ASL                             A:80 X:55 Y:69 P:E5 SP:FB
CF27  90 1E     BCC $CF47                       A:00 X:55 Y:69 P:67 SP:FB
CF29  D0 1C     BNE $CF47                       A:00 X:55 Y:69 P:67 SP:FB
CF2B  30 1A     BMI $CF47                       A:00 X:55 Y:69 P:67 SP:FB
CF2D  50 18     BVC $CF47                       A:00 X:55 Y:69 P:67 SP:FB
CF2F  C9 00     CMP #$00                        A:00 X:55 Y:69 P:67 SP:FB
CF31  D0 14     BNE $CF47                       A:00 X:55 Y:69 P:67 SP:FB
CF33  B8        CLV                             A:00 X:55 Y:69 P:67 SP:FB
CF34  38        SEC                             A:00 X:55 Y:69 P:27 SP:FB
CF35  A9 55     LDA #$55                        A:00 X:55 Y:69 P:27 SP:FB
CF37  0A        ASL                             A:55 X:55 Y:69 P:25 SP:FB
CF38  B0 0D     BCS $CF47                       A:AA X:55 Y:69 P:A4 SP:FB
CF3A  F0 0B     BEQ $CF47                       A:AA X:55 Y:69 P:A4 SP:FB
CF3C  10 09     BPL $CF47                       A:AA X:55 Y:69 P:A4 SP:FB
CF3E  70 07     BVS $CF47                       A:AA X:55 Y:69 P:A4 SP:FB
CF40  C9 AA     CMP #$AA                        A:AA X:55 Y:69 P:A4 SP:FB
CF42  D0 03     BNE $CF47                       A:AA X:55 Y:69 P:27 SP:FB
CF44  4C 4B CF  JMP $CF4B                       A:AA X:55 Y:69 P:27 SP:FB
CF4B  EA        NOP                             A:AA X:55 Y:69 P:27 SP:FB
CF4C  24 01     BIT $01 = FF                    A:AA X:55 Y:69 P:27 SP:FB
CF4E  38        SEC                             A:AA X:55 Y:69 P:E5 SP:FB
CF4F  A9 01     LDA #$01                        A:AA X:55 Y:69 P:E5 SP:FB
CF51  6A        ROR                             A:01 X:55 Y:69 P:65 SP:FB
CF52  90 1E     BCC $CF72                       A:80 X:55 Y:69 P:E5 SP:FB
CF54  F0 1C     BEQ $CF72                       A:80 X:55 Y:69 P:E5 SP:FB
CF56  10 1A     BPL $CF72                       A:80 X:55 Y:69 P:E5 SP:FB
CF58  50 18     BVC $CF72                       A:80 X:55 Y:69 P:E5 SP:FB
CF5A  C9 80     CMP #$80                        A:80 X:55 Y:69 P:E5 SP:FB
CF5C  D0 14     BNE $CF72                       A:80 X:55 Y:69 P:67 SP:FB
CF5E  B8        CLV                             A:80 X:55 Y:69 P:67 SP:FB
CF5F  18        CLC                             A:80 X:55 Y:69 P:27 SP:FB
CF60  A9 55     LDA #$55                        A:80 X:55 Y:69 P:26 SP:FB
CF62  6A        ROR                             A:55 X:55 Y:69 P:24 SP:FB
CF63  90 0D     BCC $CF72                       A:2A X:55 Y:69 P:25 SP:FB
CF65  F0 0B     BEQ $CF72                       A:2A X:55 Y:69 P:25 SP:FB
CF67  30 09     BMI $CF72                       A:2A X:55 Y:69 P:25 SP:FB
CF69  70 07     BVS $CF72                       A:2A X:55 Y:69 P:25 SP:FB
CF6B  C9 2A     CMP #$2A                        A:2A X:55 Y:69 P:25 SP:FB
CF6D  D0 03     BNE $CF72                       A:2A X:55 Y:69 P:27 SP:FB
CF6F  4C 76 CF  JMP $CF76                       A:2A X:55 Y:69 P:27 SP:FB
CF76  EA        NOP                             A:2A X:55 Y:69 P:27 SP:FB
CF77  24 01     BIT $01 = FF                    A:2A X:55 Y:69 P:27 SP:FB
CF79  38        SEC                             A:2A X:55 Y:69 P:E5 SP:FB
CF7A  A9 80     LDA #$80                        A:2A X:55 Y:69 P:E5 SP:FB
CF7C  2A        ROL                             A:80 X:55 Y:69 P:E5 SP:FB
CF7D  90 1E     BCC $CF9D                       A:01 X:55 Y:69 P:65 SP:FB
CF7F  F0 1C     BEQ $CF9D                       A:01 X:55 Y:69 P:65 SP:FB
CF81  30 1A     BMI $CF9D                       A:01 X:55 Y:69 P:65 SP:FB
CF83  50 18     BVC $CF9D                       A:01 X:55 Y:69 P:65 SP:FB
CF85  C9 01     CMP #$01                        A:01 X:55 Y:69 P:65 SP:FB
CF87  D0 14     BNE $CF9D                       A:01 X:55 Y:69 P:67 SP:FB
CF89  B8        CLV                             A:01 X:55 Y:69 P:67 SP:FB
CF8A  18        CLC                             A:01 X:55 Y:69 P:27 SP:FB
CF8B  A9 55     LDA #$55                        A:01 X:55 Y:69 P:26 SP:FB
CF8D  2A        ROL                             A:55 X:55 Y:69 P:24 SP:FB
CF8E  B0 0D     BCS $CF9D                       A:AA X:55 Y:69 P:A4 SP:FB
CF90  F0 0B     BEQ $CF9D                       A:AA X:55 Y:69 P:A4 SP:FB
CF92  10 09     BPL $CF9D                       A:AA X:55 Y:69 P:A4 SP:FB
CF94  70 07     BVS $CF9D                       A:AA X:55 Y:69 P:A4 SP:FB
CF96  C9 AA     CMP #$AA                        A:AA X:55 Y:69 P:A4 SP:FB
CF98  D0 03     BNE $CF9D                       A:AA X:55 Y:69 P:27 SP:FB
CF9A  4C A1 CF  JMP $CFA1                       A:AA X:55 Y:69 P:27 SP:FB
CFA1  60        RTS                             A:AA X:55 Y:69 P:27 SP:FB
C60F  20 A2 CF  JSR $CFA2                       A:AA X:55 Y:69 P:27 SP:FD
CFA2  A5 00     LDA $00 = FF                    A:AA X:55 Y:69 P:27 SP:FB
CFA4  8D FF 07  STA $07FF                       A:00 X:55 Y:69 P:27 SP:FB
CFA7  A9 00     LDA #$00                        A:00 X:55 Y:69 P:27 SP:FB
CFA9  85 80     STA $80 = 00                    A:00 X:55 Y:69 P:27 SP:FB
CFAB  A9 02     LDA #$02                        A:00 X:55 Y:69 P:27 SP:FB
CFAD  85 81     STA $81 = 00                    A:02 X:55 Y:69 P:25 SP:FB
CFAF  A9 FF     LDA #$FF                        A:02 X:55 Y:69 P:25 SP:FB
CFB1  85 01     STA $01 = 02                    A:FF X:55 Y:69 P:A5 SP:FB
CFB3  A9 00     LDA #$00                        A:FF X:55 Y:69 P:A5 SP:FB
CFB5  85 82     STA $82 = FF                    A:00 X:55 Y:69 P:27 SP:FB
CFB7  A9 03     LDA #$03                        A:00 X:55 Y:69 P:27 SP:FB
CFB9  85 83     STA $83 = 00                    A:03 X:55 Y:69 P:25 SP:FB
CFBB  85 84     STA $84 = 03                    A:03 X:55 Y:69 P:25 SP:FB
CFBD  A9 00     LDA #$00                        A:03 X:55 Y:69 P:25 SP:FB
CFBF  85 FF     STA $FF = 03                    A:00 X:55 Y:69 P:27 SP:FB
CFC1  A9 04     LDA #$04                        A:00 X:55 Y:69 P:27 SP:FB
CFC3  85 00     STA $00 = 00                    A:04 X:55 Y:69 P:25 SP:FB
CFC5  A9 5A     LDA #$5A                        A:04 X:55 Y:69 P:25 SP:FB
CFC7  8D 00 02  STA $0200                       A:5A X:55 Y:69 P:25 SP:FB
CFCA  A9 5B     LDA #$5B                        A:5A X:55 Y:69 P:25 SP:FB
CFCC  8D 00 03  STA $0300                       A:5B X:55 Y:69 P:25 SP:FB
CFCF  A9 5C     LDA #$5C                        A:5B X:55 Y:69 P:25 SP:FB
CFD1  8D 03 03  STA $0303                       A:5C X:55 Y:69 P:25 SP:FB
CFD4  A9 5D     LDA #$5D                        A:5C X:55 Y:69 P:25 SP:FB
CFD6  8D 00 04  STA $0400                       A:5D X:55 Y:69 P:25 SP:FB
CFD9  A2 00     LDX #$00                        A:5D X:55 Y:69 P:25 SP:FB
CFDB  A1 80     LDA $80                         A:5D X:00 Y:69 P:27 SP:FB
CFDD  C9 5A     CMP #$5A                        A:5A X:00 Y:69 P:25 SP:FB
CFDF  D0 1F     BNE $D000                       A:5A X:00 Y:69 P:27 SP:FB
CFE1  E8        INX                             A:5A X:00 Y:69 P:27 SP:FB
CFE2  E8        INX                             A:5A X:01 Y:69 P:25 SP:FB
CFE3  A1 80     LDA $80                         A:5A X:02 Y:69 P:25 SP:FB
CFE5  C9 5B     CMP #$5B                        A:5B X:02 Y:69 P:25 SP:FB
CFE7  D0 17     BNE $D000                       A:5B X:02 Y:69 P:27 SP:FB
CFE9  E8        INX                             A:5B X:02 Y:69 P:27 SP:FB
CFEA  A1 80     LDA $80                         A:5B X:03 Y:69 P:25 SP:FB
CFEC  C9 5C     CMP #$5C                        A:5C X:03 Y:69 P:25 SP:FB
CFEE  D0 10     BNE $D000                       A:5C X:03 Y:69 P:27 SP:FB
CFF0  A2 00     LDX #$00                        A:5C X:03 Y:69 P:27 SP:FB
CFF2  A1 FF     LDA $FF                         A:5C X:00 Y:69 P:27 SP:FB
CFF4  C9 5D     CMP #$5D                        A:5D X:00 Y:69 P:25 SP:FB
CFF6  D0 08     BNE $D000                       A:5D X:00 Y:69 P:27 SP:FB
CFF8  A2 81     LDX #$81                        A:5D X:00 Y:69 P:27 SP:FB
CFFA  A1 FF     LDA $FF                         A:5D X:81 Y:69 P:A5 SP:FB
CFFC  C9 5A     CMP #$5A                        A:5A X:81 Y:69 P:25 SP:FB
CFFE  F0 05     BEQ $D005                       A:5A X:81 Y:69 P:27 SP:FB
D005  A9 AA     LDA #$AA                        A:5A X:81 Y:69 P:27 SP:FB
D007  A2 00     LDX #$00                        A:AA X:81 Y:69 P:A5 SP:FB
D009  81 80     STA $80                         A:AA X:00 Y:69 P:27 SP:FB
D00B  E8        INX                             A:AA X:00 Y:69 P:27 SP:FB
D00C  E8        INX                             A:AA X:01 Y:69 P:25 SP:FB
D00D  A9 AB     LDA #$AB                        A:AA X:02 Y:69 P:25 SP:FB
D00F  81 80     STA $80                         A:AB X:02 Y:69 P:A5 SP:FB
D011  E8        INX                             A:AB X:02 Y:69 P:A5 SP:FB
D012  A9 AC     LDA #$AC                        A:AB X:03 Y:69 P:25 SP:FB
D014  81 80     STA $80                         A:AC X:03 Y:69 P:A5 SP:FB
D016  A2 00     LDX #$00                        A:AC X:03 Y:69 P:A5 SP:FB
D018  A9 AD     LDA #$AD                        A:AC X:00 Y:69 P:27 SP:FB
D01A  81 FF     STA $FF                         A:AD X:00 Y:69 P:A5 SP:FB
D01C  AD 00 02  LDA $0200                       A:AD X:00 Y:69 P:A5 SP:FB
D01F  C9 AA     CMP #$AA                        A:AA X:00 Y:69 P:A5 SP:FB
D021  D0 15     BNE $D038                       A:AA X:00 Y:69 P:27 SP:FB
D023  AD 00 03  LDA $0300                       A:AA X:00 Y:69 P:27 SP:FB
D026  C9 AB     CMP #$AB                        A:AB X:00 Y:69 P:A5 SP:FB
D028  D0 0E     BNE $D038                       A:AB X:00 Y:69 P:27 SP:FB
D02A  AD 03 03  LDA $0303                       A:AB X:00 Y:69 P:27 SP:FB
D02D  C9 AC     CMP #$AC                        A:AC X:00 Y:69 P:A5 SP:FB
D02F  D0 07     BNE $D038                       A:AC X:00 Y:69 P:27 SP:FB
D031  AD 00 04  LDA $0400                       A:AC X:00 Y:69 P:27 SP:FB
D034  C9 AD     CMP #$AD                        A:AD X:00 Y:69 P:A5 SP:FB
D036  F0 05     BEQ $D03D                       A:AD X:00 Y:69 P:27 SP:FB
D03D  AD FF 07  LDA $07FF                       A:AD X:00 Y:69 P:27 SP:FB
D040  85 00     STA $00 = 04                    A:00 X:00 Y:69 P:27 SP:FB
D042  A9 00     LDA #$00                        A:00 X:00 Y:69 P:27 SP:FB
D044  8D 00 03  STA $0300                       A:00 X:00 Y:69 P:27 SP:FB
D047  A9 AA     LDA #$AA                        A:00 X:00 Y:69 P:27 SP:FB
D049  8D 00 02  STA $0200                       A:AA X:00 Y:69 P:A5 SP:FB
D04C  A2 00     LDX #$00                        A:AA X:00 Y:69 P:A5 SP:FB
D04E  A0 5A     LDY #$5A                        A:AA X:00 Y:69 P:27 SP:FB
D050  20 B6 F7  JSR $F7B6                       A:AA X:00 Y:5A P:25 SP:FB
F7B6  18        CLC                             A:AA X:00 Y:5A P:25 SP:F9
F7B7  A9 FF     LDA #$FF                        A:AA X:00 Y:5A P:24 SP:F9
F7B9  85 01     STA $01 = 00                    A:FF X:00 Y:5A P:A4 SP:F9
F7BB  24 01     BIT $01 = FF                    A:FF X:00 Y:5A P:A4 SP:F9
F7BD  A9 55     LDA #$55                        A:FF X:00 Y:5A P:E4 SP:F9
F7BF  60        RTS                             A:55 X:00 Y:5A P:64 SP:F9
D053  01 80     ORA $80                         A:55 X:00 Y:5A P:64 SP:FB
D055  20 C0 F7  JSR $F7C0                       A:FF X:00 Y:5A P:E4 SP:FB
F7C0  B0 09     BCS $F7CB                       A:FF X:00 Y:5A P:E4 SP:F9
F7C2  10 07     BPL $F7CB                       A:FF X:00 Y:5A P:E4 SP:F9
F7C4  C9 FF     CMP #$FF                        A:FF X:00 Y:5A P:E4 SP:F9
F7C6  D0 03     BNE $F7CB                       A:FF X:00 Y:5A P:67 SP:F9
F7C8  50 01     BVC $F7CB                       A:FF X:00 Y:5A P:67 SP:F9
F7CA  60        RTS                             A:FF X:00 Y:5A P:67 SP:F9
D058  C8        INY                             A:FF X:00 Y:5A P:67 SP:FB
D059  20 CE F7  JSR $F7CE                       A:FF X:00 Y:5B P:65 SP:FB
F7CE  38        SEC                             A:FF X:00 Y:5B P:65 SP:F9
F7CF  B8        CLV                             A:FF X:00 Y:5B P:65 SP:F9
F7D0  A9 00     LDA #$00                        A:FF X:00 Y:5B P:25 SP:F9
F7D2  60        RTS                             A:00 X:00 Y:5B P:27 SP:F9
D05C  01 82     ORA $82                         A:00 X:00 Y:5B P:27 SP:FB
D05E  20 D3 F7  JSR $F7D3                       A:00 X:00 Y:5B P:27 SP:FB
F7D3  D0 07     BNE $F7DC                       A:00 X:00 Y:5B P:27 SP:F9
F7D5  70 05     BVS $F7DC                       A:00 X:00 Y:5B P:27 SP:F9
F7D7  90 03     BCC $F7DC                       A:00 X:00 Y:5B P:27 SP:F9
F7D9  30 01     BMI $F7DC                       A:00 X:00 Y:5B P:27 SP:F9
F7DB  60        RTS                             A:00 X:00 Y:5B P:27 SP:F9
D061  C8        INY                             A:00 X:00 Y:5B P:27 SP:FB
D062  20 DF F7  JSR $F7DF                       A:00 X:00 Y:5C P:25 SP:FB
F7DF  18        CLC                             A:00 X:00 Y:5C P:25 SP:F9
F7E0  24 01     BIT $01 = FF                    A:00 X:00 Y:5C P:24 SP:F9
F7E2  A9 55     LDA #$55                        A:00 X:00 Y:5C P:E6 SP:F9
F7E4  60        RTS                             A:55 X:00 Y:5C P:64 SP:F9
D065  21 80     AND $80                         A:55 X:00 Y:5C P:64 SP:FB
D067  20 E5 F7  JSR $F7E5                       A:00 X:00 Y:5C P:66 SP:FB
F7E5  D0 07     BNE $F7EE                       A:00 X:00 Y:5C P:66 SP:F9
F7E7  50 05     BVC $F7EE                       A:00 X:00 Y:5C P:66 SP:F9
F7E9  B0 03     BCS $F7EE                       A:00 X:00 Y:5C P:66 SP:F9
F7EB  30 01     BMI $F7EE                       A:00 X:00 Y:5C P:66 SP:F9
F7ED  60        RTS                             A:00 X:00 Y:5C P:66 SP:F9
D06A  C8        INY                             A:00 X:00 Y:5C P:66 SP:FB
D06B  A9 EF     LDA #$EF                        A:00 X:00 Y:5D P:64 SP:FB
D06D  8D 00 03  STA $0300                       A:EF X:00 Y:5D P:E4 SP:FB
D070  20 F1 F7  JSR $F7F1                       A:EF X:00 Y:5D P:E4 SP:FB
F7F1  38        SEC                             A:EF X:00 Y:5D P:E4 SP:F9
F7F2  B8        CLV                             A:EF X:00 Y:5D P:E5 SP:F9
F7F3  A9 F8     LDA #$F8                        A:EF X:00 Y:5D P:A5 SP:F9
F7F5  60        RTS                             A:F8 X:00 Y:5D P:A5 SP:F9
D073  21 82     AND $82                         A:F8 X:00 Y:5D P:A5 SP:FB
D075  20 F6 F7  JSR $F7F6                       A:E8 X:00 Y:5D P:A5 SP:FB
F7F6  90 09     BCC $F801                       A:E8 X:00 Y:5D P:A5 SP:F9
F7F8  10 07     BPL $F801                       A:E8 X:00 Y:5D P:A5 SP:F9
F7FA  C9 E8     CMP #$E8                        A:E8 X:00 Y:5D P:A5 SP:F9
F7FC  D0 03     BNE $F801                       A:E8 X:00 Y:5D P:27 SP:F9
F7FE  70 01     BVS $F801                       A:E8 X:00 Y:5D P:27 SP:F9
F800  60        RTS                             A:E8 X:00 Y:5D P:27 SP:F9
D078  C8        INY                             A:E8 X:00 Y:5D P:27 SP:FB
D079  20 04 F8  JSR $F804                       A:E8 X:00 Y:5E P:25 SP:FB
F804  18        CLC                             A:E8 X:00 Y:5E P:25 SP:F9
F805  24 01     BIT $01 = FF                    A:E8 X:00 Y:5E P:24 SP:F9
F807  A9 5F     LDA #$5F                        A:E8 X:00 Y:5E P:E4 SP:F9
F809  60        RTS                             A:5F X:00 Y:5E P:64 SP:F9
D07C  41 80     EOR $80                         A:5F X:00 Y:5E P:64 SP:FB
D07E  20 0A F8  JSR $F80A                       A:F5 X:00 Y:5E P:E4 SP:FB
F80A  B0 09     BCS $F815                       A:F5 X:00 Y:5E P:E4 SP:F9
F80C  10 07     BPL $F815                       A:F5 X:00 Y:5E P:E4 SP:F9
F80E  C9 F5     CMP #$F5                        A:F5 X:00 Y:5E P:E4 SP:F9
F810  D0 03     BNE $F815                       A:F5 X:00 Y:5E P:67 SP:F9
F812  50 01     BVC $F815                       A:F5 X:00 Y:5E P:67 SP:F9
F814  60        RTS                             A:F5 X:00 Y:5E P:67 SP:F9
D081  C8        INY                             A:F5 X:00 Y:5E P:67 SP:FB
D082  A9 70     LDA #$70                        A:F5 X:00 Y:5F P:65 SP:FB
D084  8D 00 03  STA $0300                       A:70 X:00 Y:5F P:65 SP:FB
D087  20 18 F8  JSR $F818                       A:70 X:00 Y:5F P:65 SP:FB
F818  38        SEC                             A:70 X:00 Y:5F P:65 SP:F9
F819  B8        CLV                             A:70 X:00 Y:5F P:65 SP:F9
F81A  A9 70     LDA #$70                        A:70 X:00 Y:5F P:25 SP:F9
F81C  60        RTS                             A:70 X:00 Y:5F P:25 SP:F9
D08A  41 82     EOR $82                         A:70 X:00 Y:5F P:25 SP:FB
D08C  20 1D F8  JSR $F81D                       A:00 X:00 Y:5F P:27 SP:FB
F81D  D0 07     BNE $F826                       A:00 X:00 Y:5F P:27 SP:F9
F81F  70 05     BVS $F826                       A:00 X:00 Y:5F P:27 SP:F9
F821  90 03     BCC $F826                       A:00 X:00 Y:5F P:27 SP:F9
F823  30 01     BMI $F826                       A:00 X:00 Y:5F P:27 SP:F9
F825  60        RTS                             A:00 X:00 Y:5F P:27 SP:F9
D08F  C8        INY                             A:00 X:00 Y:5F P:27 SP:FB
D090  A9 69     LDA #$69                        A:00 X:00 Y:60 P:25 SP:FB
D092  8D 00 02  STA $0200                       A:69 X:00 Y:60 P:25 SP:FB
D095  20 29 F8  JSR $F829                       A:69 X:00 Y:60 P:25 SP:FB
F829  18        CLC                             A:69 X:00 Y:60 P:25 SP:F9
F82A  24 01     BIT $01 = FF                    A:69 X:00 Y:60 P:24 SP:F9
F82C  A9 00     LDA #$00                        A:69 X:00 Y:60 P:E4 SP:F9
F82E  60        RTS                             A:00 X:00 Y:60 P:66 SP:F9
D098  61 80     ADC $80                         A:00 X:00 Y:60 P:66 SP:FB
D09A  20 2F F8  JSR $F82F                       A:69 X:00 Y:60 P:24 SP:FB
F82F  30 09     BMI $F83A                       A:69 X:00 Y:60 P:24 SP:F9
F831  B0 07     BCS $F83A                       A:69 X:00 Y:60 P:24 SP:F9
F833  C9 69     CMP #$69                        A:69 X:00 Y:60 P:24 SP:F9
F835  D0 03     BNE $F83A                       A:69 X:00 Y:60 P:27 SP:F9
F837  70 01     BVS $F83A                       A:69 X:00 Y:60 P:27 SP:F9
F839  60        RTS                             A:69 X:00 Y:60 P:27 SP:F9
D09D  C8        INY                             A:69 X:00 Y:60 P:27 SP:FB
D09E  20 3D F8  JSR $F83D                       A:69 X:00 Y:61 P:25 SP:FB
F83D  38        SEC                             A:69 X:00 Y:61 P:25 SP:F9
F83E  24 01     BIT $01 = FF                    A:69 X:00 Y:61 P:25 SP:F9
F840  A9 00     LDA #$00                        A:69 X:00 Y:61 P:E5 SP:F9
F842  60        RTS                             A:00 X:00 Y:61 P:67 SP:F9
D0A1  61 80     ADC $80                         A:00 X:00 Y:61 P:67 SP:FB
D0A3  20 43 F8  JSR $F843                       A:6A X:00 Y:61 P:24 SP:FB
F843  30 09     BMI $F84E                       A:6A X:00 Y:61 P:24 SP:F9
F845  B0 07     BCS $F84E                       A:6A X:00 Y:61 P:24 SP:F9
F847  C9 6A     CMP #$6A                        A:6A X:00 Y:61 P:24 SP:F9
F849  D0 03     BNE $F84E                       A:6A X:00 Y:61 P:27 SP:F9
F84B  70 01     BVS $F84E                       A:6A X:00 Y:61 P:27 SP:F9
F84D  60        RTS                             A:6A X:00 Y:61 P:27 SP:F9
D0A6  C8        INY                             A:6A X:00 Y:61 P:27 SP:FB
D0A7  A9 7F     LDA #$7F                        A:6A X:00 Y:62 P:25 SP:FB
D0A9  8D 00 02  STA $0200                       A:7F X:00 Y:62 P:25 SP:FB
D0AC  20 51 F8  JSR $F851                       A:7F X:00 Y:62 P:25 SP:FB
F851  38        SEC                             A:7F X:00 Y:62 P:25 SP:F9
F852  B8        CLV                             A:7F X:00 Y:62 P:25 SP:F9
F853  A9 7F     LDA #$7F                        A:7F X:00 Y:62 P:25 SP:F9
F855  60        RTS                             A:7F X:00 Y:62 P:25 SP:F9
D0AF  61 80     ADC $80                         A:7F X:00 Y:62 P:25 SP:FB
D0B1  20 56 F8  JSR $F856                       A:FF X:00 Y:62 P:E4 SP:FB
F856  10 09     BPL $F861                       A:FF X:00 Y:62 P:E4 SP:F9
F858  B0 07     BCS $F861                       A:FF X:00 Y:62 P:E4 SP:F9
F85A  C9 FF     CMP #$FF                        A:FF X:00 Y:62 P:E4 SP:F9
F85C  D0 03     BNE $F861                       A:FF X:00 Y:62 P:67 SP:F9
F85E  50 01     BVC $F861                       A:FF X:00 Y:62 P:67 SP:F9
F860  60        RTS                             A:FF X:00 Y:62 P:67 SP:F9
D0B4  C8        INY                             A:FF X:00 Y:62 P:67 SP:FB
D0B5  A9 80     LDA #$80                        A:FF X:00 Y:63 P:65 SP:FB
D0B7  8D 00 02  STA $0200                       A:80 X:00 Y:63 P:E5 SP:FB
D0BA  20 64 F8  JSR $F864                       A:80 X:00 Y:63 P:E5 SP:FB
F864  18        CLC                             A:80 X:00 Y:63 P:E5 SP:F9
F865  24 01     BIT $01 = FF                    A:80 X:00 Y:63 P:E4 SP:F9
F867  A9 7F     LDA #$7F                        A:80 X:00 Y:63 P:E4 SP:F9
F869  60        RTS                             A:7F X:00 Y:63 P:64 SP:F9
D0BD  61 80     ADC $80                         A:7F X:00 Y:63 P:64 SP:FB
D0BF  20 6A F8  JSR $F86A                       A:FF X:00 Y:63 P:A4 SP:FB
F86A  10 09     BPL $F875                       A:FF X:00 Y:63 P:A4 SP:F9
F86C  B0 07     BCS $F875                       A:FF X:00 Y:63 P:A4 SP:F9
F86E  C9 FF     CMP #$FF                        A:FF X:00 Y:63 P:A4 SP:F9
F870  D0 03     BNE $F875                       A:FF X:00 Y:63 P:27 SP:F9
F872  70 01     BVS $F875                       A:FF X:00 Y:63 P:27 SP:F9
F874  60        RTS                             A:FF X:00 Y:63 P:27 SP:F9
D0C2  C8        INY                             A:FF X:00 Y:63 P:27 SP:FB
D0C3  20 78 F8  JSR $F878                       A:FF X:00 Y:64 P:25 SP:FB
F878  38        SEC                             A:FF X:00 Y:64 P:25 SP:F9
F879  B8        CLV                             A:FF X:00 Y:64 P:25 SP:F9
F87A  A9 7F     LDA #$7F                        A:FF X:00 Y:64 P:25 SP:F9
F87C  60        RTS                             A:7F X:00 Y:64 P:25 SP:F9
D0C6  61 80     ADC $80                         A:7F X:00 Y:64 P:25 SP:FB
D0C8  20 7D F8  JSR $F87D                       A:00 X:00 Y:64 P:27 SP:FB
F87D  D0 07     BNE $F886                       A:00 X:00 Y:64 P:27 SP:F9
F87F  30 05     BMI $F886                       A:00 X:00 Y:64 P:27 SP:F9
F881  70 03     BVS $F886                       A:00 X:00 Y:64 P:27 SP:F9
F883  90 01     BCC $F886                       A:00 X:00 Y:64 P:27 SP:F9
F885  60        RTS                             A:00 X:00 Y:64 P:27 SP:F9
D0CB  C8        INY                             A:00 X:00 Y:64 P:27 SP:FB
D0CC  A9 40     LDA #$40                        A:00 X:00 Y:65 P:25 SP:FB
D0CE  8D 00 02  STA $0200                       A:40 X:00 Y:65 P:25 SP:FB
D0D1  20 89 F8  JSR $F889                       A:40 X:00 Y:65 P:25 SP:FB
F889  24 01     BIT $01 = FF                    A:40 X:00 Y:65 P:25 SP:F9
F88B  A9 40     LDA #$40                        A:40 X:00 Y:65 P:E5 SP:F9
F88D  60        RTS                             A:40 X:00 Y:65 P:65 SP:F9
D0D4  C1 80     CMP $80                         A:40 X:00 Y:65 P:65 SP:FB
D0D6  20 8E F8  JSR $F88E                       A:40 X:00 Y:65 P:67 SP:FB
F88E  30 07     BMI $F897                       A:40 X:00 Y:65 P:67 SP:F9
F890  90 05     BCC $F897                       A:40 X:00 Y:65 P:67 SP:F9
F892  D0 03     BNE $F897                       A:40 X:00 Y:65 P:67 SP:F9
F894  50 01     BVC $F897                       A:40 X:00 Y:65 P:67 SP:F9
F896  60        RTS                             A:40 X:00 Y:65 P:67 SP:F9
D0D9  C8        INY                             A:40 X:00 Y:65 P:67 SP:FB
D0DA  48        PHA                             A:40 X:00 Y:66 P:65 SP:FB
D0DB  A9 3F     LDA #$3F                        A:40 X:00 Y:66 P:65 SP:FA
D0DD  8D 00 02  STA $0200                       A:3F X:00 Y:66 P:65 SP:FA
D0E0  68        PLA                             A:3F X:00 Y:66 P:65 SP:FA
D0E1  20 9A F8  JSR $F89A                       A:40 X:00 Y:66 P:65 SP:FB
F89A  B8        CLV                             A:40 X:00 Y:66 P:65 SP:F9
F89B  60        RTS                             A:40 X:00 Y:66 P:25 SP:F9
D0E4  C1 80     CMP $80                         A:40 X:00 Y:66 P:25 SP:FB
D0E6  20 9C F8  JSR $F89C                       A:40 X:00 Y:66 P:25 SP:FB
F89C  F0 07     BEQ $F8A5                       A:40 X:00 Y:66 P:25 SP:F9
F89E  30 05     BMI $F8A5                       A:40 X:00 Y:66 P:25 SP:F9
F8A0  90 03     BCC $F8A5                       A:40 X:00 Y:66 P:25 SP:F9
F8A2  70 01     BVS $F8A5                       A:40 X:00 Y:66 P:25 SP:F9
F8A4  60        RTS                             A:40 X:00 Y:66 P:25 SP:F9
D0E9  C8        INY                             A:40 X:00 Y:66 P:25 SP:FB
D0EA  48        PHA                             A:40 X:00 Y:67 P:25 SP:FB
D0EB  A9 41     LDA #$41                        A:40 X:00 Y:67 P:25 SP:FA
D0ED  8D 00 02  STA $0200                       A:41 X:00 Y:67 P:25 SP:FA
D0F0  68        PLA                             A:41 X:00 Y:67 P:25 SP:FA
D0F1  C1 80     CMP $80                         A:40 X:00 Y:67 P:25 SP:FB
D0F3  20 A8 F8  JSR $F8A8                       A:40 X:00 Y:67 P:A4 SP:FB
F8A8  F0 05     BEQ $F8AF                       A:40 X:00 Y:67 P:A4 SP:F9
F8AA  10 03     BPL $F8AF                       A:40 X:00 Y:67 P:A4 SP:F9
F8AC  10 01     BPL $F8AF                       A:40 X:00 Y:67 P:A4 SP:F9
F8AE  60        RTS                             A:40 X:00 Y:67 P:A4 SP:F9
D0F6  C8        INY                             A:40 X:00 Y:67 P:A4 SP:FB
D0F7  48        PHA                             A:40 X:00 Y:68 P:24 SP:FB
D0F8  A9 00     LDA #$00                        A:40 X:00 Y:68 P:24 SP:FA
D0FA  8D 00 02  STA $0200                       A:00 X:00 Y:68 P:26 SP:FA
D0FD  68        PLA                             A:00 X:00 Y:68 P:26 SP:FA
D0FE  20 B2 F8  JSR $F8B2                       A:40 X:00 Y:68 P:24 SP:FB
F8B2  A9 80     LDA #$80                        A:40 X:00 Y:68 P:24 SP:F9
F8B4  60        RTS                             A:80 X:00 Y:68 P:A4 SP:F9
D101  C1 80     CMP $80                         A:80 X:00 Y:68 P:A4 SP:FB
D103  20 B5 F8  JSR $F8B5                       A:80 X:00 Y:68 P:A5 SP:FB
F8B5  F0 05     BEQ $F8BC                       A:80 X:00 Y:68 P:A5 SP:F9
F8B7  10 03     BPL $F8BC                       A:80 X:00 Y:68 P:A5 SP:F9
F8B9  90 01     BCC $F8BC                       A:80 X:00 Y:68 P:A5 SP:F9
F8BB  60        RTS                             A:80 X:00 Y:68 P:A5 SP:F9
D106  C8        INY                             A:80 X:00 Y:68 P:A5 SP:FB
D107  48        PHA                             A:80 X:00 Y:69 P:25 SP:FB
D108  A9 80     LDA #$80                        A:80 X:00 Y:69 P:25 SP:FA
D10A  8D 00 02  STA $0200                       A:80 X:00 Y:69 P:A5 SP:FA
D10D  68        PLA                             A:80 X:00 Y:69 P:A5 SP:FA
D10E  C1 80     CMP $80                         A:80 X:00 Y:69 P:A5 SP:FB
D110  20 BF F8  JSR $F8BF                       A:80 X:00 Y:69 P:27 SP:FB
F8BF  D0 05     BNE $F8C6                       A:80 X:00 Y:69 P:27 SP:F9
F8C1  30 03     BMI $F8C6                       A:80 X:00 Y:69 P:27 SP:F9
F8C3  90 01     BCC $F8C6                       A:80 X:00 Y:69 P:27 SP:F9
F8C5  60        RTS                             A:80 X:00 Y:69 P:27 SP:F9
D113  C8        INY                             A:80 X:00 Y:69 P:27 SP:FB
D114  48        PHA                             A:80 X:00 Y:6A P:25 SP:FB
D115  A9 81     LDA #$81                        A:80 X:00 Y:6A P:25 SP:FA
D117  8D 00 02  STA $0200                       A:81 X:00 Y:6A P:A5 SP:FA
D11A  68        PLA                             A:81 X:00 Y:6A P:A5 SP:FA
D11B  C1 80     CMP $80                         A:80 X:00 Y:6A P:A5 SP:FB
D11D  20 C9 F8  JSR $F8C9                       A:80 X:00 Y:6A P:A4 SP:FB
F8C9  B0 05     BCS $F8D0                       A:80 X:00 Y:6A P:A4 SP:F9
F8CB  F0 03     BEQ $F8D0                       A:80 X:00 Y:6A P:A4 SP:F9
F8CD  10 01     BPL $F8D0                       A:80 X:00 Y:6A P:A4 SP:F9
F8CF  60        RTS                             A:80 X:00 Y:6A P:A4 SP:F9
D120  C8        INY                             A:80 X:00 Y:6A P:A4 SP:FB
D121  48        PHA                             A:80 X:00 Y:6B P:24 SP:FB
D122  A9 7F     LDA #$7F                        A:80 X:00 Y:6B P:24 SP:FA
D124  8D 00 02  STA $0200                       A:7F X:00 Y:6B P:24 SP:FA
D127  68        PLA                             A:7F X:00 Y:6B P:24 SP:FA
D128  C1 80     CMP $80                         A:80 X:00 Y:6B P:A4 SP:FB
D12A  20 D3 F8  JSR $F8D3                       A:80 X:00 Y:6B P:25 SP:FB
F8D3  90 05     BCC $F8DA                       A:80 X:00 Y:6B P:25 SP:F9
F8D5  F0 03     BEQ $F8DA                       A:80 X:00 Y:6B P:25 SP:F9
F8D7  30 01     BMI $F8DA                       A:80 X:00 Y:6B P:25 SP:F9
F8D9  60        RTS                             A:80 X:00 Y:6B P:25 SP:F9
D12D  C8        INY                             A:80 X:00 Y:6B P:25 SP:FB
D12E  A9 40     LDA #$40                        A:80 X:00 Y:6C P:25 SP:FB
D130  8D 00 02  STA $0200                       A:40 X:00 Y:6C P:25 SP:FB
D133  20 31 F9  JSR $F931                       A:40 X:00 Y:6C P:25 SP:FB
F931  24 01     BIT $01 = FF                    A:40 X:00 Y:6C P:25 SP:F9
F933  A9 40     LDA #$40                        A:40 X:00 Y:6C P:E5 SP:F9
F935  38        SEC                             A:40 X:00 Y:6C P:65 SP:F9
F936  60        RTS                             A:40 X:00 Y:6C P:65 SP:F9
D136  E1 80     SBC $80                         A:40 X:00 Y:6C P:65 SP:FB
D138  20 37 F9  JSR $F937                       A:00 X:00 Y:6C P:27 SP:FB
F937  30 0B     BMI $F944                       A:00 X:00 Y:6C P:27 SP:F9
F939  90 09     BCC $F944                       A:00 X:00 Y:6C P:27 SP:F9
F93B  D0 07     BNE $F944                       A:00 X:00 Y:6C P:27 SP:F9
F93D  70 05     BVS $F944                       A:00 X:00 Y:6C P:27 SP:F9
F93F  C9 00     CMP #$00                        A:00 X:00 Y:6C P:27 SP:F9
F941  D0 01     BNE $F944                       A:00 X:00 Y:6C P:27 SP:F9
F943  60        RTS                             A:00 X:00 Y:6C P:27 SP:F9
D13B  C8        INY                             A:00 X:00 Y:6C P:27 SP:FB
D13C  A9 3F     LDA #$3F                        A:00 X:00 Y:6D P:25 SP:FB
D13E  8D 00 02  STA $0200                       A:3F X:00 Y:6D P:25 SP:FB
D141  20 47 F9  JSR $F947                       A:3F X:00 Y:6D P:25 SP:FB
F947  B8        CLV                             A:3F X:00 Y:6D P:25 SP:F9
F948  38        SEC                             A:3F X:00 Y:6D P:25 SP:F9
F949  A9 40     LDA #$40                        A:3F X:00 Y:6D P:25 SP:F9
F94B  60        RTS                             A:40 X:00 Y:6D P:25 SP:F9
D144  E1 80     SBC $80                         A:40 X:00 Y:6D P:25 SP:FB
D146  20 4C F9  JSR $F94C                       A:01 X:00 Y:6D P:25 SP:FB
F94C  F0 0B     BEQ $F959                       A:01 X:00 Y:6D P:25 SP:F9
F94E  30 09     BMI $F959                       A:01 X:00 Y:6D P:25 SP:F9
F950  90 07     BCC $F959                       A:01 X:00 Y:6D P:25 SP:F9
F952  70 05     BVS $F959                       A:01 X:00 Y:6D P:25 SP:F9
F954  C9 01     CMP #$01                        A:01 X:00 Y:6D P:25 SP:F9
F956  D0 01     BNE $F959                       A:01 X:00 Y:6D P:27 SP:F9
F958  60        RTS                             A:01 X:00 Y:6D P:27 SP:F9
D149  C8        INY                             A:01 X:00 Y:6D P:27 SP:FB
D14A  A9 41     LDA #$41                        A:01 X:00 Y:6E P:25 SP:FB
D14C  8D 00 02  STA $0200                       A:41 X:00 Y:6E P:25 SP:FB
D14F  20 5C F9  JSR $F95C                       A:41 X:00 Y:6E P:25 SP:FB
F95C  A9 40     LDA #$40                        A:41 X:00 Y:6E P:25 SP:F9
F95E  38        SEC                             A:40 X:00 Y:6E P:25 SP:F9
F95F  24 01     BIT $01 = FF                    A:40 X:00 Y:6E P:25 SP:F9
F961  60        RTS                             A:40 X:00 Y:6E P:E5 SP:F9
D152  E1 80     SBC $80                         A:40 X:00 Y:6E P:E5 SP:FB
D154  20 62 F9  JSR $F962                       A:FF X:00 Y:6E P:A4 SP:FB
F962  B0 0B     BCS $F96F                       A:FF X:00 Y:6E P:A4 SP:F9
F964  F0 09     BEQ $F96F                       A:FF X:00 Y:6E P:A4 SP:F9
F966  10 07     BPL $F96F                       A:FF X:00 Y:6E P:A4 SP:F9
F968  70 05     BVS $F96F                       A:FF X:00 Y:6E P:A4 SP:F9
F96A  C9 FF     CMP #$FF                        A:FF X:00 Y:6E P:A4 SP:F9
F96C  D0 01     BNE $F96F                       A:FF X:00 Y:6E P:27 SP:F9
F96E  60        RTS                             A:FF X:00 Y:6E P:27 SP:F9
D157  C8        INY                             A:FF X:00 Y:6E P:27 SP:FB
D158  A9 00     LDA #$00                        A:FF X:00 Y:6F P:25 SP:FB
D15A  8D 00 02  STA $0200                       A:00 X:00 Y:6F P:27 SP:FB
D15D  20 72 F9  JSR $F972                       A:00 X:00 Y:6F P:27 SP:FB
F972  18        CLC                             A:00 X:00 Y:6F P:27 SP:F9
F973  A9 80     LDA #$80                        A:00 X:00 Y:6F P:26 SP:F9
F975  60        RTS                             A:80 X:00 Y:6F P:A4 SP:F9
D160  E1 80     SBC $80                         A:80 X:00 Y:6F P:A4 SP:FB
D162  20 76 F9  JSR $F976                       A:7F X:00 Y:6F P:65 SP:FB
F976  90 05     BCC $F97D                       A:7F X:00 Y:6F P:65 SP:F9
F978  C9 7F     CMP #$7F                        A:7F X:00 Y:6F P:65 SP:F9
F97A  D0 01     BNE $F97D                       A:7F X:00 Y:6F P:67 SP:F9
F97C  60        RTS                             A:7F X:00 Y:6F P:67 SP:F9
D165  C8        INY                             A:7F X:00 Y:6F P:67 SP:FB
D166  A9 7F     LDA #$7F                        A:7F X:00 Y:70 P:65 SP:FB
D168  8D 00 02  STA $0200                       A:7F X:00 Y:70 P:65 SP:FB
D16B  20 80 F9  JSR $F980                       A:7F X:00 Y:70 P:65 SP:FB
F980  38        SEC                             A:7F X:00 Y:70 P:65 SP:F9
F981  A9 81     LDA #$81                        A:7F X:00 Y:70 P:65 SP:F9
F983  60        RTS                             A:81 X:00 Y:70 P:E5 SP:F9
D16E  E1 80     SBC $80                         A:81 X:00 Y:70 P:E5 SP:FB
D170  20 84 F9  JSR $F984                       A:02 X:00 Y:70 P:65 SP:FB
F984  50 07     BVC $F98D                       A:02 X:00 Y:70 P:65 SP:F9
F986  90 05     BCC $F98D                       A:02 X:00 Y:70 P:65 SP:F9
F988  C9 02     CMP #$02                        A:02 X:00 Y:70 P:65 SP:F9
F98A  D0 01     BNE $F98D                       A:02 X:00 Y:70 P:67 SP:F9
F98C  60        RTS                             A:02 X:00 Y:70 P:67 SP:F9
D173  60        RTS                             A:02 X:00 Y:70 P:67 SP:FB
C612  20 74 D1  JSR $D174                       A:02 X:00 Y:70 P:67 SP:FD
D174  A9 55     LDA #$55                        A:02 X:00 Y:70 P:67 SP:FB
D176  85 78     STA $78 = FF                    A:55 X:00 Y:70 P:65 SP:FB
D178  A9 FF     LDA #$FF                        A:55 X:00 Y:70 P:65 SP:FB
D17A  85 01     STA $01 = 55                    A:FF X:00 Y:70 P:E5 SP:FB
D17C  24 01     BIT $01 = FF                    A:FF X:00 Y:70 P:E5 SP:FB
D17E  A0 11     LDY #$11                        A:FF X:00 Y:70 P:E5 SP:FB
D180  A2 23     LDX #$23                        A:FF X:00 Y:11 P:65 SP:FB
D182  A9 00     LDA #$00                        A:FF X:23 Y:11 P:65 SP:FB
D184  A5 78     LDA $78 = FF                    A:00 X:23 Y:11 P:67 SP:FB
D186  F0 10     BEQ $D198                       A:55 X:23 Y:11 P:65 SP:FB
D188  30 0E     BMI $D198                       A:55 X:23 Y:11 P:65 SP:FB
D18A  C9 55     CMP #$55                        A:55 X:23 Y:11 P:65 SP:FB
D18C  D0 0A     BNE $D198                       A:55 X:23 Y:11 P:67 SP:FB
D18E  C0 11     CPY #$11                        A:55 X:23 Y:11 P:67 SP:FB
D190  D0 06     BNE $D198                       A:55 X:23 Y:11 P:67 SP:FB
D192  E0 23     CPX #$23                        A:55 X:23 Y:11 P:67 SP:FB
D194  50 02     BVC $D198                       A:55 X:23 Y:11 P:67 SP:FB
D196  F0 04     BEQ $D19C                       A:55 X:23 Y:11 P:67 SP:FB
D19C  A9 46     LDA #$46                        A:55 X:23 Y:11 P:67 SP:FB
D19E  24 01     BIT $01 = 55                    A:46 X:23 Y:11 P:65 SP:FB
D1A0  85 78     STA $78 = FF                    A:46 X:23 Y:11 P:E5 SP:FB
D1A2  F0 0A     BEQ $D1AE                       A:46 X:23 Y:11 P:E5 SP:FB
D1A4  10 08     BPL $D1AE                       A:46 X:23 Y:11 P:E5 SP:FB
D1A6  50 06     BVC $D1AE                       A:46 X:23 Y:11 P:E5 SP:FB
D1A8  A5 78     LDA $78 = 46                    A:46 X:23 Y:11 P:E5 SP:FB
D1AA  C9 46     CMP #$46                        A:46 X:23 Y:11 P:65 SP:FB
D1AC  F0 04     BEQ $D1B2                       A:46 X:23 Y:11 P:67 SP:FB
D1B2  A9 55     LDA #$55                        A:46 X:23 Y:11 P:67 SP:FB
D1B4  85 78     STA $78 = 46                    A:55 X:23 Y:11 P:65 SP:FB
D1B6  24 01     BIT $01 = 55                    A:55 X:23 Y:11 P:65 SP:FB
D1B8  A9 11     LDA #$11                        A:55 X:23 Y:11 P:E5 SP:FB
D1BA  A2 23     LDX #$23                        A:11 X:23 Y:11 P:65 SP:FB
D1BC  A0 00     LDY #$00                        A:11 X:23 Y:11 P:65 SP:FB
D1BE  A4 78     LDY $78 = FF                    A:11 X:23 Y:00 P:67 SP:FB
D1C0  F0 10     BEQ $D1D2                       A:11 X:23 Y:55 P:65 SP:FB
D1C2  30 0E     BMI $D1D2                       A:11 X:23 Y:55 P:65 SP:FB
D1C4  C0 55     CPY #$55                        A:11 X:23 Y:55 P:65 SP:FB
D1C6  D0 0A     BNE $D1D2                       A:11 X:23 Y:55 P:67 SP:FB
D1C8  C9 11     CMP #$11                        A:11 X:23 Y:55 P:67 SP:FB
D1CA  D0 06     BNE $D1D2                       A:11 X:23 Y:55 P:67 SP:FB
D1CC  E0 23     CPX #$23                        A:11 X:23 Y:55 P:67 SP:FB
D1CE  50 02     BVC $D1D2                       A:11 X:23 Y:55 P:67 SP:FB
D1D0  F0 04     BEQ $D1D6                       A:11 X:23 Y:55 P:67 SP:FB
D1D6  A0 46     LDY #$46                        A:11 X:23 Y:55 P:67 SP:FB
D1D8  24 01     BIT $01 = 55                    A:11 X:23 Y:46 P:65 SP:FB
D1DA  84 78     STY $78 = FF                    A:11 X:23 Y:46 P:E5 SP:FB
D1DC  F0 0A     BEQ $D1E8                       A:11 X:23 Y:46 P:E5 SP:FB
D1DE  10 08     BPL $D1E8                       A:11 X:23 Y:46 P:E5 SP:FB
D1E0  50 06     BVC $D1E8                       A:11 X:23 Y:46 P:E5 SP:FB
D1E2  A4 78     LDY $78 = 46                    A:11 X:23 Y:46 P:E5 SP:FB
D1E4  C0 46     CPY #$46                        A:11 X:23 Y:46 P:65 SP:FB
D1E6  F0 04     BEQ $D1EC                       A:11 X:23 Y:46 P:67 SP:FB
D1EC  24 01     BIT $01 = 46                    A:11 X:23 Y:46 P:67 SP:FB
D1EE  A9 55     LDA #$55                        A:11 X:23 Y:46 P:E5 SP:FB
D1F0  85 78     STA $78 = FF                    A:55 X:23 Y:46 P:65 SP:FB
D1F2  A0 11     LDY #$11                        A:55 X:23 Y:46 P:65 SP:FB
D1F4  A9 23     LDA #$23                        A:55 X:23 Y:11 P:65 SP:FB
D1F6  A2 00     LDX #$00                        A:23 X:23 Y:11 P:65 SP:FB
D1F8  A6 78     LDX $78 = 55                    A:23 X:00 Y:11 P:67 SP:FB
D1FA  F0 10     BEQ $D20C                       A:23 X:55 Y:11 P:65 SP:FB
D1FC  30 0E     BMI $D20C                       A:23 X:55 Y:11 P:65 SP:FB
D1FE  E0 55     CPX #$55                        A:23 X:55 Y:11 P:65 SP:FB
D200  D0 0A     BNE $D20C                       A:23 X:55 Y:11 P:67 SP:FB
D202  C0 11     CPY #$11                        A:23 X:55 Y:11 P:67 SP:FB
D204  D0 06     BNE $D20C                       A:23 X:55 Y:11 P:67 SP:FB
D206  C9 23     CMP #$23                        A:23 X:55 Y:11 P:67 SP:FB
D208  50 02     BVC $D20C                       A:23 X:55 Y:11 P:67 SP:FB
D20A  F0 04     BEQ $D210                       A:23 X:55 Y:11 P:67 SP:FB
D210  A2 46     LDX #$46                        A:23 X:55 Y:11 P:67 SP:FB
D212  24 01     BIT $01 = 55                    A:23 X:46 Y:11 P:65 SP:FB
D214  86 78     STX $78 = FF                    A:23 X:46 Y:11 P:E5 SP:FB
D216  F0 0A     BEQ $D222                       A:23 X:46 Y:11 P:E5 SP:FB
D218  10 08     BPL $D222                       A:23 X:46 Y:11 P:E5 SP:FB
D21A  50 06     BVC $D222                       A:23 X:46 Y:11 P:E5 SP:FB
D21C  A6 78     LDX $78 = 46                    A:23 X:46 Y:11 P:E5 SP:FB
D21E  E0 46     CPX #$46                        A:23 X:46 Y:11 P:65 SP:FB
D220  F0 04     BEQ $D226                       A:23 X:46 Y:11 P:67 SP:FB
D226  A9 C0     LDA #$C0                        A:23 X:46 Y:11 P:67 SP:FB
D228  85 78     STA $78 = 46                    A:C0 X:46 Y:11 P:E5 SP:FB
D22A  A2 33     LDX #$33                        A:C0 X:46 Y:11 P:E5 SP:FB
D22C  A0 88     LDY #$88                        A:C0 X:33 Y:11 P:65 SP:FB
D22E  A9 05     LDA #$05                        A:C0 X:33 Y:88 P:E5 SP:FB
D230  24 78     BIT $78 = C0                    A:05 X:33 Y:88 P:65 SP:FB
D232  10 10     BPL $D244                       A:05 X:33 Y:88 P:E7 SP:FB
D234  50 0E     BVC $D244                       A:05 X:33 Y:88 P:E7 SP:FB
D236  D0 0C     BNE $D244                       A:05 X:33 Y:88 P:E7 SP:FB
D238  C9 05     CMP #$05                        A:05 X:33 Y:88 P:E7 SP:FB
D23A  D0 08     BNE $D244                       A:05 X:33 Y:88 P:67 SP:FB
D23C  E0 33     CPX #$33                        A:05 X:33 Y:88 P:67 SP:FB
D23E  D0 04     BNE $D244                       A:05 X:33 Y:88 P:67 SP:FB
D240  C0 88     CPY #$88                        A:05 X:33 Y:88 P:67 SP:FB
D242  F0 04     BEQ $D248                       A:05 X:33 Y:88 P:67 SP:FB
D248  A9 03     LDA #$03                        A:05 X:33 Y:88 P:67 SP:FB
D24A  85 78     STA $78 = C0                    A:03 X:33 Y:88 P:65 SP:FB
D24C  A9 01     LDA #$01                        A:03 X:33 Y:88 P:65 SP:FB
D24E  24 78     BIT $78 = 03                    A:01 X:33 Y:88 P:65 SP:FB
D250  30 08     BMI $D25A                       A:01 X:33 Y:88 P:25 SP:FB
D252  70 06     BVS $D25A                       A:01 X:33 Y:88 P:25 SP:FB
D254  F0 04     BEQ $D25A                       A:01 X:33 Y:88 P:25 SP:FB
D256  C9 01     CMP #$01                        A:01 X:33 Y:88 P:25 SP:FB
D258  F0 04     BEQ $D25E                       A:01 X:33 Y:88 P:27 SP:FB
D25E  A0 7E     LDY #$7E                        A:01 X:33 Y:88 P:27 SP:FB
D260  A9 AA     LDA #$AA                        A:01 X:33 Y:7E P:25 SP:FB
D262  85 78     STA $78 = 03                    A:AA X:33 Y:7E P:A5 SP:FB
D264  20 B6 F7  JSR $F7B6                       A:AA X:33 Y:7E P:A5 SP:FB
F7B6  18        CLC                             A:AA X:33 Y:7E P:A5 SP:F9
F7B7  A9 FF     LDA #$FF                        A:AA X:33 Y:7E P:A4 SP:F9
F7B9  85 01     STA $01 = AA                    A:FF X:33 Y:7E P:A4 SP:F9
F7BB  24 01     BIT $01 = FF                    A:FF X:33 Y:7E P:A4 SP:F9
F7BD  A9 55     LDA #$55                        A:FF X:33 Y:7E P:E4 SP:F9
F7BF  60        RTS                             A:55 X:33 Y:7E P:64 SP:F9
D267  05 78     ORA $78 = FF                    A:55 X:33 Y:7E P:64 SP:FB
D269  20 C0 F7  JSR $F7C0                       A:FF X:33 Y:7E P:E4 SP:FB
F7C0  B0 09     BCS $F7CB                       A:FF X:33 Y:7E P:E4 SP:F9
F7C2  10 07     BPL $F7CB                       A:FF X:33 Y:7E P:E4 SP:F9
F7C4  C9 FF     CMP #$FF                        A:FF X:33 Y:7E P:E4 SP:F9
F7C6  D0 03     BNE $F7CB                       A:FF X:33 Y:7E P:67 SP:F9
F7C8  50 01     BVC $F7CB                       A:FF X:33 Y:7E P:67 SP:F9
F7CA  60        RTS                             A:FF X:33 Y:7E P:67 SP:F9
D26C  C8        INY                             A:FF X:33 Y:7E P:67 SP:FB
D26D  A9 00     LDA #$00                        A:FF X:33 Y:7F P:65 SP:FB
D26F  85 78     STA $78 = AA                    A:00 X:33 Y:7F P:67 SP:FB
D271  20 CE F7  JSR $F7CE                       A:00 X:33 Y:7F P:67 SP:FB
F7CE  38        SEC                             A:00 X:33 Y:7F P:67 SP:F9
F7CF  B8        CLV                             A:00 X:33 Y:7F P:67 SP:F9
F7D0  A9 00     LDA #$00                        A:00 X:33 Y:7F P:27 SP:F9
F7D2  60        RTS                             A:00 X:33 Y:7F P:27 SP:F9
D274  05 78     ORA $78 = 00                    A:00 X:33 Y:7F P:27 SP:FB
D276  20 D3 F7  JSR $F7D3                       A:00 X:33 Y:7F P:27 SP:FB
F7D3  D0 07     BNE $F7DC                       A:00 X:33 Y:7F P:27 SP:F9
F7D5  70 05     BVS $F7DC                       A:00 X:33 Y:7F P:27 SP:F9
F7D7  90 03     BCC $F7DC                       A:00 X:33 Y:7F P:27 SP:F9
F7D9  30 01     BMI $F7DC                       A:00 X:33 Y:7F P:27 SP:F9
F7DB  60        RTS                             A:00 X:33 Y:7F P:27 SP:F9
D279  C8        INY                             A:00 X:33 Y:7F P:27 SP:FB
D27A  A9 AA     LDA #$AA                        A:00 X:33 Y:80 P:A5 SP:FB
D27C  85 78     STA $78 = 00                    A:AA X:33 Y:80 P:A5 SP:FB
D27E  20 DF F7  JSR $F7DF                       A:AA X:33 Y:80 P:A5 SP:FB
F7DF  18        CLC                             A:AA X:33 Y:80 P:A5 SP:F9
F7E0  24 01     BIT $01 = AA                    A:AA X:33 Y:80 P:A4 SP:F9
F7E2  A9 55     LDA #$55                        A:AA X:33 Y:80 P:E4 SP:F9
F7E4  60        RTS                             A:55 X:33 Y:80 P:64 SP:F9
D281  25 78     AND $78 = FF                    A:55 X:33 Y:80 P:64 SP:FB
D283  20 E5 F7  JSR $F7E5                       A:00 X:33 Y:80 P:66 SP:FB
F7E5  D0 07     BNE $F7EE                       A:00 X:33 Y:80 P:66 SP:F9
F7E7  50 05     BVC $F7EE                       A:00 X:33 Y:80 P:66 SP:F9
F7E9  B0 03     BCS $F7EE                       A:00 X:33 Y:80 P:66 SP:F9
F7EB  30 01     BMI $F7EE                       A:00 X:33 Y:80 P:66 SP:F9
F7ED  60        RTS                             A:00 X:33 Y:80 P:66 SP:F9
D286  C8        INY                             A:00 X:33 Y:80 P:66 SP:FB
D287  A9 EF     LDA #$EF                        A:00 X:33 Y:81 P:E4 SP:FB
D289  85 78     STA $78 = AA                    A:EF X:33 Y:81 P:E4 SP:FB
D28B  20 F1 F7  JSR $F7F1                       A:EF X:33 Y:81 P:E4 SP:FB
F7F1  38        SEC                             A:EF X:33 Y:81 P:E4 SP:F9
F7F2  B8        CLV                             A:EF X:33 Y:81 P:E5 SP:F9
F7F3  A9 F8     LDA #$F8                        A:EF X:33 Y:81 P:A5 SP:F9
F7F5  60        RTS                             A:F8 X:33 Y:81 P:A5 SP:F9
D28E  25 78     AND $78 = EF                    A:F8 X:33 Y:81 P:A5 SP:FB
D290  20 F6 F7  JSR $F7F6                       A:E8 X:33 Y:81 P:A5 SP:FB
F7F6  90 09     BCC $F801                       A:E8 X:33 Y:81 P:A5 SP:F9
F7F8  10 07     BPL $F801                       A:E8 X:33 Y:81 P:A5 SP:F9
F7FA  C9 E8     CMP #$E8                        A:E8 X:33 Y:81 P:A5 SP:F9
F7FC  D0 03     BNE $F801                       A:E8 X:33 Y:81 P:27 SP:F9
F7FE  70 01     BVS $F801                       A:E8 X:33 Y:81 P:27 SP:F9
F800  60        RTS                             A:E8 X:33 Y:81 P:27 SP:F9
D293  C8        INY                             A:E8 X:33 Y:81 P:27 SP:FB
D294  A9 AA     LDA #$AA                        A:E8 X:33 Y:82 P:A5 SP:FB
D296  85 78     STA $78 = EF                    A:AA X:33 Y:82 P:A5 SP:FB
D298  20 04 F8  JSR $F804                       A:AA X:33 Y:82 P:A5 SP:FB
F804  18        CLC                             A:AA X:33 Y:82 P:A5 SP:F9
F805  24 01     BIT $01 = AA                    A:AA X:33 Y:82 P:A4 SP:F9
F807  A9 5F     LDA #$5F                        A:AA X:33 Y:82 P:E4 SP:F9
F809  60        RTS                             A:5F X:33 Y:82 P:64 SP:F9
D29B  45 78     EOR $78 = FF                    A:5F X:33 Y:82 P:64 SP:FB
D29D  20 0A F8  JSR $F80A                       A:F5 X:33 Y:82 P:E4 SP:FB
F80A  B0 09     BCS $F815                       A:F5 X:33 Y:82 P:E4 SP:F9
F80C  10 07     BPL $F815                       A:F5 X:33 Y:82 P:E4 SP:F9
F80E  C9 F5     CMP #$F5                        A:F5 X:33 Y:82 P:E4 SP:F9
F810  D0 03     BNE $F815                       A:F5 X:33 Y:82 P:67 SP:F9
F812  50 01     BVC $F815                       A:F5 X:33 Y:82 P:67 SP:F9
F814  60        RTS                             A:F5 X:33 Y:82 P:67 SP:F9
D2A0  C8        INY                             A:F5 X:33 Y:82 P:67 SP:FB
D2A1  A9 70     LDA #$70                        A:F5 X:33 Y:83 P:E5 SP:FB
D2A3  85 78     STA $78 = AA                    A:70 X:33 Y:83 P:65 SP:FB
D2A5  20 18 F8  JSR $F818                       A:70 X:33 Y:83 P:65 SP:FB
F818  38        SEC                             A:70 X:33 Y:83 P:65 SP:F9
F819  B8        CLV                             A:70 X:33 Y:83 P:65 SP:F9
F81A  A9 70     LDA #$70                        A:70 X:33 Y:83 P:25 SP:F9
F81C  60        RTS                             A:70 X:33 Y:83 P:25 SP:F9
D2A8  45 78     EOR $78 = 70                    A:70 X:33 Y:83 P:25 SP:FB
D2AA  20 1D F8  JSR $F81D                       A:00 X:33 Y:83 P:27 SP:FB
F81D  D0 07     BNE $F826                       A:00 X:33 Y:83 P:27 SP:F9
F81F  70 05     BVS $F826                       A:00 X:33 Y:83 P:27 SP:F9
F821  90 03     BCC $F826                       A:00 X:33 Y:83 P:27 SP:F9
F823  30 01     BMI $F826                       A:00 X:33 Y:83 P:27 SP:F9
F825  60        RTS                             A:00 X:33 Y:83 P:27 SP:F9
D2AD  C8        INY                             A:00 X:33 Y:83 P:27 SP:FB
D2AE  A9 69     LDA #$69                        A:00 X:33 Y:84 P:A5 SP:FB
D2B0  85 78     STA $78 = 70                    A:69 X:33 Y:84 P:25 SP:FB
D2B2  20 29 F8  JSR $F829                       A:69 X:33 Y:84 P:25 SP:FB
F829  18        CLC                             A:69 X:33 Y:84 P:25 SP:F9
F82A  24 01     BIT $01 = 69                    A:69 X:33 Y:84 P:24 SP:F9
F82C  A9 00     LDA #$00                        A:69 X:33 Y:84 P:E4 SP:F9
F82E  60        RTS                             A:00 X:33 Y:84 P:66 SP:F9
D2B5  65 78     ADC $78 = FF                    A:00 X:33 Y:84 P:66 SP:FB
D2B7  20 2F F8  JSR $F82F                       A:69 X:33 Y:84 P:24 SP:FB
F82F  30 09     BMI $F83A                       A:69 X:33 Y:84 P:24 SP:F9
F831  B0 07     BCS $F83A                       A:69 X:33 Y:84 P:24 SP:F9
F833  C9 69     CMP #$69                        A:69 X:33 Y:84 P:24 SP:F9
F835  D0 03     BNE $F83A                       A:69 X:33 Y:84 P:27 SP:F9
F837  70 01     BVS $F83A                       A:69 X:33 Y:84 P:27 SP:F9
F839  60        RTS                             A:69 X:33 Y:84 P:27 SP:F9
D2BA  C8        INY                             A:69 X:33 Y:84 P:27 SP:FB
D2BB  20 3D F8  JSR $F83D                       A:69 X:33 Y:85 P:A5 SP:FB
F83D  38        SEC                             A:69 X:33 Y:85 P:A5 SP:F9
F83E  24 01     BIT $01 = 69                    A:69 X:33 Y:85 P:A5 SP:F9
F840  A9 00     LDA #$00                        A:69 X:33 Y:85 P:E5 SP:F9
F842  60        RTS                             A:00 X:33 Y:85 P:67 SP:F9
D2BE  65 78     ADC $78 = FF                    A:00 X:33 Y:85 P:67 SP:FB
D2C0  20 43 F8  JSR $F843                       A:6A X:33 Y:85 P:24 SP:FB
F843  30 09     BMI $F84E                       A:6A X:33 Y:85 P:24 SP:F9
F845  B0 07     BCS $F84E                       A:6A X:33 Y:85 P:24 SP:F9
F847  C9 6A     CMP #$6A                        A:6A X:33 Y:85 P:24 SP:F9
F849  D0 03     BNE $F84E                       A:6A X:33 Y:85 P:27 SP:F9
F84B  70 01     BVS $F84E                       A:6A X:33 Y:85 P:27 SP:F9
F84D  60        RTS                             A:6A X:33 Y:85 P:27 SP:F9
D2C3  C8        INY                             A:6A X:33 Y:85 P:27 SP:FB
D2C4  A9 7F     LDA #$7F                        A:6A X:33 Y:86 P:A5 SP:FB
D2C6  85 78     STA $78 = 69                    A:7F X:33 Y:86 P:25 SP:FB
D2C8  20 51 F8  JSR $F851                       A:7F X:33 Y:86 P:25 SP:FB
F851  38        SEC                             A:7F X:33 Y:86 P:25 SP:F9
F852  B8        CLV                             A:7F X:33 Y:86 P:25 SP:F9
F853  A9 7F     LDA #$7F                        A:7F X:33 Y:86 P:25 SP:F9
F855  60        RTS                             A:7F X:33 Y:86 P:25 SP:F9
D2CB  65 78     ADC $78 = 7F                    A:7F X:33 Y:86 P:25 SP:FB
D2CD  20 56 F8  JSR $F856                       A:FF X:33 Y:86 P:E4 SP:FB
F856  10 09     BPL $F861                       A:FF X:33 Y:86 P:E4 SP:F9
F858  B0 07     BCS $F861                       A:FF X:33 Y:86 P:E4 SP:F9
F85A  C9 FF     CMP #$FF                        A:FF X:33 Y:86 P:E4 SP:F9
F85C  D0 03     BNE $F861                       A:FF X:33 Y:86 P:67 SP:F9
F85E  50 01     BVC $F861                       A:FF X:33 Y:86 P:67 SP:F9
F860  60        RTS                             A:FF X:33 Y:86 P:67 SP:F9
D2D0  C8        INY                             A:FF X:33 Y:86 P:67 SP:FB
D2D1  A9 80     LDA #$80                        A:FF X:33 Y:87 P:E5 SP:FB
D2D3  85 78     STA $78 = 7F                    A:80 X:33 Y:87 P:E5 SP:FB
D2D5  20 64 F8  JSR $F864                       A:80 X:33 Y:87 P:E5 SP:FB
F864  18        CLC                             A:80 X:33 Y:87 P:E5 SP:F9
F865  24 01     BIT $01 = 80                    A:80 X:33 Y:87 P:E4 SP:F9
F867  A9 7F     LDA #$7F                        A:80 X:33 Y:87 P:E4 SP:F9
F869  60        RTS                             A:7F X:33 Y:87 P:64 SP:F9
D2D8  65 78     ADC $78 = FF                    A:7F X:33 Y:87 P:64 SP:FB
D2DA  20 6A F8  JSR $F86A                       A:FF X:33 Y:87 P:A4 SP:FB
F86A  10 09     BPL $F875                       A:FF X:33 Y:87 P:A4 SP:F9
F86C  B0 07     BCS $F875                       A:FF X:33 Y:87 P:A4 SP:F9
F86E  C9 FF     CMP #$FF                        A:FF X:33 Y:87 P:A4 SP:F9
F870  D0 03     BNE $F875                       A:FF X:33 Y:87 P:27 SP:F9
F872  70 01     BVS $F875                       A:FF X:33 Y:87 P:27 SP:F9
F874  60        RTS                             A:FF X:33 Y:87 P:27 SP:F9
D2DD  C8        INY                             A:FF X:33 Y:87 P:27 SP:FB
D2DE  20 78 F8  JSR $F878                       A:FF X:33 Y:88 P:A5 SP:FB
F878  38        SEC                             A:FF X:33 Y:88 P:A5 SP:F9
F879  B8        CLV                             A:FF X:33 Y:88 P:A5 SP:F9
F87A  A9 7F     LDA #$7F                        A:FF X:33 Y:88 P:A5 SP:F9
F87C  60        RTS                             A:7F X:33 Y:88 P:25 SP:F9
D2E1  65 78     ADC $78 = 80                    A:7F X:33 Y:88 P:25 SP:FB
D2E3  20 7D F8  JSR $F87D                       A:00 X:33 Y:88 P:27 SP:FB
F87D  D0 07     BNE $F886                       A:00 X:33 Y:88 P:27 SP:F9
F87F  30 05     BMI $F886                       A:00 X:33 Y:88 P:27 SP:F9
F881  70 03     BVS $F886                       A:00 X:33 Y:88 P:27 SP:F9
F883  90 01     BCC $F886                       A:00 X:33 Y:88 P:27 SP:F9
F885  60        RTS                             A:00 X:33 Y:88 P:27 SP:F9
D2E6  C8        INY                             A:00 X:33 Y:88 P:27 SP:FB
D2E7  A9 40     LDA #$40                        A:00 X:33 Y:89 P:A5 SP:FB
D2E9  85 78     STA $78 = 80                    A:40 X:33 Y:89 P:25 SP:FB
D2EB  20 89 F8  JSR $F889                       A:40 X:33 Y:89 P:25 SP:FB
F889  24 01     BIT $01 = 40                    A:40 X:33 Y:89 P:25 SP:F9
F88B  A9 40     LDA #$40                        A:40 X:33 Y:89 P:E5 SP:F9
F88D  60        RTS                             A:40 X:33 Y:89 P:65 SP:F9
D2EE  C5 78     CMP $78 = FF                    A:40 X:33 Y:89 P:65 SP:FB
D2F0  20 8E F8  JSR $F88E                       A:40 X:33 Y:89 P:67 SP:FB
F88E  30 07     BMI $F897                       A:40 X:33 Y:89 P:67 SP:F9
F890  90 05     BCC $F897                       A:40 X:33 Y:89 P:67 SP:F9
F892  D0 03     BNE $F897                       A:40 X:33 Y:89 P:67 SP:F9
F894  50 01     BVC $F897                       A:40 X:33 Y:89 P:67 SP:F9
F896  60        RTS                             A:40 X:33 Y:89 P:67 SP:F9
D2F3  C8        INY                             A:40 X:33 Y:89 P:67 SP:FB
D2F4  48        PHA                             A:40 X:33 Y:8A P:E5 SP:FB
D2F5  A9 3F     LDA #$3F                        A:40 X:33 Y:8A P:E5 SP:FA
D2F7  85 78     STA $78 = 40                    A:3F X:33 Y:8A P:65 SP:FA
D2F9  68        PLA                             A:3F X:33 Y:8A P:65 SP:FA
D2FA  20 9A F8  JSR $F89A                       A:40 X:33 Y:8A P:65 SP:FB
F89A  B8        CLV                             A:40 X:33 Y:8A P:65 SP:F9
F89B  60        RTS                             A:40 X:33 Y:8A P:25 SP:F9
D2FD  C5 78     CMP $78 = 3F                    A:40 X:33 Y:8A P:25 SP:FB
D2FF  20 9C F8  JSR $F89C                       A:40 X:33 Y:8A P:25 SP:FB
F89C  F0 07     BEQ $F8A5                       A:40 X:33 Y:8A P:25 SP:F9
F89E  30 05     BMI $F8A5                       A:40 X:33 Y:8A P:25 SP:F9
F8A0  90 03     BCC $F8A5                       A:40 X:33 Y:8A P:25 SP:F9
F8A2  70 01     BVS $F8A5                       A:40 X:33 Y:8A P:25 SP:F9
F8A4  60        RTS                             A:40 X:33 Y:8A P:25 SP:F9
D302  C8        INY                             A:40 X:33 Y:8A P:25 SP:FB
D303  48        PHA                             A:40 X:33 Y:8B P:A5 SP:FB
D304  A9 41     LDA #$41                        A:40 X:33 Y:8B P:A5 SP:FA
D306  85 78     STA $78 = 3F                    A:41 X:33 Y:8B P:25 SP:FA
D308  68        PLA                             A:41 X:33 Y:8B P:25 SP:FA
D309  C5 78     CMP $78 = 41                    A:40 X:33 Y:8B P:25 SP:FB
D30B  20 A8 F8  JSR $F8A8                       A:40 X:33 Y:8B P:A4 SP:FB
F8A8  F0 05     BEQ $F8AF                       A:40 X:33 Y:8B P:A4 SP:F9
F8AA  10 03     BPL $F8AF                       A:40 X:33 Y:8B P:A4 SP:F9
F8AC  10 01     BPL $F8AF                       A:40 X:33 Y:8B P:A4 SP:F9
F8AE  60        RTS                             A:40 X:33 Y:8B P:A4 SP:F9
D30E  C8        INY                             A:40 X:33 Y:8B P:A4 SP:FB
D30F  48        PHA                             A:40 X:33 Y:8C P:A4 SP:FB
D310  A9 00     LDA #$00                        A:40 X:33 Y:8C P:A4 SP:FA
D312  85 78     STA $78 = 41                    A:00 X:33 Y:8C P:26 SP:FA
D314  68        PLA                             A:00 X:33 Y:8C P:26 SP:FA
D315  20 B2 F8  JSR $F8B2                       A:40 X:33 Y:8C P:24 SP:FB
F8B2  A9 80     LDA #$80                        A:40 X:33 Y:8C P:24 SP:F9
F8B4  60        RTS                             A:80 X:33 Y:8C P:A4 SP:F9
D318  C5 78     CMP $78 = 00                    A:80 X:33 Y:8C P:A4 SP:FB
D31A  20 B5 F8  JSR $F8B5                       A:80 X:33 Y:8C P:A5 SP:FB
F8B5  F0 05     BEQ $F8BC                       A:80 X:33 Y:8C P:A5 SP:F9
F8B7  10 03     BPL $F8BC                       A:80 X:33 Y:8C P:A5 SP:F9
F8B9  90 01     BCC $F8BC                       A:80 X:33 Y:8C P:A5 SP:F9
F8BB  60        RTS                             A:80 X:33 Y:8C P:A5 SP:F9
D31D  C8        INY                             A:80 X:33 Y:8C P:A5 SP:FB
D31E  48        PHA                             A:80 X:33 Y:8D P:A5 SP:FB
D31F  A9 80     LDA #$80                        A:80 X:33 Y:8D P:A5 SP:FA
D321  85 78     STA $78 = 00                    A:80 X:33 Y:8D P:A5 SP:FA
D323  68        PLA                             A:80 X:33 Y:8D P:A5 SP:FA
D324  C5 78     CMP $78 = 80                    A:80 X:33 Y:8D P:A5 SP:FB
D326  20 BF F8  JSR $F8BF                       A:80 X:33 Y:8D P:27 SP:FB
F8BF  D0 05     BNE $F8C6                       A:80 X:33 Y:8D P:27 SP:F9
F8C1  30 03     BMI $F8C6                       A:80 X:33 Y:8D P:27 SP:F9
F8C3  90 01     BCC $F8C6                       A:80 X:33 Y:8D P:27 SP:F9
F8C5  60        RTS                             A:80 X:33 Y:8D P:27 SP:F9
D329  C8        INY                             A:80 X:33 Y:8D P:27 SP:FB
D32A  48        PHA                             A:80 X:33 Y:8E P:A5 SP:FB
D32B  A9 81     LDA #$81                        A:80 X:33 Y:8E P:A5 SP:FA
D32D  85 78     STA $78 = 80                    A:81 X:33 Y:8E P:A5 SP:FA
D32F  68        PLA                             A:81 X:33 Y:8E P:A5 SP:FA
D330  C5 78     CMP $78 = 81                    A:80 X:33 Y:8E P:A5 SP:FB
D332  20 C9 F8  JSR $F8C9                       A:80 X:33 Y:8E P:A4 SP:FB
F8C9  B0 05     BCS $F8D0                       A:80 X:33 Y:8E P:A4 SP:F9
F8CB  F0 03     BEQ $F8D0                       A:80 X:33 Y:8E P:A4 SP:F9
F8CD  10 01     BPL $F8D0                       A:80 X:33 Y:8E P:A4 SP:F9
F8CF  60        RTS                             A:80 X:33 Y:8E P:A4 SP:F9
D335  C8        INY                             A:80 X:33 Y:8E P:A4 SP:FB
D336  48        PHA                             A:80 X:33 Y:8F P:A4 SP:FB
D337  A9 7F     LDA #$7F                        A:80 X:33 Y:8F P:A4 SP:FA
D339  85 78     STA $78 = 81                    A:7F X:33 Y:8F P:24 SP:FA
D33B  68        PLA                             A:7F X:33 Y:8F P:24 SP:FA
D33C  C5 78     CMP $78 = 7F                    A:80 X:33 Y:8F P:A4 SP:FB
D33E  20 D3 F8  JSR $F8D3                       A:80 X:33 Y:8F P:25 SP:FB
F8D3  90 05     BCC $F8DA                       A:80 X:33 Y:8F P:25 SP:F9
F8D5  F0 03     BEQ $F8DA                       A:80 X:33 Y:8F P:25 SP:F9
F8D7  30 01     BMI $F8DA                       A:80 X:33 Y:8F P:25 SP:F9
F8D9  60        RTS                             A:80 X:33 Y:8F P:25 SP:F9
D341  C8        INY                             A:80 X:33 Y:8F P:25 SP:FB
D342  A9 40     LDA #$40                        A:80 X:33 Y:90 P:A5 SP:FB
D344  85 78     STA $78 = 7F                    A:40 X:33 Y:90 P:25 SP:FB
D346  20 31 F9  JSR $F931                       A:40 X:33 Y:90 P:25 SP:FB
F931  24 01     BIT $01 = 40                    A:40 X:33 Y:90 P:25 SP:F9
F933  A9 40     LDA #$40                        A:40 X:33 Y:90 P:E5 SP:F9
F935  38        SEC                             A:40 X:33 Y:90 P:65 SP:F9
F936  60        RTS                             A:40 X:33 Y:90 P:65 SP:F9
D349  E5 78     SBC $78 = FF                    A:40 X:33 Y:90 P:65 SP:FB
D34B  20 37 F9  JSR $F937                       A:00 X:33 Y:90 P:27 SP:FB
F937  30 0B     BMI $F944                       A:00 X:33 Y:90 P:27 SP:F9
F939  90 09     BCC $F944                       A:00 X:33 Y:90 P:27 SP:F9
F93B  D0 07     BNE $F944                       A:00 X:33 Y:90 P:27 SP:F9
F93D  70 05     BVS $F944                       A:00 X:33 Y:90 P:27 SP:F9
F93F  C9 00     CMP #$00                        A:00 X:33 Y:90 P:27 SP:F9
F941  D0 01     BNE $F944                       A:00 X:33 Y:90 P:27 SP:F9
F943  60        RTS                             A:00 X:33 Y:90 P:27 SP:F9
D34E  C8        INY                             A:00 X:33 Y:90 P:27 SP:FB
D34F  A9 3F     LDA #$3F                        A:00 X:33 Y:91 P:A5 SP:FB
D351  85 78     STA $78 = 40                    A:3F X:33 Y:91 P:25 SP:FB
D353  20 47 F9  JSR $F947                       A:3F X:33 Y:91 P:25 SP:FB
F947  B8        CLV                             A:3F X:33 Y:91 P:25 SP:F9
F948  38        SEC                             A:3F X:33 Y:91 P:25 SP:F9
F949  A9 40     LDA #$40                        A:3F X:33 Y:91 P:25 SP:F9
F94B  60        RTS                             A:40 X:33 Y:91 P:25 SP:F9
D356  E5 78     SBC $78 = 3F                    A:40 X:33 Y:91 P:25 SP:FB
D358  20 4C F9  JSR $F94C                       A:01 X:33 Y:91 P:25 SP:FB
F94C  F0 0B     BEQ $F959                       A:01 X:33 Y:91 P:25 SP:F9
F94E  30 09     BMI $F959                       A:01 X:33 Y:91 P:25 SP:F9
F950  90 07     BCC $F959                       A:01 X:33 Y:91 P:25 SP:F9
F952  70 05     BVS $F959                       A:01 X:33 Y:91 P:25 SP:F9
F954  C9 01     CMP #$01                        A:01 X:33 Y:91 P:25 SP:F9
F956  D0 01     BNE $F959                       A:01 X:33 Y:91 P:27 SP:F9
F958  60        RTS                             A:01 X:33 Y:91 P:27 SP:F9
D35B  C8        INY                             A:01 X:33 Y:91 P:27 SP:FB
D35C  A9 41     LDA #$41                        A:01 X:33 Y:92 P:A5 SP:FB
D35E  85 78     STA $78 = 3F                    A:41 X:33 Y:92 P:25 SP:FB
D360  20 5C F9  JSR $F95C                       A:41 X:33 Y:92 P:25 SP:FB
F95C  A9 40     LDA #$40                        A:41 X:33 Y:92 P:25 SP:F9
F95E  38        SEC                             A:40 X:33 Y:92 P:25 SP:F9
F95F  24 01     BIT $01 = 41                    A:40 X:33 Y:92 P:25 SP:F9
F961  60        RTS                             A:40 X:33 Y:92 P:E5 SP:F9
D363  E5 78     SBC $78 = FF                    A:40 X:33 Y:92 P:E5 SP:FB
D365  20 62 F9  JSR $F962                       A:FF X:33 Y:92 P:A4 SP:FB
F962  B0 0B     BCS $F96F                       A:FF X:33 Y:92 P:A4 SP:F9
F964  F0 09     BEQ $F96F                       A:FF X:33 Y:92 P:A4 SP:F9
F966  10 07     BPL $F96F                       A:FF X:33 Y:92 P:A4 SP:F9
F968  70 05     BVS $F96F                       A:FF X:33 Y:92 P:A4 SP:F9
F96A  C9 FF     CMP #$FF                        A:FF X:33 Y:92 P:A4 SP:F9
F96C  D0 01     BNE $F96F                       A:FF X:33 Y:92 P:27 SP:F9
F96E  60        RTS                             A:FF X:33 Y:92 P:27 SP:F9
D368  C8        INY                             A:FF X:33 Y:92 P:27 SP:FB
D369  A9 00     LDA #$00                        A:FF X:33 Y:93 P:A5 SP:FB
D36B  85 78     STA $78 = 41                    A:00 X:33 Y:93 P:27 SP:FB
D36D  20 72 F9  JSR $F972                       A:00 X:33 Y:93 P:27 SP:FB
F972  18        CLC                             A:00 X:33 Y:93 P:27 SP:F9
F973  A9 80     LDA #$80                        A:00 X:33 Y:93 P:26 SP:F9
F975  60        RTS                             A:80 X:33 Y:93 P:A4 SP:F9
D370  E5 78     SBC $78 = 00                    A:80 X:33 Y:93 P:A4 SP:FB
D372  20 76 F9  JSR $F976                       A:7F X:33 Y:93 P:65 SP:FB
F976  90 05     BCC $F97D                       A:7F X:33 Y:93 P:65 SP:F9
F978  C9 7F     CMP #$7F                        A:7F X:33 Y:93 P:65 SP:F9
F97A  D0 01     BNE $F97D                       A:7F X:33 Y:93 P:67 SP:F9
F97C  60        RTS                             A:7F X:33 Y:93 P:67 SP:F9
D375  C8        INY                             A:7F X:33 Y:93 P:67 SP:FB
D376  A9 7F     LDA #$7F                        A:7F X:33 Y:94 P:E5 SP:FB
D378  85 78     STA $78 = 00                    A:7F X:33 Y:94 P:65 SP:FB
D37A  20 80 F9  JSR $F980                       A:7F X:33 Y:94 P:65 SP:FB
F980  38        SEC                             A:7F X:33 Y:94 P:65 SP:F9
F981  A9 81     LDA #$81                        A:7F X:33 Y:94 P:65 SP:F9
F983  60        RTS                             A:81 X:33 Y:94 P:E5 SP:F9
D37D  E5 78     SBC $78 = 7F                    A:81 X:33 Y:94 P:E5 SP:FB
D37F  20 84 F9  JSR $F984                       A:02 X:33 Y:94 P:65 SP:FB
F984  50 07     BVC $F98D                       A:02 X:33 Y:94 P:65 SP:F9
F986  90 05     BCC $F98D                       A:02 X:33 Y:94 P:65 SP:F9
F988  C9 02     CMP #$02                        A:02 X:33 Y:94 P:65 SP:F9
F98A  D0 01     BNE $F98D                       A:02 X:33 Y:94 P:67 SP:F9
F98C  60        RTS                             A:02 X:33 Y:94 P:67 SP:F9
D382  C8        INY                             A:02 X:33 Y:94 P:67 SP:FB
D383  A9 40     LDA #$40                        A:02 X:33 Y:95 P:E5 SP:FB
D385  85 78     STA $78 = 7F                    A:40 X:33 Y:95 P:65 SP:FB
D387  20 89 F8  JSR $F889                       A:40 X:33 Y:95 P:65 SP:FB
F889  24 01     BIT $01 = 40                    A:40 X:33 Y:95 P:65 SP:F9
F88B  A9 40     LDA #$40                        A:40 X:33 Y:95 P:E5 SP:F9
F88D  60        RTS                             A:40 X:33 Y:95 P:65 SP:F9
D38A  AA        TAX                             A:40 X:33 Y:95 P:65 SP:FB
D38B  E4 78     CPX $78 = FF                    A:40 X:40 Y:95 P:65 SP:FB
D38D  20 8E F8  JSR $F88E                       A:40 X:40 Y:95 P:67 SP:FB
F88E  30 07     BMI $F897                       A:40 X:40 Y:95 P:67 SP:F9
F890  90 05     BCC $F897                       A:40 X:40 Y:95 P:67 SP:F9
F892  D0 03     BNE $F897                       A:40 X:40 Y:95 P:67 SP:F9
F894  50 01     BVC $F897                       A:40 X:40 Y:95 P:67 SP:F9
F896  60        RTS                             A:40 X:40 Y:95 P:67 SP:F9
D390  C8        INY                             A:40 X:40 Y:95 P:67 SP:FB
D391  A9 3F     LDA #$3F                        A:40 X:40 Y:96 P:E5 SP:FB
D393  85 78     STA $78 = 40                    A:3F X:40 Y:96 P:65 SP:FB
D395  20 9A F8  JSR $F89A                       A:3F X:40 Y:96 P:65 SP:FB
F89A  B8        CLV                             A:3F X:40 Y:96 P:65 SP:F9
F89B  60        RTS                             A:3F X:40 Y:96 P:25 SP:F9
D398  E4 78     CPX $78 = 3F                    A:3F X:40 Y:96 P:25 SP:FB
D39A  20 9C F8  JSR $F89C                       A:3F X:40 Y:96 P:25 SP:FB
F89C  F0 07     BEQ $F8A5                       A:3F X:40 Y:96 P:25 SP:F9
F89E  30 05     BMI $F8A5                       A:3F X:40 Y:96 P:25 SP:F9
F8A0  90 03     BCC $F8A5                       A:3F X:40 Y:96 P:25 SP:F9
F8A2  70 01     BVS $F8A5                       A:3F X:40 Y:96 P:25 SP:F9
F8A4  60        RTS                             A:3F X:40 Y:96 P:25 SP:F9
D39D  C8        INY                             A:3F X:40 Y:96 P:25 SP:FB
D39E  A9 41     LDA #$41                        A:3F X:40 Y:97 P:A5 SP:FB
D3A0  85 78     STA $78 = 3F                    A:41 X:40 Y:97 P:25 SP:FB
D3A2  E4 78     CPX $78 = 41                    A:41 X:40 Y:97 P:25 SP:FB
D3A4  20 A8 F8  JSR $F8A8                       A:41 X:40 Y:97 P:A4 SP:FB
F8A8  F0 05     BEQ $F8AF                       A:41 X:40 Y:97 P:A4 SP:F9
F8AA  10 03     BPL $F8AF                       A:41 X:40 Y:97 P:A4 SP:F9
F8AC  10 01     BPL $F8AF                       A:41 X:40 Y:97 P:A4 SP:F9
F8AE  60        RTS                             A:41 X:40 Y:97 P:A4 SP:F9
D3A7  C8        INY                             A:41 X:40 Y:97 P:A4 SP:FB
D3A8  A9 00     LDA #$00                        A:41 X:40 Y:98 P:A4 SP:FB
D3AA  85 78     STA $78 = 41                    A:00 X:40 Y:98 P:26 SP:FB
D3AC  20 B2 F8  JSR $F8B2                       A:00 X:40 Y:98 P:26 SP:FB
F8B2  A9 80     LDA #$80                        A:00 X:40 Y:98 P:26 SP:F9
F8B4  60        RTS                             A:80 X:40 Y:98 P:A4 SP:F9
D3AF  AA        TAX                             A:80 X:40 Y:98 P:A4 SP:FB
D3B0  E4 78     CPX $78 = 00                    A:80 X:80 Y:98 P:A4 SP:FB
D3B2  20 B5 F8  JSR $F8B5                       A:80 X:80 Y:98 P:A5 SP:FB
F8B5  F0 05     BEQ $F8BC                       A:80 X:80 Y:98 P:A5 SP:F9
F8B7  10 03     BPL $F8BC                       A:80 X:80 Y:98 P:A5 SP:F9
F8B9  90 01     BCC $F8BC                       A:80 X:80 Y:98 P:A5 SP:F9
F8BB  60        RTS                             A:80 X:80 Y:98 P:A5 SP:F9
D3B5  C8        INY                             A:80 X:80 Y:98 P:A5 SP:FB
D3B6  A9 80     LDA #$80                        A:80 X:80 Y:99 P:A5 SP:FB
D3B8  85 78     STA $78 = 00                    A:80 X:80 Y:99 P:A5 SP:FB
D3BA  E4 78     CPX $78 = 80                    A:80 X:80 Y:99 P:A5 SP:FB
D3BC  20 BF F8  JSR $F8BF                       A:80 X:80 Y:99 P:27 SP:FB
F8BF  D0 05     BNE $F8C6                       A:80 X:80 Y:99 P:27 SP:F9
F8C1  30 03     BMI $F8C6                       A:80 X:80 Y:99 P:27 SP:F9
F8C3  90 01     BCC $F8C6                       A:80 X:80 Y:99 P:27 SP:F9
F8C5  60        RTS                             A:80 X:80 Y:99 P:27 SP:F9
D3BF  C8        INY                             A:80 X:80 Y:99 P:27 SP:FB
D3C0  A9 81     LDA #$81                        A:80 X:80 Y:9A P:A5 SP:FB
D3C2  85 78     STA $78 = 80                    A:81 X:80 Y:9A P:A5 SP:FB
D3C4  E4 78     CPX $78 = 81                    A:81 X:80 Y:9A P:A5 SP:FB
D3C6  20 C9 F8  JSR $F8C9                       A:81 X:80 Y:9A P:A4 SP:FB
F8C9  B0 05     BCS $F8D0                       A:81 X:80 Y:9A P:A4 SP:F9
F8CB  F0 03     BEQ $F8D0                       A:81 X:80 Y:9A P:A4 SP:F9
F8CD  10 01     BPL $F8D0                       A:81 X:80 Y:9A P:A4 SP:F9
F8CF  60        RTS                             A:81 X:80 Y:9A P:A4 SP:F9
D3C9  C8        INY                             A:81 X:80 Y:9A P:A4 SP:FB
D3CA  A9 7F     LDA #$7F                        A:81 X:80 Y:9B P:A4 SP:FB
D3CC  85 78     STA $78 = 81                    A:7F X:80 Y:9B P:24 SP:FB
D3CE  E4 78     CPX $78 = 7F                    A:7F X:80 Y:9B P:24 SP:FB
D3D0  20 D3 F8  JSR $F8D3                       A:7F X:80 Y:9B P:25 SP:FB
F8D3  90 05     BCC $F8DA                       A:7F X:80 Y:9B P:25 SP:F9
F8D5  F0 03     BEQ $F8DA                       A:7F X:80 Y:9B P:25 SP:F9
F8D7  30 01     BMI $F8DA                       A:7F X:80 Y:9B P:25 SP:F9
F8D9  60        RTS                             A:7F X:80 Y:9B P:25 SP:F9
D3D3  C8        INY                             A:7F X:80 Y:9B P:25 SP:FB
D3D4  98        TYA                             A:7F X:80 Y:9C P:A5 SP:FB
D3D5  AA        TAX                             A:9C X:80 Y:9C P:A5 SP:FB
D3D6  A9 40     LDA #$40                        A:9C X:9C Y:9C P:A5 SP:FB
D3D8  85 78     STA $78 = 7F                    A:40 X:9C Y:9C P:25 SP:FB
D3DA  20 DD F8  JSR $F8DD                       A:40 X:9C Y:9C P:25 SP:FB
F8DD  24 01     BIT $01 = 40                    A:40 X:9C Y:9C P:25 SP:F9
F8DF  A0 40     LDY #$40                        A:40 X:9C Y:9C P:E5 SP:F9
F8E1  60        RTS                             A:40 X:9C Y:40 P:65 SP:F9
D3DD  C4 78     CPY $78 = FF                    A:40 X:9C Y:40 P:65 SP:FB
D3DF  20 E2 F8  JSR $F8E2                       A:40 X:9C Y:40 P:67 SP:FB
F8E2  30 07     BMI $F8EB                       A:40 X:9C Y:40 P:67 SP:F9
F8E4  90 05     BCC $F8EB                       A:40 X:9C Y:40 P:67 SP:F9
F8E6  D0 03     BNE $F8EB                       A:40 X:9C Y:40 P:67 SP:F9
F8E8  50 01     BVC $F8EB                       A:40 X:9C Y:40 P:67 SP:F9
F8EA  60        RTS                             A:40 X:9C Y:40 P:67 SP:F9
D3E2  E8        INX                             A:40 X:9C Y:40 P:67 SP:FB
D3E3  A9 3F     LDA #$3F                        A:40 X:9D Y:40 P:E5 SP:FB
D3E5  85 78     STA $78 = 40                    A:3F X:9D Y:40 P:65 SP:FB
D3E7  20 EE F8  JSR $F8EE                       A:3F X:9D Y:40 P:65 SP:FB
F8EE  B8        CLV                             A:3F X:9D Y:40 P:65 SP:F9
F8EF  60        RTS                             A:3F X:9D Y:40 P:25 SP:F9
D3EA  C4 78     CPY $78 = 3F                    A:3F X:9D Y:40 P:25 SP:FB
D3EC  20 F0 F8  JSR $F8F0                       A:3F X:9D Y:40 P:25 SP:FB
F8F0  F0 07     BEQ $F8F9                       A:3F X:9D Y:40 P:25 SP:F9
F8F2  30 05     BMI $F8F9                       A:3F X:9D Y:40 P:25 SP:F9
F8F4  90 03     BCC $F8F9                       A:3F X:9D Y:40 P:25 SP:F9
F8F6  70 01     BVS $F8F9                       A:3F X:9D Y:40 P:25 SP:F9
F8F8  60        RTS                             A:3F X:9D Y:40 P:25 SP:F9
D3EF  E8        INX                             A:3F X:9D Y:40 P:25 SP:FB
D3F0  A9 41     LDA #$41                        A:3F X:9E Y:40 P:A5 SP:FB
D3F2  85 78     STA $78 = 3F                    A:41 X:9E Y:40 P:25 SP:FB
D3F4  C4 78     CPY $78 = 41                    A:41 X:9E Y:40 P:25 SP:FB
D3F6  20 FC F8  JSR $F8FC                       A:41 X:9E Y:40 P:A4 SP:FB
F8FC  F0 05     BEQ $F903                       A:41 X:9E Y:40 P:A4 SP:F9
F8FE  10 03     BPL $F903                       A:41 X:9E Y:40 P:A4 SP:F9
F900  10 01     BPL $F903                       A:41 X:9E Y:40 P:A4 SP:F9
F902  60        RTS                             A:41 X:9E Y:40 P:A4 SP:F9
D3F9  E8        INX                             A:41 X:9E Y:40 P:A4 SP:FB
D3FA  A9 00     LDA #$00                        A:41 X:9F Y:40 P:A4 SP:FB
D3FC  85 78     STA $78 = 41                    A:00 X:9F Y:40 P:26 SP:FB
D3FE  20 06 F9  JSR $F906                       A:00 X:9F Y:40 P:26 SP:FB
F906  A0 80     LDY #$80                        A:00 X:9F Y:40 P:26 SP:F9
F908  60        RTS                             A:00 X:9F Y:80 P:A4 SP:F9
D401  C4 78     CPY $78 = 00                    A:00 X:9F Y:80 P:A4 SP:FB
D403  20 09 F9  JSR $F909                       A:00 X:9F Y:80 P:A5 SP:FB
F909  F0 05     BEQ $F910                       A:00 X:9F Y:80 P:A5 SP:F9
F90B  10 03     BPL $F910                       A:00 X:9F Y:80 P:A5 SP:F9
F90D  90 01     BCC $F910                       A:00 X:9F Y:80 P:A5 SP:F9
F90F  60        RTS                             A:00 X:9F Y:80 P:A5 SP:F9
D406  E8        INX                             A:00 X:9F Y:80 P:A5 SP:FB
D407  A9 80     LDA #$80                        A:00 X:A0 Y:80 P:A5 SP:FB
D409  85 78     STA $78 = 00                    A:80 X:A0 Y:80 P:A5 SP:FB
D40B  C4 78     CPY $78 = 80                    A:80 X:A0 Y:80 P:A5 SP:FB
D40D  20 13 F9  JSR $F913                       A:80 X:A0 Y:80 P:27 SP:FB
F913  D0 05     BNE $F91A                       A:80 X:A0 Y:80 P:27 SP:F9
F915  30 03     BMI $F91A                       A:80 X:A0 Y:80 P:27 SP:F9
F917  90 01     BCC $F91A                       A:80 X:A0 Y:80 P:27 SP:F9
F919  60        RTS                             A:80 X:A0 Y:80 P:27 SP:F9
D410  E8        INX                             A:80 X:A0 Y:80 P:27 SP:FB
D411  A9 81     LDA #$81                        A:80 X:A1 Y:80 P:A5 SP:FB
D413  85 78     STA $78 = 80                    A:81 X:A1 Y:80 P:A5 SP:FB
D415  C4 78     CPY $78 = 81                    A:81 X:A1 Y:80 P:A5 SP:FB
D417  20 1D F9  JSR $F91D                       A:81 X:A1 Y:80 P:A4 SP:FB
F91D  B0 05     BCS $F924                       A:81 X:A1 Y:80 P:A4 SP:F9
F91F  F0 03     BEQ $F924                       A:81 X:A1 Y:80 P:A4 SP:F9
F921  10 01     BPL $F924                       A:81 X:A1 Y:80 P:A4 SP:F9
F923  60        RTS                             A:81 X:A1 Y:80 P:A4 SP:F9
D41A  E8        INX                             A:81 X:A1 Y:80 P:A4 SP:FB
D41B  A9 7F     LDA #$7F                        A:81 X:A2 Y:80 P:A4 SP:FB
D41D  85 78     STA $78 = 81                    A:7F X:A2 Y:80 P:24 SP:FB
D41F  C4 78     CPY $78 = 7F                    A:7F X:A2 Y:80 P:24 SP:FB
D421  20 27 F9  JSR $F927                       A:7F X:A2 Y:80 P:25 SP:FB
F927  90 05     BCC $F92E                       A:7F X:A2 Y:80 P:25 SP:F9
F929  F0 03     BEQ $F92E                       A:7F X:A2 Y:80 P:25 SP:F9
F92B  30 01     BMI $F92E                       A:7F X:A2 Y:80 P:25 SP:F9
F92D  60        RTS                             A:7F X:A2 Y:80 P:25 SP:F9
D424  E8        INX                             A:7F X:A2 Y:80 P:25 SP:FB
D425  8A        TXA                             A:7F X:A3 Y:80 P:A5 SP:FB
D426  A8        TAY                             A:A3 X:A3 Y:80 P:A5 SP:FB
D427  20 90 F9  JSR $F990                       A:A3 X:A3 Y:A3 P:A5 SP:FB
F990  A2 55     LDX #$55                        A:A3 X:A3 Y:A3 P:A5 SP:F9
F992  A9 FF     LDA #$FF                        A:A3 X:55 Y:A3 P:25 SP:F9
F994  85 01     STA $01 = 7F                    A:FF X:55 Y:A3 P:A5 SP:F9
F996  EA        NOP                             A:FF X:55 Y:A3 P:A5 SP:F9
F997  24 01     BIT $01 = FF                    A:FF X:55 Y:A3 P:A5 SP:F9
F999  38        SEC                             A:FF X:55 Y:A3 P:E5 SP:F9
F99A  A9 01     LDA #$01                        A:FF X:55 Y:A3 P:E5 SP:F9
F99C  60        RTS                             A:01 X:55 Y:A3 P:65 SP:F9
D42A  85 78     STA $78 = FF                    A:01 X:55 Y:A3 P:65 SP:FB
D42C  46 78     LSR $78 = 01                    A:01 X:55 Y:A3 P:65 SP:FB
D42E  A5 78     LDA $78 = 00                    A:01 X:55 Y:A3 P:67 SP:FB
D430  20 9D F9  JSR $F99D                       A:00 X:55 Y:A3 P:67 SP:FB
F99D  90 1B     BCC $F9BA                       A:00 X:55 Y:A3 P:67 SP:F9
F99F  D0 19     BNE $F9BA                       A:00 X:55 Y:A3 P:67 SP:F9
F9A1  30 17     BMI $F9BA                       A:00 X:55 Y:A3 P:67 SP:F9
F9A3  50 15     BVC $F9BA                       A:00 X:55 Y:A3 P:67 SP:F9
F9A5  C9 00     CMP #$00                        A:00 X:55 Y:A3 P:67 SP:F9
F9A7  D0 11     BNE $F9BA                       A:00 X:55 Y:A3 P:67 SP:F9
F9A9  B8        CLV                             A:00 X:55 Y:A3 P:67 SP:F9
F9AA  A9 AA     LDA #$AA                        A:00 X:55 Y:A3 P:27 SP:F9
F9AC  60        RTS                             A:AA X:55 Y:A3 P:A5 SP:F9
D433  C8        INY                             A:AA X:55 Y:A3 P:A5 SP:FB
D434  85 78     STA $78 = 00                    A:AA X:55 Y:A4 P:A5 SP:FB
D436  46 78     LSR $78 = AA                    A:AA X:55 Y:A4 P:A5 SP:FB
D438  A5 78     LDA $78 = 55                    A:AA X:55 Y:A4 P:24 SP:FB
D43A  20 AD F9  JSR $F9AD                       A:55 X:55 Y:A4 P:24 SP:FB
F9AD  B0 0B     BCS $F9BA                       A:55 X:55 Y:A4 P:24 SP:F9
F9AF  F0 09     BEQ $F9BA                       A:55 X:55 Y:A4 P:24 SP:F9
F9B1  30 07     BMI $F9BA                       A:55 X:55 Y:A4 P:24 SP:F9
F9B3  70 05     BVS $F9BA                       A:55 X:55 Y:A4 P:24 SP:F9
F9B5  C9 55     CMP #$55                        A:55 X:55 Y:A4 P:24 SP:F9
F9B7  D0 01     BNE $F9BA                       A:55 X:55 Y:A4 P:27 SP:F9
F9B9  60        RTS                             A:55 X:55 Y:A4 P:27 SP:F9
D43D  C8        INY                             A:55 X:55 Y:A4 P:27 SP:FB
D43E  20 BD F9  JSR $F9BD                       A:55 X:55 Y:A5 P:A5 SP:FB
F9BD  24 01     BIT $01 = 55                    A:55 X:55 Y:A5 P:A5 SP:F9
F9BF  38        SEC                             A:55 X:55 Y:A5 P:E5 SP:F9
F9C0  A9 80     LDA #$80                        A:55 X:55 Y:A5 P:E5 SP:F9
F9C2  60        RTS                             A:80 X:55 Y:A5 P:E5 SP:F9
D441  85 78     STA $78 = FF                    A:80 X:55 Y:A5 P:E5 SP:FB
D443  06 78     ASL $78 = 80                    A:80 X:55 Y:A5 P:E5 SP:FB
D445  A5 78     LDA $78 = 00                    A:80 X:55 Y:A5 P:67 SP:FB
D447  20 C3 F9  JSR $F9C3                       A:00 X:55 Y:A5 P:67 SP:FB
F9C3  90 1C     BCC $F9E1                       A:00 X:55 Y:A5 P:67 SP:F9
F9C5  D0 1A     BNE $F9E1                       A:00 X:55 Y:A5 P:67 SP:F9
F9C7  30 18     BMI $F9E1                       A:00 X:55 Y:A5 P:67 SP:F9
F9C9  50 16     BVC $F9E1                       A:00 X:55 Y:A5 P:67 SP:F9
F9CB  C9 00     CMP #$00                        A:00 X:55 Y:A5 P:67 SP:F9
F9CD  D0 12     BNE $F9E1                       A:00 X:55 Y:A5 P:67 SP:F9
F9CF  B8        CLV                             A:00 X:55 Y:A5 P:67 SP:F9
F9D0  A9 55     LDA #$55                        A:00 X:55 Y:A5 P:27 SP:F9
F9D2  38        SEC                             A:55 X:55 Y:A5 P:25 SP:F9
F9D3  60        RTS                             A:55 X:55 Y:A5 P:25 SP:F9
D44A  C8        INY                             A:55 X:55 Y:A5 P:25 SP:FB
D44B  85 78     STA $78 = 00                    A:55 X:55 Y:A6 P:A5 SP:FB
D44D  06 78     ASL $78 = 55                    A:55 X:55 Y:A6 P:A5 SP:FB
D44F  A5 78     LDA $78 = AA                    A:55 X:55 Y:A6 P:A4 SP:FB
D451  20 D4 F9  JSR $F9D4                       A:AA X:55 Y:A6 P:A4 SP:FB
F9D4  B0 0B     BCS $F9E1                       A:AA X:55 Y:A6 P:A4 SP:F9
F9D6  F0 09     BEQ $F9E1                       A:AA X:55 Y:A6 P:A4 SP:F9
F9D8  10 07     BPL $F9E1                       A:AA X:55 Y:A6 P:A4 SP:F9
F9DA  70 05     BVS $F9E1                       A:AA X:55 Y:A6 P:A4 SP:F9
F9DC  C9 AA     CMP #$AA                        A:AA X:55 Y:A6 P:A4 SP:F9
F9DE  D0 01     BNE $F9E1                       A:AA X:55 Y:A6 P:27 SP:F9
F9E0  60        RTS                             A:AA X:55 Y:A6 P:27 SP:F9
D454  C8        INY                             A:AA X:55 Y:A6 P:27 SP:FB
D455  20 E4 F9  JSR $F9E4                       A:AA X:55 Y:A7 P:A5 SP:FB
F9E4  24 01     BIT $01 = AA                    A:AA X:55 Y:A7 P:A5 SP:F9
F9E6  38        SEC                             A:AA X:55 Y:A7 P:E5 SP:F9
F9E7  A9 01     LDA #$01                        A:AA X:55 Y:A7 P:E5 SP:F9
F9E9  60        RTS                             A:01 X:55 Y:A7 P:65 SP:F9
D458  85 78     STA $78 = FF                    A:01 X:55 Y:A7 P:65 SP:FB
D45A  66 78     ROR $78 = 01                    A:01 X:55 Y:A7 P:65 SP:FB
D45C  A5 78     LDA $78 = 80                    A:01 X:55 Y:A7 P:E5 SP:FB
D45E  20 EA F9  JSR $F9EA                       A:80 X:55 Y:A7 P:E5 SP:FB
F9EA  90 1C     BCC $FA08                       A:80 X:55 Y:A7 P:E5 SP:F9
F9EC  F0 1A     BEQ $FA08                       A:80 X:55 Y:A7 P:E5 SP:F9
F9EE  10 18     BPL $FA08                       A:80 X:55 Y:A7 P:E5 SP:F9
F9F0  50 16     BVC $FA08                       A:80 X:55 Y:A7 P:E5 SP:F9
F9F2  C9 80     CMP #$80                        A:80 X:55 Y:A7 P:E5 SP:F9
F9F4  D0 12     BNE $FA08                       A:80 X:55 Y:A7 P:67 SP:F9
F9F6  B8        CLV                             A:80 X:55 Y:A7 P:67 SP:F9
F9F7  18        CLC                             A:80 X:55 Y:A7 P:27 SP:F9
F9F8  A9 55     LDA #$55                        A:80 X:55 Y:A7 P:26 SP:F9
F9FA  60        RTS                             A:55 X:55 Y:A7 P:24 SP:F9
D461  C8        INY                             A:55 X:55 Y:A7 P:24 SP:FB
D462  85 78     STA $78 = 80                    A:55 X:55 Y:A8 P:A4 SP:FB
D464  66 78     ROR $78 = 55                    A:55 X:55 Y:A8 P:A4 SP:FB
D466  A5 78     LDA $78 = 2A                    A:55 X:55 Y:A8 P:25 SP:FB
D468  20 FB F9  JSR $F9FB                       A:2A X:55 Y:A8 P:25 SP:FB
F9FB  90 0B     BCC $FA08                       A:2A X:55 Y:A8 P:25 SP:F9
F9FD  F0 09     BEQ $FA08                       A:2A X:55 Y:A8 P:25 SP:F9
F9FF  30 07     BMI $FA08                       A:2A X:55 Y:A8 P:25 SP:F9
FA01  70 05     BVS $FA08                       A:2A X:55 Y:A8 P:25 SP:F9
FA03  C9 2A     CMP #$2A                        A:2A X:55 Y:A8 P:25 SP:F9
FA05  D0 01     BNE $FA08                       A:2A X:55 Y:A8 P:27 SP:F9
FA07  60        RTS                             A:2A X:55 Y:A8 P:27 SP:F9
D46B  C8        INY                             A:2A X:55 Y:A8 P:27 SP:FB
D46C  20 0A FA  JSR $FA0A                       A:2A X:55 Y:A9 P:A5 SP:FB
FA0A  24 01     BIT $01 = 2A                    A:2A X:55 Y:A9 P:A5 SP:F9
FA0C  38        SEC                             A:2A X:55 Y:A9 P:E5 SP:F9
FA0D  A9 80     LDA #$80                        A:2A X:55 Y:A9 P:E5 SP:F9
FA0F  60        RTS                             A:80 X:55 Y:A9 P:E5 SP:F9
D46F  85 78     STA $78 = FF                    A:80 X:55 Y:A9 P:E5 SP:FB
D471  26 78     ROL $78 = 80                    A:80 X:55 Y:A9 P:E5 SP:FB
D473  A5 78     LDA $78 = 01                    A:80 X:55 Y:A9 P:65 SP:FB
D475  20 10 FA  JSR $FA10                       A:01 X:55 Y:A9 P:65 SP:FB
FA10  90 1C     BCC $FA2E                       A:01 X:55 Y:A9 P:65 SP:F9
FA12  F0 1A     BEQ $FA2E                       A:01 X:55 Y:A9 P:65 SP:F9
FA14  30 18     BMI $FA2E                       A:01 X:55 Y:A9 P:65 SP:F9
FA16  50 16     BVC $FA2E                       A:01 X:55 Y:A9 P:65 SP:F9
FA18  C9 01     CMP #$01                        A:01 X:55 Y:A9 P:65 SP:F9
FA1A  D0 12     BNE $FA2E                       A:01 X:55 Y:A9 P:67 SP:F9
FA1C  B8        CLV                             A:01 X:55 Y:A9 P:67 SP:F9
FA1D  18        CLC                             A:01 X:55 Y:A9 P:27 SP:F9
FA1E  A9 55     LDA #$55                        A:01 X:55 Y:A9 P:26 SP:F9
FA20  60        RTS                             A:55 X:55 Y:A9 P:24 SP:F9
D478  C8        INY                             A:55 X:55 Y:A9 P:24 SP:FB
D479  85 78     STA $78 = 01                    A:55 X:55 Y:AA P:A4 SP:FB
D47B  26 78     ROL $78 = 55                    A:55 X:55 Y:AA P:A4 SP:FB
D47D  A5 78     LDA $78 = AA                    A:55 X:55 Y:AA P:A4 SP:FB
D47F  20 21 FA  JSR $FA21                       A:AA X:55 Y:AA P:A4 SP:FB
FA21  B0 0B     BCS $FA2E                       A:AA X:55 Y:AA P:A4 SP:F9
FA23  F0 09     BEQ $FA2E                       A:AA X:55 Y:AA P:A4 SP:F9
FA25  10 07     BPL $FA2E                       A:AA X:55 Y:AA P:A4 SP:F9
FA27  70 05     BVS $FA2E                       A:AA X:55 Y:AA P:A4 SP:F9
FA29  C9 AA     CMP #$AA                        A:AA X:55 Y:AA P:A4 SP:F9
FA2B  D0 01     BNE $FA2E                       A:AA X:55 Y:AA P:27 SP:F9
FA2D  60        RTS                             A:AA X:55 Y:AA P:27 SP:F9
D482  A9 FF     LDA #$FF                        A:AA X:55 Y:AA P:27 SP:FB
D484  85 78     STA $78 = AA                    A:FF X:55 Y:AA P:A5 SP:FB
D486  85 01     STA $01 = FF                    A:FF X:55 Y:AA P:A5 SP:FB
D488  24 01     BIT $01 = FF                    A:FF X:55 Y:AA P:A5 SP:FB
D48A  38        SEC                             A:FF X:55 Y:AA P:E5 SP:FB
D48B  E6 78     INC $78 = FF                    A:FF X:55 Y:AA P:E5 SP:FB
D48D  D0 0C     BNE $D49B                       A:FF X:55 Y:AA P:67 SP:FB
D48F  30 0A     BMI $D49B                       A:FF X:55 Y:AA P:67 SP:FB
D491  50 08     BVC $D49B                       A:FF X:55 Y:AA P:67 SP:FB
D493  90 06     BCC $D49B                       A:FF X:55 Y:AA P:67 SP:FB
D495  A5 78     LDA $78 = 00                    A:FF X:55 Y:AA P:67 SP:FB
D497  C9 00     CMP #$00                        A:00 X:55 Y:AA P:67 SP:FB
D499  F0 04     BEQ $D49F                       A:00 X:55 Y:AA P:67 SP:FB
D49F  A9 7F     LDA #$7F                        A:00 X:55 Y:AA P:67 SP:FB
D4A1  85 78     STA $78 = 00                    A:7F X:55 Y:AA P:65 SP:FB
D4A3  B8        CLV                             A:7F X:55 Y:AA P:65 SP:FB
D4A4  18        CLC                             A:7F X:55 Y:AA P:25 SP:FB
D4A5  E6 78     INC $78 = 7F                    A:7F X:55 Y:AA P:24 SP:FB
D4A7  F0 0C     BEQ $D4B5                       A:7F X:55 Y:AA P:A4 SP:FB
D4A9  10 0A     BPL $D4B5                       A:7F X:55 Y:AA P:A4 SP:FB
D4AB  70 08     BVS $D4B5                       A:7F X:55 Y:AA P:A4 SP:FB
D4AD  B0 06     BCS $D4B5                       A:7F X:55 Y:AA P:A4 SP:FB
D4AF  A5 78     LDA $78 = 80                    A:7F X:55 Y:AA P:A4 SP:FB
D4B1  C9 80     CMP #$80                        A:80 X:55 Y:AA P:A4 SP:FB
D4B3  F0 04     BEQ $D4B9                       A:80 X:55 Y:AA P:27 SP:FB
D4B9  A9 00     LDA #$00                        A:80 X:55 Y:AA P:27 SP:FB
D4BB  85 78     STA $78 = 80                    A:00 X:55 Y:AA P:27 SP:FB
D4BD  24 01     BIT $01 = 00                    A:00 X:55 Y:AA P:27 SP:FB
D4BF  38        SEC                             A:00 X:55 Y:AA P:E7 SP:FB
D4C0  C6 78     DEC $78 = FF                    A:00 X:55 Y:AA P:E7 SP:FB
D4C2  F0 0C     BEQ $D4D0                       A:00 X:55 Y:AA P:E5 SP:FB
D4C4  10 0A     BPL $D4D0                       A:00 X:55 Y:AA P:E5 SP:FB
D4C6  50 08     BVC $D4D0                       A:00 X:55 Y:AA P:E5 SP:FB
D4C8  90 06     BCC $D4D0                       A:00 X:55 Y:AA P:E5 SP:FB
D4CA  A5 78     LDA $78 = FF                    A:00 X:55 Y:AA P:E5 SP:FB
D4CC  C9 FF     CMP #$FF                        A:FF X:55 Y:AA P:E5 SP:FB
D4CE  F0 04     BEQ $D4D4                       A:FF X:55 Y:AA P:67 SP:FB
D4D4  A9 80     LDA #$80                        A:FF X:55 Y:AA P:67 SP:FB
D4D6  85 78     STA $78 = FF                    A:80 X:55 Y:AA P:E5 SP:FB
D4D8  B8        CLV                             A:80 X:55 Y:AA P:E5 SP:FB
D4D9  18        CLC                             A:80 X:55 Y:AA P:A5 SP:FB
D4DA  C6 78     DEC $78 = 80                    A:80 X:55 Y:AA P:A4 SP:FB
D4DC  F0 0C     BEQ $D4EA                       A:80 X:55 Y:AA P:24 SP:FB
D4DE  30 0A     BMI $D4EA                       A:80 X:55 Y:AA P:24 SP:FB
D4E0  70 08     BVS $D4EA                       A:80 X:55 Y:AA P:24 SP:FB
D4E2  B0 06     BCS $D4EA                       A:80 X:55 Y:AA P:24 SP:FB
D4E4  A5 78     LDA $78 = 7F                    A:80 X:55 Y:AA P:24 SP:FB
D4E6  C9 7F     CMP #$7F                        A:7F X:55 Y:AA P:24 SP:FB
D4E8  F0 04     BEQ $D4EE                       A:7F X:55 Y:AA P:27 SP:FB
D4EE  A9 01     LDA #$01                        A:7F X:55 Y:AA P:27 SP:FB
D4F0  85 78     STA $78 = 7F                    A:01 X:55 Y:AA P:25 SP:FB
D4F2  C6 78     DEC $78 = 01                    A:01 X:55 Y:AA P:25 SP:FB
D4F4  F0 04     BEQ $D4FA                       A:01 X:55 Y:AA P:27 SP:FB
D4FA  60        RTS                             A:01 X:55 Y:AA P:27 SP:FB
C615  20 FB D4  JSR $D4FB                       A:01 X:55 Y:AA P:27 SP:FD
D4FB  A9 55     LDA #$55                        A:01 X:55 Y:AA P:27 SP:FB
D4FD  8D 78 06  STA $0678                       A:55 X:55 Y:AA P:25 SP:FB
D500  A9 FF     LDA #$FF                        A:55 X:55 Y:AA P:25 SP:FB
D502  85 01     STA $01 = 00                    A:FF X:55 Y:AA P:A5 SP:FB
D504  24 01     BIT $01 = FF                    A:FF X:55 Y:AA P:A5 SP:FB
D506  A0 11     LDY #$11                        A:FF X:55 Y:AA P:E5 SP:FB
D508  A2 23     LDX #$23                        A:FF X:55 Y:11 P:65 SP:FB
D50A  A9 00     LDA #$00                        A:FF X:23 Y:11 P:65 SP:FB
D50C  AD 78 06  LDA $0678                       A:00 X:23 Y:11 P:67 SP:FB
D50F  F0 10     BEQ $D521                       A:55 X:23 Y:11 P:65 SP:FB
D511  30 0E     BMI $D521                       A:55 X:23 Y:11 P:65 SP:FB
D513  C9 55     CMP #$55                        A:55 X:23 Y:11 P:65 SP:FB
D515  D0 0A     BNE $D521                       A:55 X:23 Y:11 P:67 SP:FB
D517  C0 11     CPY #$11                        A:55 X:23 Y:11 P:67 SP:FB
D519  D0 06     BNE $D521                       A:55 X:23 Y:11 P:67 SP:FB
D51B  E0 23     CPX #$23                        A:55 X:23 Y:11 P:67 SP:FB
D51D  50 02     BVC $D521                       A:55 X:23 Y:11 P:67 SP:FB
D51F  F0 04     BEQ $D525                       A:55 X:23 Y:11 P:67 SP:FB
D525  A9 46     LDA #$46                        A:55 X:23 Y:11 P:67 SP:FB
D527  24 01     BIT $01 = FF                    A:46 X:23 Y:11 P:65 SP:FB
D529  8D 78 06  STA $0678                       A:46 X:23 Y:11 P:E5 SP:FB
D52C  F0 0B     BEQ $D539                       A:46 X:23 Y:11 P:E5 SP:FB
D52E  10 09     BPL $D539                       A:46 X:23 Y:11 P:E5 SP:FB
D530  50 07     BVC $D539                       A:46 X:23 Y:11 P:E5 SP:FB
D532  AD 78 06  LDA $0678                       A:46 X:23 Y:11 P:E5 SP:FB
D535  C9 46     CMP #$46                        A:46 X:23 Y:11 P:65 SP:FB
D537  F0 04     BEQ $D53D                       A:46 X:23 Y:11 P:67 SP:FB
D53D  A9 55     LDA #$55                        A:46 X:23 Y:11 P:67 SP:FB
D53F  8D 78 06  STA $0678                       A:55 X:23 Y:11 P:65 SP:FB
D542  24 01     BIT $01 = FF                    A:55 X:23 Y:11 P:65 SP:FB
D544  A9 11     LDA #$11                        A:55 X:23 Y:11 P:E5 SP:FB
D546  A2 23     LDX #$23                        A:11 X:23 Y:11 P:65 SP:FB
D548  A0 00     LDY #$00                        A:11 X:23 Y:11 P:65 SP:FB
D54A  AC 78 06  LDY $0678                       A:11 X:23 Y:00 P:67 SP:FB
D54D  F0 10     BEQ $D55F                       A:11 X:23 Y:55 P:65 SP:FB
D54F  30 0E     BMI $D55F                       A:11 X:23 Y:55 P:65 SP:FB
D551  C0 55     CPY #$55                        A:11 X:23 Y:55 P:65 SP:FB
D553  D0 0A     BNE $D55F                       A:11 X:23 Y:55 P:67 SP:FB
D555  C9 11     CMP #$11                        A:11 X:23 Y:55 P:67 SP:FB
D557  D0 06     BNE $D55F                       A:11 X:23 Y:55 P:67 SP:FB
D559  E0 23     CPX #$23                        A:11 X:23 Y:55 P:67 SP:FB
D55B  50 02     BVC $D55F                       A:11 X:23 Y:55 P:67 SP:FB
D55D  F0 04     BEQ $D563                       A:11 X:23 Y:55 P:67 SP:FB
D563  A0 46     LDY #$46                        A:11 X:23 Y:55 P:67 SP:FB
D565  24 01     BIT $01 = FF                    A:11 X:23 Y:46 P:65 SP:FB
D567  8C 78 06  STY $0678                       A:11 X:23 Y:46 P:E5 SP:FB
D56A  F0 0B     BEQ $D577                       A:11 X:23 Y:46 P:E5 SP:FB
D56C  10 09     BPL $D577                       A:11 X:23 Y:46 P:E5 SP:FB
D56E  50 07     BVC $D577                       A:11 X:23 Y:46 P:E5 SP:FB
D570  AC 78 06  LDY $0678                       A:11 X:23 Y:46 P:E5 SP:FB
D573  C0 46     CPY #$46                        A:11 X:23 Y:46 P:65 SP:FB
D575  F0 04     BEQ $D57B                       A:11 X:23 Y:46 P:67 SP:FB
D57B  24 01     BIT $01 = FF                    A:11 X:23 Y:46 P:67 SP:FB
D57D  A9 55     LDA #$55                        A:11 X:23 Y:46 P:E5 SP:FB
D57F  8D 78 06  STA $0678                       A:55 X:23 Y:46 P:65 SP:FB
D582  A0 11     LDY #$11                        A:55 X:23 Y:46 P:65 SP:FB
D584  A9 23     LDA #$23                        A:55 X:23 Y:11 P:65 SP:FB
D586  A2 00     LDX #$00                        A:23 X:23 Y:11 P:65 SP:FB
D588  AE 78 06  LDX $0678                       A:23 X:00 Y:11 P:67 SP:FB
D58B  F0 10     BEQ $D59D                       A:23 X:55 Y:11 P:65 SP:FB
D58D  30 0E     BMI $D59D                       A:23 X:55 Y:11 P:65 SP:FB
D58F  E0 55     CPX #$55                        A:23 X:55 Y:11 P:65 SP:FB
D591  D0 0A     BNE $D59D                       A:23 X:55 Y:11 P:67 SP:FB
D593  C0 11     CPY #$11                        A:23 X:55 Y:11 P:67 SP:FB
D595  D0 06     BNE $D59D                       A:23 X:55 Y:11 P:67 SP:FB
D597  C9 23     CMP #$23                        A:23 X:55 Y:11 P:67 SP:FB
D599  50 02     BVC $D59D                       A:23 X:55 Y:11 P:67 SP:FB
D59B  F0 04     BEQ $D5A1                       A:23 X:55 Y:11 P:67 SP:FB
D5A1  A2 46     LDX #$46                        A:23 X:55 Y:11 P:67 SP:FB
D5A3  24 01     BIT $01 = FF                    A:23 X:46 Y:11 P:65 SP:FB
D5A5  8E 78 06  STX $0678                       A:23 X:46 Y:11 P:E5 SP:FB
D5A8  F0 0B     BEQ $D5B5                       A:23 X:46 Y:11 P:E5 SP:FB
D5AA  10 09     BPL $D5B5                       A:23 X:46 Y:11 P:E5 SP:FB
D5AC  50 07     BVC $D5B5                       A:23 X:46 Y:11 P:E5 SP:FB
D5AE  AE 78 06  LDX $0678                       A:23 X:46 Y:11 P:E5 SP:FB
D5B1  E0 46     CPX #$46                        A:23 X:46 Y:11 P:65 SP:FB
D5B3  F0 04     BEQ $D5B9                       A:23 X:46 Y:11 P:67 SP:FB
D5B9  A9 C0     LDA #$C0                        A:23 X:46 Y:11 P:67 SP:FB
D5BB  8D 78 06  STA $0678                       A:C0 X:46 Y:11 P:E5 SP:FB
D5BE  A2 33     LDX #$33                        A:C0 X:46 Y:11 P:E5 SP:FB
D5C0  A0 88     LDY #$88                        A:C0 X:33 Y:11 P:65 SP:FB
D5C2  A9 05     LDA #$05                        A:C0 X:33 Y:88 P:E5 SP:FB
D5C4  2C 78 06  BIT $0678                       A:05 X:33 Y:88 P:65 SP:FB
D5C7  10 10     BPL $D5D9                       A:05 X:33 Y:88 P:E7 SP:FB
D5C9  50 0E     BVC $D5D9                       A:05 X:33 Y:88 P:E7 SP:FB
D5CB  D0 0C     BNE $D5D9                       A:05 X:33 Y:88 P:E7 SP:FB
D5CD  C9 05     CMP #$05                        A:05 X:33 Y:88 P:E7 SP:FB
D5CF  D0 08     BNE $D5D9                       A:05 X:33 Y:88 P:67 SP:FB
D5D1  E0 33     CPX #$33                        A:05 X:33 Y:88 P:67 SP:FB
D5D3  D0 04     BNE $D5D9                       A:05 X:33 Y:88 P:67 SP:FB
D5D5  C0 88     CPY #$88                        A:05 X:33 Y:88 P:67 SP:FB
D5D7  F0 04     BEQ $D5DD                       A:05 X:33 Y:88 P:67 SP:FB
D5DD  A9 03     LDA #$03                        A:05 X:33 Y:88 P:67 SP:FB
D5DF  8D 78 06  STA $0678                       A:03 X:33 Y:88 P:65 SP:FB
D5E2  A9 01     LDA #$01                        A:03 X:33 Y:88 P:65 SP:FB
D5E4  2C 78 06  BIT $0678                       A:01 X:33 Y:88 P:65 SP:FB
D5E7  30 08     BMI $D5F1                       A:01 X:33 Y:88 P:25 SP:FB
D5E9  70 06     BVS $D5F1                       A:01 X:33 Y:88 P:25 SP:FB
D5EB  F0 04     BEQ $D5F1                       A:01 X:33 Y:88 P:25 SP:FB
D5ED  C9 01     CMP #$01                        A:01 X:33 Y:88 P:25 SP:FB
D5EF  F0 04     BEQ $D5F5                       A:01 X:33 Y:88 P:27 SP:FB
D5F5  A0 B8     LDY #$B8                        A:01 X:33 Y:88 P:27 SP:FB
D5F7  A9 AA     LDA #$AA                        A:01 X:33 Y:B8 P:A5 SP:FB
D5F9  8D 78 06  STA $0678                       A:AA X:33 Y:B8 P:A5 SP:FB
D5FC  20 B6 F7  JSR $F7B6                       A:AA X:33 Y:B8 P:A5 SP:FB
F7B6  18        CLC                             A:AA X:33 Y:B8 P:A5 SP:F9
F7B7  A9 FF     LDA #$FF                        A:AA X:33 Y:B8 P:A4 SP:F9
F7B9  85 01     STA $01 = FF                    A:FF X:33 Y:B8 P:A4 SP:F9
F7BB  24 01     BIT $01 = FF                    A:FF X:33 Y:B8 P:A4 SP:F9
F7BD  A9 55     LDA #$55                        A:FF X:33 Y:B8 P:E4 SP:F9
F7BF  60        RTS                             A:55 X:33 Y:B8 P:64 SP:F9
D5FF  0D 78 06  ORA $0678                       A:55 X:33 Y:B8 P:64 SP:FB
D602  20 C0 F7  JSR $F7C0                       A:FF X:33 Y:B8 P:E4 SP:FB
F7C0  B0 09     BCS $F7CB                       A:FF X:33 Y:B8 P:E4 SP:F9
F7C2  10 07     BPL $F7CB                       A:FF X:33 Y:B8 P:E4 SP:F9
F7C4  C9 FF     CMP #$FF                        A:FF X:33 Y:B8 P:E4 SP:F9
F7C6  D0 03     BNE $F7CB                       A:FF X:33 Y:B8 P:67 SP:F9
F7C8  50 01     BVC $F7CB                       A:FF X:33 Y:B8 P:67 SP:F9
F7CA  60        RTS                             A:FF X:33 Y:B8 P:67 SP:F9
D605  C8        INY                             A:FF X:33 Y:B8 P:67 SP:FB
D606  A9 00     LDA #$00                        A:FF X:33 Y:B9 P:E5 SP:FB
D608  8D 78 06  STA $0678                       A:00 X:33 Y:B9 P:67 SP:FB
D60B  20 CE F7  JSR $F7CE                       A:00 X:33 Y:B9 P:67 SP:FB
F7CE  38        SEC                             A:00 X:33 Y:B9 P:67 SP:F9
F7CF  B8        CLV                             A:00 X:33 Y:B9 P:67 SP:F9
F7D0  A9 00     LDA #$00                        A:00 X:33 Y:B9 P:27 SP:F9
F7D2  60        RTS                             A:00 X:33 Y:B9 P:27 SP:F9
D60E  0D 78 06  ORA $0678                       A:00 X:33 Y:B9 P:27 SP:FB
D611  20 D3 F7  JSR $F7D3                       A:00 X:33 Y:B9 P:27 SP:FB
F7D3  D0 07     BNE $F7DC                       A:00 X:33 Y:B9 P:27 SP:F9
F7D5  70 05     BVS $F7DC                       A:00 X:33 Y:B9 P:27 SP:F9
F7D7  90 03     BCC $F7DC                       A:00 X:33 Y:B9 P:27 SP:F9
F7D9  30 01     BMI $F7DC                       A:00 X:33 Y:B9 P:27 SP:F9
F7DB  60        RTS                             A:00 X:33 Y:B9 P:27 SP:F9
D614  C8        INY                             A:00 X:33 Y:B9 P:27 SP:FB
D615  A9 AA     LDA #$AA                        A:00 X:33 Y:BA P:A5 SP:FB
D617  8D 78 06  STA $0678                       A:AA X:33 Y:BA P:A5 SP:FB
D61A  20 DF F7  JSR $F7DF                       A:AA X:33 Y:BA P:A5 SP:FB
F7DF  18        CLC                             A:AA X:33 Y:BA P:A5 SP:F9
F7E0  24 01     BIT $01 = FF                    A:AA X:33 Y:BA P:A4 SP:F9
F7E2  A9 55     LDA #$55                        A:AA X:33 Y:BA P:E4 SP:F9
F7E4  60        RTS                             A:55 X:33 Y:BA P:64 SP:F9
D61D  2D 78 06  AND $0678                       A:55 X:33 Y:BA P:64 SP:FB
D620  20 E5 F7  JSR $F7E5                       A:00 X:33 Y:BA P:66 SP:FB
F7E5  D0 07     BNE $F7EE                       A:00 X:33 Y:BA P:66 SP:F9
F7E7  50 05     BVC $F7EE                       A:00 X:33 Y:BA P:66 SP:F9
F7E9  B0 03     BCS $F7EE                       A:00 X:33 Y:BA P:66 SP:F9
F7EB  30 01     BMI $F7EE                       A:00 X:33 Y:BA P:66 SP:F9
F7ED  60        RTS                             A:00 X:33 Y:BA P:66 SP:F9
D623  C8        INY                             A:00 X:33 Y:BA P:66 SP:FB
D624  A9 EF     LDA #$EF                        A:00 X:33 Y:BB P:E4 SP:FB
D626  8D 78 06  STA $0678                       A:EF X:33 Y:BB P:E4 SP:FB
D629  20 F1 F7  JSR $F7F1                       A:EF X:33 Y:BB P:E4 SP:FB
F7F1  38        SEC                             A:EF X:33 Y:BB P:E4 SP:F9
F7F2  B8        CLV                             A:EF X:33 Y:BB P:E5 SP:F9
F7F3  A9 F8     LDA #$F8                        A:EF X:33 Y:BB P:A5 SP:F9
F7F5  60        RTS                             A:F8 X:33 Y:BB P:A5 SP:F9
D62C  2D 78 06  AND $0678                       A:F8 X:33 Y:BB P:A5 SP:FB
D62F  20 F6 F7  JSR $F7F6                       A:E8 X:33 Y:BB P:A5 SP:FB
F7F6  90 09     BCC $F801                       A:E8 X:33 Y:BB P:A5 SP:F9
F7F8  10 07     BPL $F801                       A:E8 X:33 Y:BB P:A5 SP:F9
F7FA  C9 E8     CMP #$E8                        A:E8 X:33 Y:BB P:A5 SP:F9
F7FC  D0 03     BNE $F801                       A:E8 X:33 Y:BB P:27 SP:F9
F7FE  70 01     BVS $F801                       A:E8 X:33 Y:BB P:27 SP:F9
F800  60        RTS                             A:E8 X:33 Y:BB P:27 SP:F9
D632  C8        INY                             A:E8 X:33 Y:BB P:27 SP:FB
D633  A9 AA     LDA #$AA                        A:E8 X:33 Y:BC P:A5 SP:FB
D635  8D 78 06  STA $0678                       A:AA X:33 Y:BC P:A5 SP:FB
D638  20 04 F8  JSR $F804                       A:AA X:33 Y:BC P:A5 SP:FB
F804  18        CLC                             A:AA X:33 Y:BC P:A5 SP:F9
F805  24 01     BIT $01 = FF                    A:AA X:33 Y:BC P:A4 SP:F9
F807  A9 5F     LDA #$5F                        A:AA X:33 Y:BC P:E4 SP:F9
F809  60        RTS                             A:5F X:33 Y:BC P:64 SP:F9
D63B  4D 78 06  EOR $0678                       A:5F X:33 Y:BC P:64 SP:FB
D63E  20 0A F8  JSR $F80A                       A:F5 X:33 Y:BC P:E4 SP:FB
F80A  B0 09     BCS $F815                       A:F5 X:33 Y:BC P:E4 SP:F9
F80C  10 07     BPL $F815                       A:F5 X:33 Y:BC P:E4 SP:F9
F80E  C9 F5     CMP #$F5                        A:F5 X:33 Y:BC P:E4 SP:F9
F810  D0 03     BNE $F815                       A:F5 X:33 Y:BC P:67 SP:F9
F812  50 01     BVC $F815                       A:F5 X:33 Y:BC P:67 SP:F9
F814  60        RTS                             A:F5 X:33 Y:BC P:67 SP:F9
D641  C8        INY                             A:F5 X:33 Y:BC P:67 SP:FB
D642  A9 70     LDA #$70                        A:F5 X:33 Y:BD P:E5 SP:FB
D644  8D 78 06  STA $0678                       A:70 X:33 Y:BD P:65 SP:FB
D647  20 18 F8  JSR $F818                       A:70 X:33 Y:BD P:65 SP:FB
F818  38        SEC                             A:70 X:33 Y:BD P:65 SP:F9
F819  B8        CLV                             A:70 X:33 Y:BD P:65 SP:F9
F81A  A9 70     LDA #$70                        A:70 X:33 Y:BD P:25 SP:F9
F81C  60        RTS                             A:70 X:33 Y:BD P:25 SP:F9
D64A  4D 78 06  EOR $0678                       A:70 X:33 Y:BD P:25 SP:FB
D64D  20 1D F8  JSR $F81D                       A:00 X:33 Y:BD P:27 SP:FB
F81D  D0 07     BNE $F826                       A:00 X:33 Y:BD P:27 SP:F9
F81F  70 05     BVS $F826                       A:00 X:33 Y:BD P:27 SP:F9
F821  90 03     BCC $F826                       A:00 X:33 Y:BD P:27 SP:F9
F823  30 01     BMI $F826                       A:00 X:33 Y:BD P:27 SP:F9
F825  60        RTS                             A:00 X:33 Y:BD P:27 SP:F9
D650  C8        INY                             A:00 X:33 Y:BD P:27 SP:FB
D651  A9 69     LDA #$69                        A:00 X:33 Y:BE P:A5 SP:FB
D653  8D 78 06  STA $0678                       A:69 X:33 Y:BE P:25 SP:FB
D656  20 29 F8  JSR $F829                       A:69 X:33 Y:BE P:25 SP:FB
F829  18        CLC                             A:69 X:33 Y:BE P:25 SP:F9
F82A  24 01     BIT $01 = FF                    A:69 X:33 Y:BE P:24 SP:F9
F82C  A9 00     LDA #$00                        A:69 X:33 Y:BE P:E4 SP:F9
F82E  60        RTS                             A:00 X:33 Y:BE P:66 SP:F9
D659  6D 78 06  ADC $0678                       A:00 X:33 Y:BE P:66 SP:FB
D65C  20 2F F8  JSR $F82F                       A:69 X:33 Y:BE P:24 SP:FB
F82F  30 09     BMI $F83A                       A:69 X:33 Y:BE P:24 SP:F9
F831  B0 07     BCS $F83A                       A:69 X:33 Y:BE P:24 SP:F9
F833  C9 69     CMP #$69                        A:69 X:33 Y:BE P:24 SP:F9
F835  D0 03     BNE $F83A                       A:69 X:33 Y:BE P:27 SP:F9
F837  70 01     BVS $F83A                       A:69 X:33 Y:BE P:27 SP:F9
F839  60        RTS                             A:69 X:33 Y:BE P:27 SP:F9
D65F  C8        INY                             A:69 X:33 Y:BE P:27 SP:FB
D660  20 3D F8  JSR $F83D                       A:69 X:33 Y:BF P:A5 SP:FB
F83D  38        SEC                             A:69 X:33 Y:BF P:A5 SP:F9
F83E  24 01     BIT $01 = FF                    A:69 X:33 Y:BF P:A5 SP:F9
F840  A9 00     LDA #$00                        A:69 X:33 Y:BF P:E5 SP:F9
F842  60        RTS                             A:00 X:33 Y:BF P:67 SP:F9
D663  6D 78 06  ADC $0678                       A:00 X:33 Y:BF P:67 SP:FB
D666  20 43 F8  JSR $F843                       A:6A X:33 Y:BF P:24 SP:FB
F843  30 09     BMI $F84E                       A:6A X:33 Y:BF P:24 SP:F9
F845  B0 07     BCS $F84E                       A:6A X:33 Y:BF P:24 SP:F9
F847  C9 6A     CMP #$6A                        A:6A X:33 Y:BF P:24 SP:F9
F849  D0 03     BNE $F84E                       A:6A X:33 Y:BF P:27 SP:F9
F84B  70 01     BVS $F84E                       A:6A X:33 Y:BF P:27 SP:F9
F84D  60        RTS                             A:6A X:33 Y:BF P:27 SP:F9
D669  C8        INY                             A:6A X:33 Y:BF P:27 SP:FB
D66A  A9 7F     LDA #$7F                        A:6A X:33 Y:C0 P:A5 SP:FB
D66C  8D 78 06  STA $0678                       A:7F X:33 Y:C0 P:25 SP:FB
D66F  20 51 F8  JSR $F851                       A:7F X:33 Y:C0 P:25 SP:FB
F851  38        SEC                             A:7F X:33 Y:C0 P:25 SP:F9
F852  B8        CLV                             A:7F X:33 Y:C0 P:25 SP:F9
F853  A9 7F     LDA #$7F                        A:7F X:33 Y:C0 P:25 SP:F9
F855  60        RTS                             A:7F X:33 Y:C0 P:25 SP:F9
D672  6D 78 06  ADC $0678                       A:7F X:33 Y:C0 P:25 SP:FB
D675  20 56 F8  JSR $F856                       A:FF X:33 Y:C0 P:E4 SP:FB
F856  10 09     BPL $F861                       A:FF X:33 Y:C0 P:E4 SP:F9
F858  B0 07     BCS $F861                       A:FF X:33 Y:C0 P:E4 SP:F9
F85A  C9 FF     CMP #$FF                        A:FF X:33 Y:C0 P:E4 SP:F9
F85C  D0 03     BNE $F861                       A:FF X:33 Y:C0 P:67 SP:F9
F85E  50 01     BVC $F861                       A:FF X:33 Y:C0 P:67 SP:F9
F860  60        RTS                             A:FF X:33 Y:C0 P:67 SP:F9
D678  C8        INY                             A:FF X:33 Y:C0 P:67 SP:FB
D679  A9 80     LDA #$80                        A:FF X:33 Y:C1 P:E5 SP:FB
D67B  8D 78 06  STA $0678                       A:80 X:33 Y:C1 P:E5 SP:FB
D67E  20 64 F8  JSR $F864                       A:80 X:33 Y:C1 P:E5 SP:FB
F864  18        CLC                             A:80 X:33 Y:C1 P:E5 SP:F9
F865  24 01     BIT $01 = FF                    A:80 X:33 Y:C1 P:E4 SP:F9
F867  A9 7F     LDA #$7F                        A:80 X:33 Y:C1 P:E4 SP:F9
F869  60        RTS                             A:7F X:33 Y:C1 P:64 SP:F9
D681  6D 78 06  ADC $0678                       A:7F X:33 Y:C1 P:64 SP:FB
D684  20 6A F8  JSR $F86A                       A:FF X:33 Y:C1 P:A4 SP:FB
F86A  10 09     BPL $F875                       A:FF X:33 Y:C1 P:A4 SP:F9
F86C  B0 07     BCS $F875                       A:FF X:33 Y:C1 P:A4 SP:F9
F86E  C9 FF     CMP #$FF                        A:FF X:33 Y:C1 P:A4 SP:F9
F870  D0 03     BNE $F875                       A:FF X:33 Y:C1 P:27 SP:F9
F872  70 01     BVS $F875                       A:FF X:33 Y:C1 P:27 SP:F9
F874  60        RTS                             A:FF X:33 Y:C1 P:27 SP:F9
D687  C8        INY                             A:FF X:33 Y:C1 P:27 SP:FB
D688  20 78 F8  JSR $F878                       A:FF X:33 Y:C2 P:A5 SP:FB
F878  38        SEC                             A:FF X:33 Y:C2 P:A5 SP:F9
F879  B8        CLV                             A:FF X:33 Y:C2 P:A5 SP:F9
F87A  A9 7F     LDA #$7F                        A:FF X:33 Y:C2 P:A5 SP:F9
F87C  60        RTS                             A:7F X:33 Y:C2 P:25 SP:F9
D68B  6D 78 06  ADC $0678                       A:7F X:33 Y:C2 P:25 SP:FB
D68E  20 7D F8  JSR $F87D                       A:00 X:33 Y:C2 P:27 SP:FB
F87D  D0 07     BNE $F886                       A:00 X:33 Y:C2 P:27 SP:F9
F87F  30 05     BMI $F886                       A:00 X:33 Y:C2 P:27 SP:F9
F881  70 03     BVS $F886                       A:00 X:33 Y:C2 P:27 SP:F9
F883  90 01     BCC $F886                       A:00 X:33 Y:C2 P:27 SP:F9
F885  60        RTS                             A:00 X:33 Y:C2 P:27 SP:F9
D691  C8        INY                             A:00 X:33 Y:C2 P:27 SP:FB
D692  A9 40     LDA #$40                        A:00 X:33 Y:C3 P:A5 SP:FB
D694  8D 78 06  STA $0678                       A:40 X:33 Y:C3 P:25 SP:FB
D697  20 89 F8  JSR $F889                       A:40 X:33 Y:C3 P:25 SP:FB
F889  24 01     BIT $01 = FF                    A:40 X:33 Y:C3 P:25 SP:F9
F88B  A9 40     LDA #$40                        A:40 X:33 Y:C3 P:E5 SP:F9
F88D  60        RTS                             A:40 X:33 Y:C3 P:65 SP:F9
D69A  CD 78 06  CMP $0678                       A:40 X:33 Y:C3 P:65 SP:FB
D69D  20 8E F8  JSR $F88E                       A:40 X:33 Y:C3 P:67 SP:FB
F88E  30 07     BMI $F897                       A:40 X:33 Y:C3 P:67 SP:F9
F890  90 05     BCC $F897                       A:40 X:33 Y:C3 P:67 SP:F9
F892  D0 03     BNE $F897                       A:40 X:33 Y:C3 P:67 SP:F9
F894  50 01     BVC $F897                       A:40 X:33 Y:C3 P:67 SP:F9
F896  60        RTS                             A:40 X:33 Y:C3 P:67 SP:F9
D6A0  C8        INY                             A:40 X:33 Y:C3 P:67 SP:FB
D6A1  48        PHA                             A:40 X:33 Y:C4 P:E5 SP:FB
D6A2  A9 3F     LDA #$3F                        A:40 X:33 Y:C4 P:E5 SP:FA
D6A4  8D 78 06  STA $0678                       A:3F X:33 Y:C4 P:65 SP:FA
D6A7  68        PLA                             A:3F X:33 Y:C4 P:65 SP:FA
D6A8  20 9A F8  JSR $F89A                       A:40 X:33 Y:C4 P:65 SP:FB
F89A  B8        CLV                             A:40 X:33 Y:C4 P:65 SP:F9
F89B  60        RTS                             A:40 X:33 Y:C4 P:25 SP:F9
D6AB  CD 78 06  CMP $0678                       A:40 X:33 Y:C4 P:25 SP:FB
D6AE  20 9C F8  JSR $F89C                       A:40 X:33 Y:C4 P:25 SP:FB
F89C  F0 07     BEQ $F8A5                       A:40 X:33 Y:C4 P:25 SP:F9
F89E  30 05     BMI $F8A5                       A:40 X:33 Y:C4 P:25 SP:F9
F8A0  90 03     BCC $F8A5                       A:40 X:33 Y:C4 P:25 SP:F9
F8A2  70 01     BVS $F8A5                       A:40 X:33 Y:C4 P:25 SP:F9
F8A4  60        RTS                             A:40 X:33 Y:C4 P:25 SP:F9
D6B1  C8        INY                             A:40 X:33 Y:C4 P:25 SP:FB
D6B2  48        PHA                             A:40 X:33 Y:C5 P:A5 SP:FB
D6B3  A9 41     LDA #$41                        A:40 X:33 Y:C5 P:A5 SP:FA
D6B5  8D 78 06  STA $0678                       A:41 X:33 Y:C5 P:25 SP:FA
D6B8  68        PLA                             A:41 X:33 Y:C5 P:25 SP:FA
D6B9  CD 78 06  CMP $0678                       A:40 X:33 Y:C5 P:25 SP:FB
D6BC  20 A8 F8  JSR $F8A8                       A:40 X:33 Y:C5 P:A4 SP:FB
F8A8  F0 05     BEQ $F8AF                       A:40 X:33 Y:C5 P:A4 SP:F9
F8AA  10 03     BPL $F8AF                       A:40 X:33 Y:C5 P:A4 SP:F9
F8AC  10 01     BPL $F8AF                       A:40 X:33 Y:C5 P:A4 SP:F9
F8AE  60        RTS                             A:40 X:33 Y:C5 P:A4 SP:F9
D6BF  C8        INY                             A:40 X:33 Y:C5 P:A4 SP:FB
D6C0  48        PHA                             A:40 X:33 Y:C6 P:A4 SP:FB
D6C1  A9 00     LDA #$00                        A:40 X:33 Y:C6 P:A4 SP:FA
D6C3  8D 78 06  STA $0678                       A:00 X:33 Y:C6 P:26 SP:FA
D6C6  68        PLA                             A:00 X:33 Y:C6 P:26 SP:FA
D6C7  20 B2 F8  JSR $F8B2                       A:40 X:33 Y:C6 P:24 SP:FB
F8B2  A9 80     LDA #$80                        A:40 X:33 Y:C6 P:24 SP:F9
F8B4  60        RTS                             A:80 X:33 Y:C6 P:A4 SP:F9
D6CA  CD 78 06  CMP $0678                       A:80 X:33 Y:C6 P:A4 SP:FB
D6CD  20 B5 F8  JSR $F8B5                       A:80 X:33 Y:C6 P:A5 SP:FB
F8B5  F0 05     BEQ $F8BC                       A:80 X:33 Y:C6 P:A5 SP:F9
F8B7  10 03     BPL $F8BC                       A:80 X:33 Y:C6 P:A5 SP:F9
F8B9  90 01     BCC $F8BC                       A:80 X:33 Y:C6 P:A5 SP:F9
F8BB  60        RTS                             A:80 X:33 Y:C6 P:A5 SP:F9
D6D0  C8        INY                             A:80 X:33 Y:C6 P:A5 SP:FB
D6D1  48        PHA                             A:80 X:33 Y:C7 P:A5 SP:FB
D6D2  A9 80     LDA #$80                        A:80 X:33 Y:C7 P:A5 SP:FA
D6D4  8D 78 06  STA $0678                       A:80 X:33 Y:C7 P:A5 SP:FA
D6D7  68        PLA                             A:80 X:33 Y:C7 P:A5 SP:FA
D6D8  CD 78 06  CMP $0678                       A:80 X:33 Y:C7 P:A5 SP:FB
D6DB  20 BF F8  JSR $F8BF                       A:80 X:33 Y:C7 P:27 SP:FB
F8BF  D0 05     BNE $F8C6                       A:80 X:33 Y:C7 P:27 SP:F9
F8C1  30 03     BMI $F8C6                       A:80 X:33 Y:C7 P:27 SP:F9
F8C3  90 01     BCC $F8C6                       A:80 X:33 Y:C7 P:27 SP:F9
F8C5  60        RTS                             A:80 X:33 Y:C7 P:27 SP:F9
D6DE  C8        INY                             A:80 X:33 Y:C7 P:27 SP:FB
D6DF  48        PHA                             A:80 X:33 Y:C8 P:A5 SP:FB
D6E0  A9 81     LDA #$81                        A:80 X:33 Y:C8 P:A5 SP:FA
D6E2  8D 78 06  STA $0678                       A:81 X:33 Y:C8 P:A5 SP:FA
D6E5  68        PLA                             A:81 X:33 Y:C8 P:A5 SP:FA
D6E6  CD 78 06  CMP $0678                       A:80 X:33 Y:C8 P:A5 SP:FB
D6E9  20 C9 F8  JSR $F8C9                       A:80 X:33 Y:C8 P:A4 SP:FB
F8C9  B0 05     BCS $F8D0                       A:80 X:33 Y:C8 P:A4 SP:F9
F8CB  F0 03     BEQ $F8D0                       A:80 X:33 Y:C8 P:A4 SP:F9
F8CD  10 01     BPL $F8D0                       A:80 X:33 Y:C8 P:A4 SP:F9
F8CF  60        RTS                             A:80 X:33 Y:C8 P:A4 SP:F9
D6EC  C8        INY                             A:80 X:33 Y:C8 P:A4 SP:FB
D6ED  48        PHA                             A:80 X:33 Y:C9 P:A4 SP:FB
D6EE  A9 7F     LDA #$7F                        A:80 X:33 Y:C9 P:A4 SP:FA
D6F0  8D 78 06  STA $0678                       A:7F X:33 Y:C9 P:24 SP:FA
D6F3  68        PLA                             A:7F X:33 Y:C9 P:24 SP:FA
D6F4  CD 78 06  CMP $0678                       A:80 X:33 Y:C9 P:A4 SP:FB
D6F7  20 D3 F8  JSR $F8D3                       A:80 X:33 Y:C9 P:25 SP:FB
F8D3  90 05     BCC $F8DA                       A:80 X:33 Y:C9 P:25 SP:F9
F8D5  F0 03     BEQ $F8DA                       A:80 X:33 Y:C9 P:25 SP:F9
F8D7  30 01     BMI $F8DA                       A:80 X:33 Y:C9 P:25 SP:F9
F8D9  60        RTS                             A:80 X:33 Y:C9 P:25 SP:F9
D6FA  C8        INY                             A:80 X:33 Y:C9 P:25 SP:FB
D6FB  A9 40     LDA #$40                        A:80 X:33 Y:CA P:A5 SP:FB
D6FD  8D 78 06  STA $0678                       A:40 X:33 Y:CA P:25 SP:FB
D700  20 31 F9  JSR $F931                       A:40 X:33 Y:CA P:25 SP:FB
F931  24 01     BIT $01 = FF                    A:40 X:33 Y:CA P:25 SP:F9
F933  A9 40     LDA #$40                        A:40 X:33 Y:CA P:E5 SP:F9
F935  38        SEC                             A:40 X:33 Y:CA P:65 SP:F9
F936  60        RTS                             A:40 X:33 Y:CA P:65 SP:F9
D703  ED 78 06  SBC $0678                       A:40 X:33 Y:CA P:65 SP:FB
D706  20 37 F9  JSR $F937                       A:00 X:33 Y:CA P:27 SP:FB
F937  30 0B     BMI $F944                       A:00 X:33 Y:CA P:27 SP:F9
F939  90 09     BCC $F944                       A:00 X:33 Y:CA P:27 SP:F9
F93B  D0 07     BNE $F944                       A:00 X:33 Y:CA P:27 SP:F9
F93D  70 05     BVS $F944                       A:00 X:33 Y:CA P:27 SP:F9
F93F  C9 00     CMP #$00                        A:00 X:33 Y:CA P:27 SP:F9
F941  D0 01     BNE $F944                       A:00 X:33 Y:CA P:27 SP:F9
F943  60        RTS                             A:00 X:33 Y:CA P:27 SP:F9
D709  C8        INY                             A:00 X:33 Y:CA P:27 SP:FB
D70A  A9 3F     LDA #$3F                        A:00 X:33 Y:CB P:A5 SP:FB
D70C  8D 78 06  STA $0678                       A:3F X:33 Y:CB P:25 SP:FB
D70F  20 47 F9  JSR $F947                       A:3F X:33 Y:CB P:25 SP:FB
F947  B8        CLV                             A:3F X:33 Y:CB P:25 SP:F9
F948  38        SEC                             A:3F X:33 Y:CB P:25 SP:F9
F949  A9 40     LDA #$40                        A:3F X:33 Y:CB P:25 SP:F9
F94B  60        RTS                             A:40 X:33 Y:CB P:25 SP:F9
D712  ED 78 06  SBC $0678                       A:40 X:33 Y:CB P:25 SP:FB
D715  20 4C F9  JSR $F94C                       A:01 X:33 Y:CB P:25 SP:FB
F94C  F0 0B     BEQ $F959                       A:01 X:33 Y:CB P:25 SP:F9
F94E  30 09     BMI $F959                       A:01 X:33 Y:CB P:25 SP:F9
F950  90 07     BCC $F959                       A:01 X:33 Y:CB P:25 SP:F9
F952  70 05     BVS $F959                       A:01 X:33 Y:CB P:25 SP:F9
F954  C9 01     CMP #$01                        A:01 X:33 Y:CB P:25 SP:F9
F956  D0 01     BNE $F959                       A:01 X:33 Y:CB P:27 SP:F9
F958  60        RTS                             A:01 X:33 Y:CB P:27 SP:F9
D718  C8        INY                             A:01 X:33 Y:CB P:27 SP:FB
D719  A9 41     LDA #$41                        A:01 X:33 Y:CC P:A5 SP:FB
D71B  8D 78 06  STA $0678                       A:41 X:33 Y:CC P:25 SP:FB
D71E  20 5C F9  JSR $F95C                       A:41 X:33 Y:CC P:25 SP:FB
F95C  A9 40     LDA #$40                        A:41 X:33 Y:CC P:25 SP:F9
F95E  38        SEC                             A:40 X:33 Y:CC P:25 SP:F9
F95F  24 01     BIT $01 = FF                    A:40 X:33 Y:CC P:25 SP:F9
F961  60        RTS                             A:40 X:33 Y:CC P:E5 SP:F9
D721  ED 78 06  SBC $0678                       A:40 X:33 Y:CC P:E5 SP:FB
D724  20 62 F9  JSR $F962                       A:FF X:33 Y:CC P:A4 SP:FB
F962  B0 0B     BCS $F96F                       A:FF X:33 Y:CC P:A4 SP:F9
F964  F0 09     BEQ $F96F                       A:FF X:33 Y:CC P:A4 SP:F9
F966  10 07     BPL $F96F                       A:FF X:33 Y:CC P:A4 SP:F9
F968  70 05     BVS $F96F                       A:FF X:33 Y:CC P:A4 SP:F9
F96A  C9 FF     CMP #$FF                        A:FF X:33 Y:CC P:A4 SP:F9
F96C  D0 01     BNE $F96F                       A:FF X:33 Y:CC P:27 SP:F9
F96E  60        RTS                             A:FF X:33 Y:CC P:27 SP:F9
D727  C8        INY                             A:FF X:33 Y:CC P:27 SP:FB
D728  A9 00     LDA #$00                        A:FF X:33 Y:CD P:A5 SP:FB
D72A  8D 78 06  STA $0678                       A:00 X:33 Y:CD P:27 SP:FB
D72D  20 72 F9  JSR $F972                       A:00 X:33 Y:CD P:27 SP:FB
F972  18        CLC                             A:00 X:33 Y:CD P:27 SP:F9
F973  A9 80     LDA #$80                        A:00 X:33 Y:CD P:26 SP:F9
F975  60        RTS                             A:80 X:33 Y:CD P:A4 SP:F9
D730  ED 78 06  SBC $0678                       A:80 X:33 Y:CD P:A4 SP:FB
D733  20 76 F9  JSR $F976                       A:7F X:33 Y:CD P:65 SP:FB
F976  90 05     BCC $F97D                       A:7F X:33 Y:CD P:65 SP:F9
F978  C9 7F     CMP #$7F                        A:7F X:33 Y:CD P:65 SP:F9
F97A  D0 01     BNE $F97D                       A:7F X:33 Y:CD P:67 SP:F9
F97C  60        RTS                             A:7F X:33 Y:CD P:67 SP:F9
D736  C8        INY                             A:7F X:33 Y:CD P:67 SP:FB
D737  A9 7F     LDA #$7F                        A:7F X:33 Y:CE P:E5 SP:FB
D739  8D 78 06  STA $0678                       A:7F X:33 Y:CE P:65 SP:FB
D73C  20 80 F9  JSR $F980                       A:7F X:33 Y:CE P:65 SP:FB
F980  38        SEC                             A:7F X:33 Y:CE P:65 SP:F9
F981  A9 81     LDA #$81                        A:7F X:33 Y:CE P:65 SP:F9
F983  60        RTS                             A:81 X:33 Y:CE P:E5 SP:F9
D73F  ED 78 06  SBC $0678                       A:81 X:33 Y:CE P:E5 SP:FB
D742  20 84 F9  JSR $F984                       A:02 X:33 Y:CE P:65 SP:FB
F984  50 07     BVC $F98D                       A:02 X:33 Y:CE P:65 SP:F9
F986  90 05     BCC $F98D                       A:02 X:33 Y:CE P:65 SP:F9
F988  C9 02     CMP #$02                        A:02 X:33 Y:CE P:65 SP:F9
F98A  D0 01     BNE $F98D                       A:02 X:33 Y:CE P:67 SP:F9
F98C  60        RTS                             A:02 X:33 Y:CE P:67 SP:F9
D745  C8        INY                             A:02 X:33 Y:CE P:67 SP:FB
D746  A9 40     LDA #$40                        A:02 X:33 Y:CF P:E5 SP:FB
D748  8D 78 06  STA $0678                       A:40 X:33 Y:CF P:65 SP:FB
D74B  20 89 F8  JSR $F889                       A:40 X:33 Y:CF P:65 SP:FB
F889  24 01     BIT $01 = FF                    A:40 X:33 Y:CF P:65 SP:F9
F88B  A9 40     LDA #$40                        A:40 X:33 Y:CF P:E5 SP:F9
F88D  60        RTS                             A:40 X:33 Y:CF P:65 SP:F9
D74E  AA        TAX                             A:40 X:33 Y:CF P:65 SP:FB
D74F  EC 78 06  CPX $0678                       A:40 X:40 Y:CF P:65 SP:FB
D752  20 8E F8  JSR $F88E                       A:40 X:40 Y:CF P:67 SP:FB
F88E  30 07     BMI $F897                       A:40 X:40 Y:CF P:67 SP:F9
F890  90 05     BCC $F897                       A:40 X:40 Y:CF P:67 SP:F9
F892  D0 03     BNE $F897                       A:40 X:40 Y:CF P:67 SP:F9
F894  50 01     BVC $F897                       A:40 X:40 Y:CF P:67 SP:F9
F896  60        RTS                             A:40 X:40 Y:CF P:67 SP:F9
D755  C8        INY                             A:40 X:40 Y:CF P:67 SP:FB
D756  A9 3F     LDA #$3F                        A:40 X:40 Y:D0 P:E5 SP:FB
D758  8D 78 06  STA $0678                       A:3F X:40 Y:D0 P:65 SP:FB
D75B  20 9A F8  JSR $F89A                       A:3F X:40 Y:D0 P:65 SP:FB
F89A  B8        CLV                             A:3F X:40 Y:D0 P:65 SP:F9
F89B  60        RTS                             A:3F X:40 Y:D0 P:25 SP:F9
D75E  EC 78 06  CPX $0678                       A:3F X:40 Y:D0 P:25 SP:FB
D761  20 9C F8  JSR $F89C                       A:3F X:40 Y:D0 P:25 SP:FB
F89C  F0 07     BEQ $F8A5                       A:3F X:40 Y:D0 P:25 SP:F9
F89E  30 05     BMI $F8A5                       A:3F X:40 Y:D0 P:25 SP:F9
F8A0  90 03     BCC $F8A5                       A:3F X:40 Y:D0 P:25 SP:F9
F8A2  70 01     BVS $F8A5                       A:3F X:40 Y:D0 P:25 SP:F9
F8A4  60        RTS                             A:3F X:40 Y:D0 P:25 SP:F9
D764  C8        INY                             A:3F X:40 Y:D0 P:25 SP:FB
D765  A9 41     LDA #$41                        A:3F X:40 Y:D1 P:A5 SP:FB
D767  8D 78 06  STA $0678                       A:41 X:40 Y:D1 P:25 SP:FB
D76A  EC 78 06  CPX $0678                       A:41 X:40 Y:D1 P:25 SP:FB
D76D  20 A8 F8  JSR $F8A8                       A:41 X:40 Y:D1 P:A4 SP:FB
F8A8  F0 05     BEQ $F8AF                       A:41 X:40 Y:D1 P:A4 SP:F9
F8AA  10 03     BPL $F8AF                       A:41 X:40 Y:D1 P:A4 SP:F9
F8AC  10 01     BPL $F8AF                       A:41 X:40 Y:D1 P:A4 SP:F9
F8AE  60        RTS                             A:41 X:40 Y:D1 P:A4 SP:F9
D770  C8        INY                             A:41 X:40 Y:D1 P:A4 SP:FB
D771  A9 00     LDA #$00                        A:41 X:40 Y:D2 P:A4 SP:FB
D773  8D 78 06  STA $0678                       A:00 X:40 Y:D2 P:26 SP:FB
D776  20 B2 F8  JSR $F8B2                       A:00 X:40 Y:D2 P:26 SP:FB
F8B2  A9 80     LDA #$80                        A:00 X:40 Y:D2 P:26 SP:F9
F8B4  60        RTS                             A:80 X:40 Y:D2 P:A4 SP:F9
D779  AA        TAX                             A:80 X:40 Y:D2 P:A4 SP:FB
D77A  EC 78 06  CPX $0678                       A:80 X:80 Y:D2 P:A4 SP:FB
D77D  20 B5 F8  JSR $F8B5                       A:80 X:80 Y:D2 P:A5 SP:FB
F8B5  F0 05     BEQ $F8BC                       A:80 X:80 Y:D2 P:A5 SP:F9
F8B7  10 03     BPL $F8BC                       A:80 X:80 Y:D2 P:A5 SP:F9
F8B9  90 01     BCC $F8BC                       A:80 X:80 Y:D2 P:A5 SP:F9
F8BB  60        RTS                             A:80 X:80 Y:D2 P:A5 SP:F9
D780  C8        INY                             A:80 X:80 Y:D2 P:A5 SP:FB
D781  A9 80     LDA #$80                        A:80 X:80 Y:D3 P:A5 SP:FB
D783  8D 78 06  STA $0678                       A:80 X:80 Y:D3 P:A5 SP:FB
D786  EC 78 06  CPX $0678                       A:80 X:80 Y:D3 P:A5 SP:FB
D789  20 BF F8  JSR $F8BF                       A:80 X:80 Y:D3 P:27 SP:FB
F8BF  D0 05     BNE $F8C6                       A:80 X:80 Y:D3 P:27 SP:F9
F8C1  30 03     BMI $F8C6                       A:80 X:80 Y:D3 P:27 SP:F9
F8C3  90 01     BCC $F8C6                       A:80 X:80 Y:D3 P:27 SP:F9
F8C5  60        RTS                             A:80 X:80 Y:D3 P:27 SP:F9
D78C  C8        INY                             A:80 X:80 Y:D3 P:27 SP:FB
D78D  A9 81     LDA #$81                        A:80 X:80 Y:D4 P:A5 SP:FB
D78F  8D 78 06  STA $0678                       A:81 X:80 Y:D4 P:A5 SP:FB
D792  EC 78 06  CPX $0678                       A:81 X:80 Y:D4 P:A5 SP:FB
D795  20 C9 F8  JSR $F8C9                       A:81 X:80 Y:D4 P:A4 SP:FB
F8C9  B0 05     BCS $F8D0                       A:81 X:80 Y:D4 P:A4 SP:F9
F8CB  F0 03     BEQ $F8D0                       A:81 X:80 Y:D4 P:A4 SP:F9
F8CD  10 01     BPL $F8D0                       A:81 X:80 Y:D4 P:A4 SP:F9
F8CF  60        RTS                             A:81 X:80 Y:D4 P:A4 SP:F9
D798  C8        INY                             A:81 X:80 Y:D4 P:A4 SP:FB
D799  A9 7F     LDA #$7F                        A:81 X:80 Y:D5 P:A4 SP:FB
D79B  8D 78 06  STA $0678                       A:7F X:80 Y:D5 P:24 SP:FB
D79E  EC 78 06  CPX $0678                       A:7F X:80 Y:D5 P:24 SP:FB
D7A1  20 D3 F8  JSR $F8D3                       A:7F X:80 Y:D5 P:25 SP:FB
F8D3  90 05     BCC $F8DA                       A:7F X:80 Y:D5 P:25 SP:F9
F8D5  F0 03     BEQ $F8DA                       A:7F X:80 Y:D5 P:25 SP:F9
F8D7  30 01     BMI $F8DA                       A:7F X:80 Y:D5 P:25 SP:F9
F8D9  60        RTS                             A:7F X:80 Y:D5 P:25 SP:F9
D7A4  C8        INY                             A:7F X:80 Y:D5 P:25 SP:FB
D7A5  98        TYA                             A:7F X:80 Y:D6 P:A5 SP:FB
D7A6  AA        TAX                             A:D6 X:80 Y:D6 P:A5 SP:FB
D7A7  A9 40     LDA #$40                        A:D6 X:D6 Y:D6 P:A5 SP:FB
D7A9  8D 78 06  STA $0678                       A:40 X:D6 Y:D6 P:25 SP:FB
D7AC  20 DD F8  JSR $F8DD                       A:40 X:D6 Y:D6 P:25 SP:FB
F8DD  24 01     BIT $01 = FF                    A:40 X:D6 Y:D6 P:25 SP:F9
F8DF  A0 40     LDY #$40                        A:40 X:D6 Y:D6 P:E5 SP:F9
F8E1  60        RTS                             A:40 X:D6 Y:40 P:65 SP:F9
D7AF  CC 78 06  CPY $0678                       A:40 X:D6 Y:40 P:65 SP:FB
D7B2  20 E2 F8  JSR $F8E2                       A:40 X:D6 Y:40 P:67 SP:FB
F8E2  30 07     BMI $F8EB                       A:40 X:D6 Y:40 P:67 SP:F9
F8E4  90 05     BCC $F8EB                       A:40 X:D6 Y:40 P:67 SP:F9
F8E6  D0 03     BNE $F8EB                       A:40 X:D6 Y:40 P:67 SP:F9
F8E8  50 01     BVC $F8EB                       A:40 X:D6 Y:40 P:67 SP:F9
F8EA  60        RTS                             A:40 X:D6 Y:40 P:67 SP:F9
D7B5  E8        INX                             A:40 X:D6 Y:40 P:67 SP:FB
D7B6  A9 3F     LDA #$3F                        A:40 X:D7 Y:40 P:E5 SP:FB
D7B8  8D 78 06  STA $0678                       A:3F X:D7 Y:40 P:65 SP:FB
D7BB  20 EE F8  JSR $F8EE                       A:3F X:D7 Y:40 P:65 SP:FB
F8EE  B8        CLV                             A:3F X:D7 Y:40 P:65 SP:F9
F8EF  60        RTS                             A:3F X:D7 Y:40 P:25 SP:F9
D7BE  CC 78 06  CPY $0678                       A:3F X:D7 Y:40 P:25 SP:FB
D7C1  20 F0 F8  JSR $F8F0                       A:3F X:D7 Y:40 P:25 SP:FB
F8F0  F0 07     BEQ $F8F9                       A:3F X:D7 Y:40 P:25 SP:F9
F8F2  30 05     BMI $F8F9                       A:3F X:D7 Y:40 P:25 SP:F9
F8F4  90 03     BCC $F8F9                       A:3F X:D7 Y:40 P:25 SP:F9
F8F6  70 01     BVS $F8F9                       A:3F X:D7 Y:40 P:25 SP:F9
F8F8  60        RTS                             A:3F X:D7 Y:40 P:25 SP:F9
D7C4  E8        INX                             A:3F X:D7 Y:40 P:25 SP:FB
D7C5  A9 41     LDA #$41                        A:3F X:D8 Y:40 P:A5 SP:FB
D7C7  8D 78 06  STA $0678                       A:41 X:D8 Y:40 P:25 SP:FB
D7CA  CC 78 06  CPY $0678                       A:41 X:D8 Y:40 P:25 SP:FB
D7CD  20 FC F8  JSR $F8FC                       A:41 X:D8 Y:40 P:A4 SP:FB
F8FC  F0 05     BEQ $F903                       A:41 X:D8 Y:40 P:A4 SP:F9
F8FE  10 03     BPL $F903                       A:41 X:D8 Y:40 P:A4 SP:F9
F900  10 01     BPL $F903                       A:41 X:D8 Y:40 P:A4 SP:F9
F902  60        RTS                             A:41 X:D8 Y:40 P:A4 SP:F9
D7D0  E8        INX                             A:41 X:D8 Y:40 P:A4 SP:FB
D7D1  A9 00     LDA #$00                        A:41 X:D9 Y:40 P:A4 SP:FB
D7D3  8D 78 06  STA $0678                       A:00 X:D9 Y:40 P:26 SP:FB
D7D6  20 06 F9  JSR $F906                       A:00 X:D9 Y:40 P:26 SP:FB
F906  A0 80     LDY #$80                        A:00 X:D9 Y:40 P:26 SP:F9
F908  60        RTS                             A:00 X:D9 Y:80 P:A4 SP:F9
D7D9  CC 78 06  CPY $0678                       A:00 X:D9 Y:80 P:A4 SP:FB
D7DC  20 09 F9  JSR $F909                       A:00 X:D9 Y:80 P:A5 SP:FB
F909  F0 05     BEQ $F910                       A:00 X:D9 Y:80 P:A5 SP:F9
F90B  10 03     BPL $F910                       A:00 X:D9 Y:80 P:A5 SP:F9
F90D  90 01     BCC $F910                       A:00 X:D9 Y:80 P:A5 SP:F9
F90F  60        RTS                             A:00 X:D9 Y:80 P:A5 SP:F9
D7DF  E8        INX                             A:00 X:D9 Y:80 P:A5 SP:FB
D7E0  A9 80     LDA #$80                        A:00 X:DA Y:80 P:A5 SP:FB
D7E2  8D 78 06  STA $0678                       A:80 X:DA Y:80 P:A5 SP:FB
D7E5  CC 78 06  CPY $0678                       A:80 X:DA Y:80 P:A5 SP:FB
D7E8  20 13 F9  JSR $F913                       A:80 X:DA Y:80 P:27 SP:FB
F913  D0 05     BNE $F91A                       A:80 X:DA Y:80 P:27 SP:F9
F915  30 03     BMI $F91A                       A:80 X:DA Y:80 P:27 SP:F9
F917  90 01     BCC $F91A                       A:80 X:DA Y:80 P:27 SP:F9
F919  60        RTS                             A:80 X:DA Y:80 P:27 SP:F9
D7EB  E8        INX                             A:80 X:DA Y:80 P:27 SP:FB
D7EC  A9 81     LDA #$81                        A:80 X:DB Y:80 P:A5 SP:FB
D7EE  8D 78 06  STA $0678                       A:81 X:DB Y:80 P:A5 SP:FB
D7F1  CC 78 06  CPY $0678                       A:81 X:DB Y:80 P:A5 SP:FB
D7F4  20 1D F9  JSR $F91D                       A:81 X:DB Y:80 P:A4 SP:FB
F91D  B0 05     BCS $F924                       A:81 X:DB Y:80 P:A4 SP:F9
F91F  F0 03     BEQ $F924                       A:81 X:DB Y:80 P:A4 SP:F9
F921  10 01     BPL $F924                       A:81 X:DB Y:80 P:A4 SP:F9
F923  60        RTS                             A:81 X:DB Y:80 P:A4 SP:F9
D7F7  E8        INX                             A:81 X:DB Y:80 P:A4 SP:FB
D7F8  A9 7F     LDA #$7F                        A:81 X:DC Y:80 P:A4 SP:FB
D7FA  8D 78 06  STA $0678                       A:7F X:DC Y:80 P:24 SP:FB
D7FD  CC 78 06  CPY $0678                       A:7F X:DC Y:80 P:24 SP:FB
D800  20 27 F9  JSR $F927                       A:7F X:DC Y:80 P:25 SP:FB
F927  90 05     BCC $F92E                       A:7F X:DC Y:80 P:25 SP:F9
F929  F0 03     BEQ $F92E                       A:7F X:DC Y:80 P:25 SP:F9
F92B  30 01     BMI $F92E                       A:7F X:DC Y:80 P:25 SP:F9
F92D  60        RTS                             A:7F X:DC Y:80 P:25 SP:F9
D803  E8        INX                             A:7F X:DC Y:80 P:25 SP:FB
D804  8A        TXA                             A:7F X:DD Y:80 P:A5 SP:FB
D805  A8        TAY                             A:DD X:DD Y:80 P:A5 SP:FB
D806  20 90 F9  JSR $F990                       A:DD X:DD Y:DD P:A5 SP:FB
F990  A2 55     LDX #$55                        A:DD X:DD Y:DD P:A5 SP:F9
F992  A9 FF     LDA #$FF                        A:DD X:55 Y:DD P:25 SP:F9
F994  85 01     STA $01 = FF                    A:FF X:55 Y:DD P:A5 SP:F9
F996  EA        NOP                             A:FF X:55 Y:DD P:A5 SP:F9
F997  24 01     BIT $01 = FF                    A:FF X:55 Y:DD P:A5 SP:F9
F999  38        SEC                             A:FF X:55 Y:DD P:E5 SP:F9
F99A  A9 01     LDA #$01                        A:FF X:55 Y:DD P:E5 SP:F9
F99C  60        RTS                             A:01 X:55 Y:DD P:65 SP:F9
D809  8D 78 06  STA $0678                       A:01 X:55 Y:DD P:65 SP:FB
D80C  4E 78 06  LSR $0678                       A:01 X:55 Y:DD P:65 SP:FB
D80F  AD 78 06  LDA $0678                       A:01 X:55 Y:DD P:67 SP:FB
D812  20 9D F9  JSR $F99D                       A:00 X:55 Y:DD P:67 SP:FB
F99D  90 1B     BCC $F9BA                       A:00 X:55 Y:DD P:67 SP:F9
F99F  D0 19     BNE $F9BA                       A:00 X:55 Y:DD P:67 SP:F9
F9A1  30 17     BMI $F9BA                       A:00 X:55 Y:DD P:67 SP:F9
F9A3  50 15     BVC $F9BA                       A:00 X:55 Y:DD P:67 SP:F9
F9A5  C9 00     CMP #$00                        A:00 X:55 Y:DD P:67 SP:F9
F9A7  D0 11     BNE $F9BA                       A:00 X:55 Y:DD P:67 SP:F9
F9A9  B8        CLV                             A:00 X:55 Y:DD P:67 SP:F9
F9AA  A9 AA     LDA #$AA                        A:00 X:55 Y:DD P:27 SP:F9
F9AC  60        RTS                             A:AA X:55 Y:DD P:A5 SP:F9
D815  C8        INY                             A:AA X:55 Y:DD P:A5 SP:FB
D816  8D 78 06  STA $0678                       A:AA X:55 Y:DE P:A5 SP:FB
D819  4E 78 06  LSR $0678                       A:AA X:55 Y:DE P:A5 SP:FB
D81C  AD 78 06  LDA $0678                       A:AA X:55 Y:DE P:24 SP:FB
D81F  20 AD F9  JSR $F9AD                       A:55 X:55 Y:DE P:24 SP:FB
F9AD  B0 0B     BCS $F9BA                       A:55 X:55 Y:DE P:24 SP:F9
F9AF  F0 09     BEQ $F9BA                       A:55 X:55 Y:DE P:24 SP:F9
F9B1  30 07     BMI $F9BA                       A:55 X:55 Y:DE P:24 SP:F9
F9B3  70 05     BVS $F9BA                       A:55 X:55 Y:DE P:24 SP:F9
F9B5  C9 55     CMP #$55                        A:55 X:55 Y:DE P:24 SP:F9
F9B7  D0 01     BNE $F9BA                       A:55 X:55 Y:DE P:27 SP:F9
F9B9  60        RTS                             A:55 X:55 Y:DE P:27 SP:F9
D822  C8        INY                             A:55 X:55 Y:DE P:27 SP:FB
D823  20 BD F9  JSR $F9BD                       A:55 X:55 Y:DF P:A5 SP:FB
F9BD  24 01     BIT $01 = FF                    A:55 X:55 Y:DF P:A5 SP:F9
F9BF  38        SEC                             A:55 X:55 Y:DF P:E5 SP:F9
F9C0  A9 80     LDA #$80                        A:55 X:55 Y:DF P:E5 SP:F9
F9C2  60        RTS                             A:80 X:55 Y:DF P:E5 SP:F9
D826  8D 78 06  STA $0678                       A:80 X:55 Y:DF P:E5 SP:FB
D829  0E 78 06  ASL $0678                       A:80 X:55 Y:DF P:E5 SP:FB
D82C  AD 78 06  LDA $0678                       A:80 X:55 Y:DF P:67 SP:FB
D82F  20 C3 F9  JSR $F9C3                       A:00 X:55 Y:DF P:67 SP:FB
F9C3  90 1C     BCC $F9E1                       A:00 X:55 Y:DF P:67 SP:F9
F9C5  D0 1A     BNE $F9E1                       A:00 X:55 Y:DF P:67 SP:F9
F9C7  30 18     BMI $F9E1                       A:00 X:55 Y:DF P:67 SP:F9
F9C9  50 16     BVC $F9E1                       A:00 X:55 Y:DF P:67 SP:F9
F9CB  C9 00     CMP #$00                        A:00 X:55 Y:DF P:67 SP:F9
F9CD  D0 12     BNE $F9E1                       A:00 X:55 Y:DF P:67 SP:F9
F9CF  B8        CLV                             A:00 X:55 Y:DF P:67 SP:F9
F9D0  A9 55     LDA #$55                        A:00 X:55 Y:DF P:27 SP:F9
F9D2  38        SEC                             A:55 X:55 Y:DF P:25 SP:F9
F9D3  60        RTS                             A:55 X:55 Y:DF P:25 SP:F9
D832  C8        INY                             A:55 X:55 Y:DF P:25 SP:FB
D833  8D 78 06  STA $0678                       A:55 X:55 Y:E0 P:A5 SP:FB
D836  0E 78 06  ASL $0678                       A:55 X:55 Y:E0 P:A5 SP:FB
D839  AD 78 06  LDA $0678                       A:55 X:55 Y:E0 P:A4 SP:FB
D83C  20 D4 F9  JSR $F9D4                       A:AA X:55 Y:E0 P:A4 SP:FB
F9D4  B0 0B     BCS $F9E1                       A:AA X:55 Y:E0 P:A4 SP:F9
F9D6  F0 09     BEQ $F9E1                       A:AA X:55 Y:E0 P:A4 SP:F9
F9D8  10 07     BPL $F9E1                       A:AA X:55 Y:E0 P:A4 SP:F9
F9DA  70 05     BVS $F9E1                       A:AA X:55 Y:E0 P:A4 SP:F9
F9DC  C9 AA     CMP #$AA                        A:AA X:55 Y:E0 P:A4 SP:F9
F9DE  D0 01     BNE $F9E1                       A:AA X:55 Y:E0 P:27 SP:F9
F9E0  60        RTS                             A:AA X:55 Y:E0 P:27 SP:F9
D83F  C8        INY                             A:AA X:55 Y:E0 P:27 SP:FB
D840  20 E4 F9  JSR $F9E4                       A:AA X:55 Y:E1 P:A5 SP:FB
F9E4  24 01     BIT $01 = FF                    A:AA X:55 Y:E1 P:A5 SP:F9
F9E6  38        SEC                             A:AA X:55 Y:E1 P:E5 SP:F9
F9E7  A9 01     LDA #$01                        A:AA X:55 Y:E1 P:E5 SP:F9
F9E9  60        RTS                             A:01 X:55 Y:E1 P:65 SP:F9
D843  8D 78 06  STA $0678                       A:01 X:55 Y:E1 P:65 SP:FB
D846  6E 78 06  ROR $0678                       A:01 X:55 Y:E1 P:65 SP:FB
D849  AD 78 06  LDA $0678                       A:01 X:55 Y:E1 P:E5 SP:FB
D84C  20 EA F9  JSR $F9EA                       A:80 X:55 Y:E1 P:E5 SP:FB
F9EA  90 1C     BCC $FA08                       A:80 X:55 Y:E1 P:E5 SP:F9
F9EC  F0 1A     BEQ $FA08                       A:80 X:55 Y:E1 P:E5 SP:F9
F9EE  10 18     BPL $FA08                       A:80 X:55 Y:E1 P:E5 SP:F9
F9F0  50 16     BVC $FA08                       A:80 X:55 Y:E1 P:E5 SP:F9
F9F2  C9 80     CMP #$80                        A:80 X:55 Y:E1 P:E5 SP:F9
F9F4  D0 12     BNE $FA08                       A:80 X:55 Y:E1 P:67 SP:F9
F9F6  B8        CLV                             A:80 X:55 Y:E1 P:67 SP:F9
F9F7  18        CLC                             A:80 X:55 Y:E1 P:27 SP:F9
F9F8  A9 55     LDA #$55                        A:80 X:55 Y:E1 P:26 SP:F9
F9FA  60        RTS                             A:55 X:55 Y:E1 P:24 SP:F9
D84F  C8        INY                             A:55 X:55 Y:E1 P:24 SP:FB
D850  8D 78 06  STA $0678                       A:55 X:55 Y:E2 P:A4 SP:FB
D853  6E 78 06  ROR $0678                       A:55 X:55 Y:E2 P:A4 SP:FB
D856  AD 78 06  LDA $0678                       A:55 X:55 Y:E2 P:25 SP:FB
D859  20 FB F9  JSR $F9FB                       A:2A X:55 Y:E2 P:25 SP:FB
F9FB  90 0B     BCC $FA08                       A:2A X:55 Y:E2 P:25 SP:F9
F9FD  F0 09     BEQ $FA08                       A:2A X:55 Y:E2 P:25 SP:F9
F9FF  30 07     BMI $FA08                       A:2A X:55 Y:E2 P:25 SP:F9
FA01  70 05     BVS $FA08                       A:2A X:55 Y:E2 P:25 SP:F9
FA03  C9 2A     CMP #$2A                        A:2A X:55 Y:E2 P:25 SP:F9
FA05  D0 01     BNE $FA08                       A:2A X:55 Y:E2 P:27 SP:F9
FA07  60        RTS                             A:2A X:55 Y:E2 P:27 SP:F9
D85C  C8        INY                             A:2A X:55 Y:E2 P:27 SP:FB
D85D  20 0A FA  JSR $FA0A                       A:2A X:55 Y:E3 P:A5 SP:FB
FA0A  24 01     BIT $01 = FF                    A:2A X:55 Y:E3 P:A5 SP:F9
FA0C  38        SEC                             A:2A X:55 Y:E3 P:E5 SP:F9
FA0D  A9 80     LDA #$80                        A:2A X:55 Y:E3 P:E5 SP:F9
FA0F  60        RTS                             A:80 X:55 Y:E3 P:E5 SP:F9
D860  8D 78 06  STA $0678                       A:80 X:55 Y:E3 P:E5 SP:FB
D863  2E 78 06  ROL $0678                       A:80 X:55 Y:E3 P:E5 SP:FB
D866  AD 78 06  LDA $0678                       A:80 X:55 Y:E3 P:64 SP:FB
D869  20 10 FA  JSR $FA10                       A:80 X:55 Y:E3 P:E4 SP:FB
FA10  90 1C     BCC $FA2E                       A:80 X:55 Y:E3 P:E4 SP:F9
FA2E  84 00     STY $00 = FF                    A:80 X:55 Y:E3 P:E4 SP:F9
FA30  60        RTS                             A:80 X:55 Y:E3 P:E4 SP:F9
D86C  C8        INY                             A:80 X:55 Y:E3 P:E4 SP:FB
D86D  8D 78 06  STA $0678                       A:80 X:55 Y:E4 P:E4 SP:FB
D870  2E 78 06  ROL $0678                       A:80 X:55 Y:E4 P:E4 SP:FB
D873  AD 78 06  LDA $0678                       A:80 X:55 Y:E4 P:64 SP:FB
D876  20 21 FA  JSR $FA21                       A:80 X:55 Y:E4 P:E4 SP:FB
FA21  B0 0B     BCS $FA2E                       A:80 X:55 Y:E4 P:E4 SP:F9
FA23  F0 09     BEQ $FA2E                       A:80 X:55 Y:E4 P:E4 SP:F9
FA25  10 07     BPL $FA2E                       A:80 X:55 Y:E4 P:E4 SP:F9
FA27  70 05     BVS $FA2E                       A:80 X:55 Y:E4 P:E4 SP:F9
FA2E  84 00     STY $00 = E3                    A:80 X:55 Y:E4 P:E4 SP:F9
FA30  60        RTS                             A:80 X:55 Y:E4 P:E4 SP:F9
D879  A9 FF     LDA #$FF                        A:80 X:55 Y:E4 P:E4 SP:FB
D87B  8D 78 06  STA $0678                       A:FF X:55 Y:E4 P:E4 SP:FB
D87E  85 01     STA $01 = E4                    A:FF X:55 Y:E4 P:E4 SP:FB
D880  24 01     BIT $01 = FF                    A:FF X:55 Y:E4 P:E4 SP:FB
D882  38        SEC                             A:FF X:55 Y:E4 P:E4 SP:FB
D883  EE 78 06  INC $0678                       A:FF X:55 Y:E4 P:E5 SP:FB
D886  D0 0D     BNE $D895                       A:FF X:55 Y:E4 P:67 SP:FB
D888  30 0B     BMI $D895                       A:FF X:55 Y:E4 P:67 SP:FB
D88A  50 09     BVC $D895                       A:FF X:55 Y:E4 P:67 SP:FB
D88C  90 07     BCC $D895                       A:FF X:55 Y:E4 P:67 SP:FB
D88E  AD 78 06  LDA $0678                       A:FF X:55 Y:E4 P:67 SP:FB
D891  C9 00     CMP #$00                        A:00 X:55 Y:E4 P:67 SP:FB
D893  F0 04     BEQ $D899                       A:00 X:55 Y:E4 P:67 SP:FB
D899  A9 7F     LDA #$7F                        A:00 X:55 Y:E4 P:67 SP:FB
D89B  8D 78 06  STA $0678                       A:7F X:55 Y:E4 P:65 SP:FB
D89E  B8        CLV                             A:7F X:55 Y:E4 P:65 SP:FB
D89F  18        CLC                             A:7F X:55 Y:E4 P:25 SP:FB
D8A0  EE 78 06  INC $0678                       A:7F X:55 Y:E4 P:24 SP:FB
D8A3  F0 0D     BEQ $D8B2                       A:7F X:55 Y:E4 P:A4 SP:FB
D8A5  10 0B     BPL $D8B2                       A:7F X:55 Y:E4 P:A4 SP:FB
D8A7  70 09     BVS $D8B2                       A:7F X:55 Y:E4 P:A4 SP:FB
D8A9  B0 07     BCS $D8B2                       A:7F X:55 Y:E4 P:A4 SP:FB
D8AB  AD 78 06  LDA $0678                       A:7F X:55 Y:E4 P:A4 SP:FB
D8AE  C9 80     CMP #$80                        A:80 X:55 Y:E4 P:A4 SP:FB
D8B0  F0 04     BEQ $D8B6                       A:80 X:55 Y:E4 P:27 SP:FB
D8B6  A9 00     LDA #$00                        A:80 X:55 Y:E4 P:27 SP:FB
D8B8  8D 78 06  STA $0678                       A:00 X:55 Y:E4 P:27 SP:FB
D8BB  24 01     BIT $01 = FF                    A:00 X:55 Y:E4 P:27 SP:FB
D8BD  38        SEC                             A:00 X:55 Y:E4 P:E7 SP:FB
D8BE  CE 78 06  DEC $0678                       A:00 X:55 Y:E4 P:E7 SP:FB
D8C1  F0 0D     BEQ $D8D0                       A:00 X:55 Y:E4 P:E5 SP:FB
D8C3  10 0B     BPL $D8D0                       A:00 X:55 Y:E4 P:E5 SP:FB
D8C5  50 09     BVC $D8D0                       A:00 X:55 Y:E4 P:E5 SP:FB
D8C7  90 07     BCC $D8D0                       A:00 X:55 Y:E4 P:E5 SP:FB
D8C9  AD 78 06  LDA $0678                       A:00 X:55 Y:E4 P:E5 SP:FB
D8CC  C9 FF     CMP #$FF                        A:FF X:55 Y:E4 P:E5 SP:FB
D8CE  F0 04     BEQ $D8D4                       A:FF X:55 Y:E4 P:67 SP:FB
D8D4  A9 80     LDA #$80                        A:FF X:55 Y:E4 P:67 SP:FB
D8D6  8D 78 06  STA $0678                       A:80 X:55 Y:E4 P:E5 SP:FB
D8D9  B8        CLV                             A:80 X:55 Y:E4 P:E5 SP:FB
D8DA  18        CLC                             A:80 X:55 Y:E4 P:A5 SP:FB
D8DB  CE 78 06  DEC $0678                       A:80 X:55 Y:E4 P:A4 SP:FB
D8DE  F0 0D     BEQ $D8ED                       A:80 X:55 Y:E4 P:24 SP:FB
D8E0  30 0B     BMI $D8ED                       A:80 X:55 Y:E4 P:24 SP:FB
D8E2  70 09     BVS $D8ED                       A:80 X:55 Y:E4 P:24 SP:FB
D8E4  B0 07     BCS $D8ED                       A:80 X:55 Y:E4 P:24 SP:FB
D8E6  AD 78 06  LDA $0678                       A:80 X:55 Y:E4 P:24 SP:FB
D8E9  C9 7F     CMP #$7F                        A:7F X:55 Y:E4 P:24 SP:FB
D8EB  F0 04     BEQ $D8F1                       A:7F X:55 Y:E4 P:27 SP:FB
D8F1  A9 01     LDA #$01                        A:7F X:55 Y:E4 P:27 SP:FB
D8F3  8D 78 06  STA $0678                       A:01 X:55 Y:E4 P:25 SP:FB
D8F6  CE 78 06  DEC $0678                       A:01 X:55 Y:E4 P:25 SP:FB
D8F9  F0 04     BEQ $D8FF                       A:01 X:55 Y:E4 P:27 SP:FB
D8FF  60        RTS                             A:01 X:55 Y:E4 P:27 SP:FB
C618  20 00 D9  JSR $D900                       A:01 X:55 Y:E4 P:27 SP:FD
D900  A9 A3     LDA #$A3                        A:01 X:55 Y:E4 P:27 SP:FB
D902  85 33     STA $33 = FF                    A:A3 X:55 Y:E4 P:A5 SP:FB
D904  A9 89     LDA #$89                        A:A3 X:55 Y:E4 P:A5 SP:FB
D906  8D 00 03  STA $0300                       A:89 X:55 Y:E4 P:A5 SP:FB
D909  A9 12     LDA #$12                        A:89 X:55 Y:E4 P:A5 SP:FB
D90B  8D 45 02  STA $0245                       A:12 X:55 Y:E4 P:25 SP:FB
D90E  A9 FF     LDA #$FF                        A:12 X:55 Y:E4 P:25 SP:FB
D910  85 01     STA $01 = A3                    A:FF X:55 Y:E4 P:A5 SP:FB
D912  A2 65     LDX #$65                        A:FF X:55 Y:E4 P:A5 SP:FB
D914  A9 00     LDA #$00                        A:FF X:65 Y:E4 P:25 SP:FB
D916  85 89     STA $89 = FF                    A:00 X:65 Y:E4 P:27 SP:FB
D918  A9 03     LDA #$03                        A:00 X:65 Y:E4 P:27 SP:FB
D91A  85 8A     STA $8A = 00                    A:03 X:65 Y:E4 P:25 SP:FB
D91C  A0 00     LDY #$00                        A:03 X:65 Y:E4 P:25 SP:FB
D91E  38        SEC                             A:03 X:65 Y:00 P:27 SP:FB
D91F  A9 00     LDA #$00                        A:03 X:65 Y:00 P:27 SP:FB
D921  B8        CLV                             A:00 X:65 Y:00 P:27 SP:FB
D922  B1 89     LDA $89                         A:00 X:65 Y:00 P:27 SP:FB
D924  F0 0C     BEQ $D932                       A:89 X:65 Y:00 P:A5 SP:FB
D926  90 0A     BCC $D932                       A:89 X:65 Y:00 P:A5 SP:FB
D928  70 08     BVS $D932                       A:89 X:65 Y:00 P:A5 SP:FB
D92A  C9 89     CMP #$89                        A:89 X:65 Y:00 P:A5 SP:FB
D92C  D0 04     BNE $D932                       A:89 X:65 Y:00 P:27 SP:FB
D92E  E0 65     CPX #$65                        A:89 X:65 Y:00 P:27 SP:FB
D930  F0 04     BEQ $D936                       A:89 X:65 Y:00 P:27 SP:FB
D936  A9 FF     LDA #$FF                        A:89 X:65 Y:00 P:27 SP:FB
D938  85 97     STA $97 = 03                    A:FF X:65 Y:00 P:A5 SP:FB
D93A  85 98     STA $98 = FF                    A:FF X:65 Y:00 P:A5 SP:FB
D93C  24 98     BIT $98 = FF                    A:FF X:65 Y:00 P:A5 SP:FB
D93E  A0 34     LDY #$34                        A:FF X:65 Y:00 P:E5 SP:FB
D940  B1 97     LDA $97                         A:FF X:65 Y:34 P:65 SP:FB
D942  C9 A3     CMP #$A3                        A:6B X:65 Y:34 P:65 SP:FB
D944  D0 02     BNE $D948                       A:6B X:65 Y:34 P:E4 SP:FB
D948  A9 EB     LDA #$EB                        A:6B X:65 Y:34 P:E4 SP:FB
D94A  85 00     STA $00 = FF                    A:EB X:65 Y:34 P:E4 SP:FB
D94C  A5 00     LDA $00 = EB                    A:EB X:65 Y:34 P:E4 SP:FB
D94E  48        PHA                             A:EB X:65 Y:34 P:E4 SP:FB
D94F  A9 46     LDA #$46                        A:EB X:65 Y:34 P:E4 SP:FA
D951  85 FF     STA $FF = EB                    A:46 X:65 Y:34 P:64 SP:FA
D953  A9 01     LDA #$01                        A:46 X:65 Y:34 P:64 SP:FA
D955  85 00     STA $00 = 46                    A:01 X:65 Y:34 P:64 SP:FA
D957  A0 FF     LDY #$FF                        A:01 X:65 Y:34 P:64 SP:FA
D959  B1 FF     LDA $FF                         A:01 X:65 Y:FF P:E4 SP:FA
D95B  C9 12     CMP #$12                        A:00 X:65 Y:FF P:66 SP:FA
D95D  F0 04     BEQ $D963                       A:00 X:65 Y:FF P:E4 SP:FA
D95F  68        PLA                             A:00 X:65 Y:FF P:E4 SP:FA
D960  A9 EC     LDA #$EC                        A:EB X:65 Y:FF P:E4 SP:FB
D962  48        PHA                             A:EC X:65 Y:FF P:E4 SP:FB
D963  68        PLA                             A:EC X:65 Y:FF P:E4 SP:FA
D964  85 00     STA $00 = 01                    A:EC X:65 Y:FF P:E4 SP:FB
D966  A2 ED     LDX #$ED                        A:EC X:65 Y:FF P:E4 SP:FB
D968  A9 00     LDA #$00                        A:EC X:ED Y:FF P:E4 SP:FB
D96A  85 33     STA $33 = EC                    A:00 X:ED Y:FF P:66 SP:FB
D96C  A9 04     LDA #$04                        A:00 X:ED Y:FF P:66 SP:FB
D96E  85 34     STA $34 = 00                    A:04 X:ED Y:FF P:64 SP:FB
D970  A0 00     LDY #$00                        A:04 X:ED Y:FF P:64 SP:FB
D972  18        CLC                             A:04 X:ED Y:00 P:66 SP:FB
D973  A9 FF     LDA #$FF                        A:04 X:ED Y:00 P:66 SP:FB
D975  85 01     STA $01 = 04                    A:FF X:ED Y:00 P:E4 SP:FB
D977  24 01     BIT $01 = FF                    A:FF X:ED Y:00 P:E4 SP:FB
D979  A9 AA     LDA #$AA                        A:FF X:ED Y:00 P:E4 SP:FB
D97B  8D 00 04  STA $0400                       A:AA X:ED Y:00 P:E4 SP:FB
D97E  A9 55     LDA #$55                        A:AA X:ED Y:00 P:E4 SP:FB
D980  11 33     ORA $33                         A:55 X:ED Y:00 P:64 SP:FB
D982  B0 08     BCS $D98C                       A:FF X:ED Y:00 P:E4 SP:FB
D984  10 06     BPL $D98C                       A:FF X:ED Y:00 P:E4 SP:FB
D986  C9 FF     CMP #$FF                        A:FF X:ED Y:00 P:E4 SP:FB
D988  D0 02     BNE $D98C                       A:FF X:ED Y:00 P:67 SP:FB
D98A  70 02     BVS $D98E                       A:FF X:ED Y:00 P:67 SP:FB
D98E  E8        INX                             A:FF X:ED Y:00 P:67 SP:FB
D98F  38        SEC                             A:FF X:EE Y:00 P:E5 SP:FB
D990  B8        CLV                             A:FF X:EE Y:00 P:E5 SP:FB
D991  A9 00     LDA #$00                        A:FF X:EE Y:00 P:A5 SP:FB
D993  11 33     ORA $33                         A:00 X:EE Y:00 P:27 SP:FB
D995  F0 06     BEQ $D99D                       A:AA X:EE Y:00 P:A5 SP:FB
D997  70 04     BVS $D99D                       A:AA X:EE Y:00 P:A5 SP:FB
D999  90 02     BCC $D99D                       A:AA X:EE Y:00 P:A5 SP:FB
D99B  30 02     BMI $D99F                       A:AA X:EE Y:00 P:A5 SP:FB
D99F  E8        INX                             A:AA X:EE Y:00 P:A5 SP:FB
D9A0  18        CLC                             A:AA X:EF Y:00 P:A5 SP:FB
D9A1  24 01     BIT $01 = FF                    A:AA X:EF Y:00 P:A4 SP:FB
D9A3  A9 55     LDA #$55                        A:AA X:EF Y:00 P:E4 SP:FB
D9A5  31 33     AND $33                         A:55 X:EF Y:00 P:64 SP:FB
D9A7  D0 06     BNE $D9AF                       A:00 X:EF Y:00 P:66 SP:FB
D9A9  50 04     BVC $D9AF                       A:00 X:EF Y:00 P:66 SP:FB
D9AB  B0 02     BCS $D9AF                       A:00 X:EF Y:00 P:66 SP:FB
D9AD  10 02     BPL $D9B1                       A:00 X:EF Y:00 P:66 SP:FB
D9B1  E8        INX                             A:00 X:EF Y:00 P:66 SP:FB
D9B2  38        SEC                             A:00 X:F0 Y:00 P:E4 SP:FB
D9B3  B8        CLV                             A:00 X:F0 Y:00 P:E5 SP:FB
D9B4  A9 EF     LDA #$EF                        A:00 X:F0 Y:00 P:A5 SP:FB
D9B6  8D 00 04  STA $0400                       A:EF X:F0 Y:00 P:A5 SP:FB
D9B9  A9 F8     LDA #$F8                        A:EF X:F0 Y:00 P:A5 SP:FB
D9BB  31 33     AND $33                         A:F8 X:F0 Y:00 P:A5 SP:FB
D9BD  90 08     BCC $D9C7                       A:E8 X:F0 Y:00 P:A5 SP:FB
D9BF  10 06     BPL $D9C7                       A:E8 X:F0 Y:00 P:A5 SP:FB
D9C1  C9 E8     CMP #$E8                        A:E8 X:F0 Y:00 P:A5 SP:FB
D9C3  D0 02     BNE $D9C7                       A:E8 X:F0 Y:00 P:27 SP:FB
D9C5  50 02     BVC $D9C9                       A:E8 X:F0 Y:00 P:27 SP:FB
D9C9  E8        INX                             A:E8 X:F0 Y:00 P:27 SP:FB
D9CA  18        CLC                             A:E8 X:F1 Y:00 P:A5 SP:FB
D9CB  24 01     BIT $01 = FF                    A:E8 X:F1 Y:00 P:A4 SP:FB
D9CD  A9 AA     LDA #$AA                        A:E8 X:F1 Y:00 P:E4 SP:FB
D9CF  8D 00 04  STA $0400                       A:AA X:F1 Y:00 P:E4 SP:FB
D9D2  A9 5F     LDA #$5F                        A:AA X:F1 Y:00 P:E4 SP:FB
D9D4  51 33     EOR $33                         A:5F X:F1 Y:00 P:64 SP:FB
D9D6  B0 08     BCS $D9E0                       A:F5 X:F1 Y:00 P:E4 SP:FB
D9D8  10 06     BPL $D9E0                       A:F5 X:F1 Y:00 P:E4 SP:FB
D9DA  C9 F5     CMP #$F5                        A:F5 X:F1 Y:00 P:E4 SP:FB
D9DC  D0 02     BNE $D9E0                       A:F5 X:F1 Y:00 P:67 SP:FB
D9DE  70 02     BVS $D9E2                       A:F5 X:F1 Y:00 P:67 SP:FB
D9E2  E8        INX                             A:F5 X:F1 Y:00 P:67 SP:FB
D9E3  38        SEC                             A:F5 X:F2 Y:00 P:E5 SP:FB
D9E4  B8        CLV                             A:F5 X:F2 Y:00 P:E5 SP:FB
D9E5  A9 70     LDA #$70                        A:F5 X:F2 Y:00 P:A5 SP:FB
D9E7  8D 00 04  STA $0400                       A:70 X:F2 Y:00 P:25 SP:FB
D9EA  51 33     EOR $33                         A:70 X:F2 Y:00 P:25 SP:FB
D9EC  D0 06     BNE $D9F4                       A:00 X:F2 Y:00 P:27 SP:FB
D9EE  70 04     BVS $D9F4                       A:00 X:F2 Y:00 P:27 SP:FB
D9F0  90 02     BCC $D9F4                       A:00 X:F2 Y:00 P:27 SP:FB
D9F2  10 02     BPL $D9F6                       A:00 X:F2 Y:00 P:27 SP:FB
D9F6  E8        INX                             A:00 X:F2 Y:00 P:27 SP:FB
D9F7  18        CLC                             A:00 X:F3 Y:00 P:A5 SP:FB
D9F8  24 01     BIT $01 = FF                    A:00 X:F3 Y:00 P:A4 SP:FB
D9FA  A9 69     LDA #$69                        A:00 X:F3 Y:00 P:E6 SP:FB
D9FC  8D 00 04  STA $0400                       A:69 X:F3 Y:00 P:64 SP:FB
D9FF  A9 00     LDA #$00                        A:69 X:F3 Y:00 P:64 SP:FB
DA01  71 33     ADC $33                         A:00 X:F3 Y:00 P:66 SP:FB
DA03  30 08     BMI $DA0D                       A:69 X:F3 Y:00 P:24 SP:FB
DA05  B0 06     BCS $DA0D                       A:69 X:F3 Y:00 P:24 SP:FB
DA07  C9 69     CMP #$69                        A:69 X:F3 Y:00 P:24 SP:FB
DA09  D0 02     BNE $DA0D                       A:69 X:F3 Y:00 P:27 SP:FB
DA0B  50 02     BVC $DA0F                       A:69 X:F3 Y:00 P:27 SP:FB
DA0F  E8        INX                             A:69 X:F3 Y:00 P:27 SP:FB
DA10  38        SEC                             A:69 X:F4 Y:00 P:A5 SP:FB
DA11  24 01     BIT $01 = FF                    A:69 X:F4 Y:00 P:A5 SP:FB
DA13  A9 00     LDA #$00                        A:69 X:F4 Y:00 P:E5 SP:FB
DA15  71 33     ADC $33                         A:00 X:F4 Y:00 P:67 SP:FB
DA17  30 08     BMI $DA21                       A:6A X:F4 Y:00 P:24 SP:FB
DA19  B0 06     BCS $DA21                       A:6A X:F4 Y:00 P:24 SP:FB
DA1B  C9 6A     CMP #$6A                        A:6A X:F4 Y:00 P:24 SP:FB
DA1D  D0 02     BNE $DA21                       A:6A X:F4 Y:00 P:27 SP:FB
DA1F  50 02     BVC $DA23                       A:6A X:F4 Y:00 P:27 SP:FB
DA23  E8        INX                             A:6A X:F4 Y:00 P:27 SP:FB
DA24  38        SEC                             A:6A X:F5 Y:00 P:A5 SP:FB
DA25  B8        CLV                             A:6A X:F5 Y:00 P:A5 SP:FB
DA26  A9 7F     LDA #$7F                        A:6A X:F5 Y:00 P:A5 SP:FB
DA28  8D 00 04  STA $0400                       A:7F X:F5 Y:00 P:25 SP:FB
DA2B  71 33     ADC $33                         A:7F X:F5 Y:00 P:25 SP:FB
DA2D  10 08     BPL $DA37                       A:FF X:F5 Y:00 P:E4 SP:FB
DA2F  B0 06     BCS $DA37                       A:FF X:F5 Y:00 P:E4 SP:FB
DA31  C9 FF     CMP #$FF                        A:FF X:F5 Y:00 P:E4 SP:FB
DA33  D0 02     BNE $DA37                       A:FF X:F5 Y:00 P:67 SP:FB
DA35  70 02     BVS $DA39                       A:FF X:F5 Y:00 P:67 SP:FB
DA39  E8        INX                             A:FF X:F5 Y:00 P:67 SP:FB
DA3A  18        CLC                             A:FF X:F6 Y:00 P:E5 SP:FB
DA3B  24 01     BIT $01 = FF                    A:FF X:F6 Y:00 P:E4 SP:FB
DA3D  A9 80     LDA #$80                        A:FF X:F6 Y:00 P:E4 SP:FB
DA3F  8D 00 04  STA $0400                       A:80 X:F6 Y:00 P:E4 SP:FB
DA42  A9 7F     LDA #$7F                        A:80 X:F6 Y:00 P:E4 SP:FB
DA44  71 33     ADC $33                         A:7F X:F6 Y:00 P:64 SP:FB
DA46  10 08     BPL $DA50                       A:FF X:F6 Y:00 P:A4 SP:FB
DA48  B0 06     BCS $DA50                       A:FF X:F6 Y:00 P:A4 SP:FB
DA4A  C9 FF     CMP #$FF                        A:FF X:F6 Y:00 P:A4 SP:FB
DA4C  D0 02     BNE $DA50                       A:FF X:F6 Y:00 P:27 SP:FB
DA4E  50 02     BVC $DA52                       A:FF X:F6 Y:00 P:27 SP:FB
DA52  E8        INX                             A:FF X:F6 Y:00 P:27 SP:FB
DA53  38        SEC                             A:FF X:F7 Y:00 P:A5 SP:FB
DA54  B8        CLV                             A:FF X:F7 Y:00 P:A5 SP:FB
DA55  A9 80     LDA #$80                        A:FF X:F7 Y:00 P:A5 SP:FB
DA57  8D 00 04  STA $0400                       A:80 X:F7 Y:00 P:A5 SP:FB
DA5A  A9 7F     LDA #$7F                        A:80 X:F7 Y:00 P:A5 SP:FB
DA5C  71 33     ADC $33                         A:7F X:F7 Y:00 P:25 SP:FB
DA5E  D0 06     BNE $DA66                       A:00 X:F7 Y:00 P:27 SP:FB
DA60  30 04     BMI $DA66                       A:00 X:F7 Y:00 P:27 SP:FB
DA62  70 02     BVS $DA66                       A:00 X:F7 Y:00 P:27 SP:FB
DA64  B0 02     BCS $DA68                       A:00 X:F7 Y:00 P:27 SP:FB
DA68  E8        INX                             A:00 X:F7 Y:00 P:27 SP:FB
DA69  24 01     BIT $01 = FF                    A:00 X:F8 Y:00 P:A5 SP:FB
DA6B  A9 40     LDA #$40                        A:00 X:F8 Y:00 P:E7 SP:FB
DA6D  8D 00 04  STA $0400                       A:40 X:F8 Y:00 P:65 SP:FB
DA70  D1 33     CMP $33                         A:40 X:F8 Y:00 P:65 SP:FB
DA72  30 06     BMI $DA7A                       A:40 X:F8 Y:00 P:67 SP:FB
DA74  90 04     BCC $DA7A                       A:40 X:F8 Y:00 P:67 SP:FB
DA76  D0 02     BNE $DA7A                       A:40 X:F8 Y:00 P:67 SP:FB
DA78  70 02     BVS $DA7C                       A:40 X:F8 Y:00 P:67 SP:FB
DA7C  E8        INX                             A:40 X:F8 Y:00 P:67 SP:FB
DA7D  B8        CLV                             A:40 X:F9 Y:00 P:E5 SP:FB
DA7E  CE 00 04  DEC $0400                       A:40 X:F9 Y:00 P:A5 SP:FB
DA81  D1 33     CMP $33                         A:40 X:F9 Y:00 P:25 SP:FB
DA83  F0 06     BEQ $DA8B                       A:40 X:F9 Y:00 P:25 SP:FB
DA85  30 04     BMI $DA8B                       A:40 X:F9 Y:00 P:25 SP:FB
DA87  90 02     BCC $DA8B                       A:40 X:F9 Y:00 P:25 SP:FB
DA89  50 02     BVC $DA8D                       A:40 X:F9 Y:00 P:25 SP:FB
DA8D  E8        INX                             A:40 X:F9 Y:00 P:25 SP:FB
DA8E  EE 00 04  INC $0400                       A:40 X:FA Y:00 P:A5 SP:FB
DA91  EE 00 04  INC $0400                       A:40 X:FA Y:00 P:25 SP:FB
DA94  D1 33     CMP $33                         A:40 X:FA Y:00 P:25 SP:FB
DA96  F0 02     BEQ $DA9A                       A:40 X:FA Y:00 P:A4 SP:FB
DA98  30 02     BMI $DA9C                       A:40 X:FA Y:00 P:A4 SP:FB
DA9C  E8        INX                             A:40 X:FA Y:00 P:A4 SP:FB
DA9D  A9 00     LDA #$00                        A:40 X:FB Y:00 P:A4 SP:FB
DA9F  8D 00 04  STA $0400                       A:00 X:FB Y:00 P:26 SP:FB
DAA2  A9 80     LDA #$80                        A:00 X:FB Y:00 P:26 SP:FB
DAA4  D1 33     CMP $33                         A:80 X:FB Y:00 P:A4 SP:FB
DAA6  F0 04     BEQ $DAAC                       A:80 X:FB Y:00 P:A5 SP:FB
DAA8  10 02     BPL $DAAC                       A:80 X:FB Y:00 P:A5 SP:FB
DAAA  B0 02     BCS $DAAE                       A:80 X:FB Y:00 P:A5 SP:FB
DAAE  E8        INX                             A:80 X:FB Y:00 P:A5 SP:FB
DAAF  A0 80     LDY #$80                        A:80 X:FC Y:00 P:A5 SP:FB
DAB1  8C 00 04  STY $0400                       A:80 X:FC Y:80 P:A5 SP:FB
DAB4  A0 00     LDY #$00                        A:80 X:FC Y:80 P:A5 SP:FB
DAB6  D1 33     CMP $33                         A:80 X:FC Y:00 P:27 SP:FB
DAB8  D0 04     BNE $DABE                       A:80 X:FC Y:00 P:27 SP:FB
DABA  30 02     BMI $DABE                       A:80 X:FC Y:00 P:27 SP:FB
DABC  B0 02     BCS $DAC0                       A:80 X:FC Y:00 P:27 SP:FB
DAC0  E8        INX                             A:80 X:FC Y:00 P:27 SP:FB
DAC1  EE 00 04  INC $0400                       A:80 X:FD Y:00 P:A5 SP:FB
DAC4  D1 33     CMP $33                         A:80 X:FD Y:00 P:A5 SP:FB
DAC6  B0 04     BCS $DACC                       A:80 X:FD Y:00 P:A4 SP:FB
DAC8  F0 02     BEQ $DACC                       A:80 X:FD Y:00 P:A4 SP:FB
DACA  30 02     BMI $DACE                       A:80 X:FD Y:00 P:A4 SP:FB
DACE  E8        INX                             A:80 X:FD Y:00 P:A4 SP:FB
DACF  CE 00 04  DEC $0400                       A:80 X:FE Y:00 P:A4 SP:FB
DAD2  CE 00 04  DEC $0400                       A:80 X:FE Y:00 P:A4 SP:FB
DAD5  D1 33     CMP $33                         A:80 X:FE Y:00 P:24 SP:FB
DAD7  90 04     BCC $DADD                       A:80 X:FE Y:00 P:25 SP:FB
DAD9  F0 02     BEQ $DADD                       A:80 X:FE Y:00 P:25 SP:FB
DADB  10 02     BPL $DADF                       A:80 X:FE Y:00 P:25 SP:FB
DADF  60        RTS                             A:80 X:FE Y:00 P:25 SP:FB
C61B  A5 00     LDA $00 = FF                    A:80 X:FE Y:00 P:25 SP:FD
C61D  85 10     STA $10 = EC                    A:EC X:FE Y:00 P:A5 SP:FD
C61F  A9 00     LDA #$00                        A:EC X:FE Y:00 P:A5 SP:FD
C621  85 00     STA $00 = EC                    A:00 X:FE Y:00 P:27 SP:FD
C623  20 E0 DA  JSR $DAE0                       A:00 X:FE Y:00 P:27 SP:FD
DAE0  A9 00     LDA #$00                        A:00 X:FE Y:00 P:27 SP:FB
DAE2  85 33     STA $33 = 00                    A:00 X:FE Y:00 P:27 SP:FB
DAE4  A9 04     LDA #$04                        A:00 X:FE Y:00 P:27 SP:FB
DAE6  85 34     STA $34 = 00                    A:04 X:FE Y:00 P:25 SP:FB
DAE8  A0 00     LDY #$00                        A:04 X:FE Y:00 P:25 SP:FB
DAEA  A2 01     LDX #$01                        A:04 X:FE Y:00 P:27 SP:FB
DAEC  24 01     BIT $01 = 04                    A:04 X:01 Y:00 P:25 SP:FB
DAEE  A9 40     LDA #$40                        A:04 X:01 Y:00 P:E5 SP:FB
DAF0  8D 00 04  STA $0400                       A:40 X:01 Y:00 P:65 SP:FB
DAF3  38        SEC                             A:40 X:01 Y:00 P:65 SP:FB
DAF4  F1 33     SBC $33                         A:40 X:01 Y:00 P:65 SP:FB
DAF6  30 0A     BMI $DB02                       A:00 X:01 Y:00 P:27 SP:FB
DAF8  90 08     BCC $DB02                       A:00 X:01 Y:00 P:27 SP:FB
DAFA  D0 06     BNE $DB02                       A:00 X:01 Y:00 P:27 SP:FB
DAFC  70 04     BVS $DB02                       A:00 X:01 Y:00 P:27 SP:FB
DAFE  C9 00     CMP #$00                        A:00 X:01 Y:00 P:27 SP:FB
DB00  F0 02     BEQ $DB04                       A:00 X:01 Y:00 P:27 SP:FB
DB04  E8        INX                             A:00 X:01 Y:00 P:27 SP:FB
DB05  B8        CLV                             A:00 X:02 Y:00 P:25 SP:FB
DB06  38        SEC                             A:00 X:02 Y:00 P:25 SP:FB
DB07  A9 40     LDA #$40                        A:00 X:02 Y:00 P:25 SP:FB
DB09  CE 00 04  DEC $0400                       A:40 X:02 Y:00 P:25 SP:FB
DB0C  F1 33     SBC $33                         A:40 X:02 Y:00 P:25 SP:FB
DB0E  F0 0A     BEQ $DB1A                       A:01 X:02 Y:00 P:25 SP:FB
DB10  30 08     BMI $DB1A                       A:01 X:02 Y:00 P:25 SP:FB
DB12  90 06     BCC $DB1A                       A:01 X:02 Y:00 P:25 SP:FB
DB14  70 04     BVS $DB1A                       A:01 X:02 Y:00 P:25 SP:FB
DB16  C9 01     CMP #$01                        A:01 X:02 Y:00 P:25 SP:FB
DB18  F0 02     BEQ $DB1C                       A:01 X:02 Y:00 P:27 SP:FB
DB1C  E8        INX                             A:01 X:02 Y:00 P:27 SP:FB
DB1D  A9 40     LDA #$40                        A:01 X:03 Y:00 P:25 SP:FB
DB1F  38        SEC                             A:40 X:03 Y:00 P:25 SP:FB
DB20  24 01     BIT $01 = FF                    A:40 X:03 Y:00 P:25 SP:FB
DB22  EE 00 04  INC $0400                       A:40 X:03 Y:00 P:E5 SP:FB
DB25  EE 00 04  INC $0400                       A:40 X:03 Y:00 P:65 SP:FB
DB28  F1 33     SBC $33                         A:40 X:03 Y:00 P:65 SP:FB
DB2A  B0 0A     BCS $DB36                       A:FF X:03 Y:00 P:A4 SP:FB
DB2C  F0 08     BEQ $DB36                       A:FF X:03 Y:00 P:A4 SP:FB
DB2E  10 06     BPL $DB36                       A:FF X:03 Y:00 P:A4 SP:FB
DB30  70 04     BVS $DB36                       A:FF X:03 Y:00 P:A4 SP:FB
DB32  C9 FF     CMP #$FF                        A:FF X:03 Y:00 P:A4 SP:FB
DB34  F0 02     BEQ $DB38                       A:FF X:03 Y:00 P:27 SP:FB
DB38  E8        INX                             A:FF X:03 Y:00 P:27 SP:FB
DB39  18        CLC                             A:FF X:04 Y:00 P:25 SP:FB
DB3A  A9 00     LDA #$00                        A:FF X:04 Y:00 P:24 SP:FB
DB3C  8D 00 04  STA $0400                       A:00 X:04 Y:00 P:26 SP:FB
DB3F  A9 80     LDA #$80                        A:00 X:04 Y:00 P:26 SP:FB
DB41  F1 33     SBC $33                         A:80 X:04 Y:00 P:A4 SP:FB
DB43  90 04     BCC $DB49                       A:7F X:04 Y:00 P:65 SP:FB
DB45  C9 7F     CMP #$7F                        A:7F X:04 Y:00 P:65 SP:FB
DB47  F0 02     BEQ $DB4B                       A:7F X:04 Y:00 P:67 SP:FB
DB4B  E8        INX                             A:7F X:04 Y:00 P:67 SP:FB
DB4C  38        SEC                             A:7F X:05 Y:00 P:65 SP:FB
DB4D  A9 7F     LDA #$7F                        A:7F X:05 Y:00 P:65 SP:FB
DB4F  8D 00 04  STA $0400                       A:7F X:05 Y:00 P:65 SP:FB
DB52  A9 81     LDA #$81                        A:7F X:05 Y:00 P:65 SP:FB
DB54  F1 33     SBC $33                         A:81 X:05 Y:00 P:E5 SP:FB
DB56  50 06     BVC $DB5E                       A:02 X:05 Y:00 P:65 SP:FB
DB58  90 04     BCC $DB5E                       A:02 X:05 Y:00 P:65 SP:FB
DB5A  C9 02     CMP #$02                        A:02 X:05 Y:00 P:65 SP:FB
DB5C  F0 02     BEQ $DB60                       A:02 X:05 Y:00 P:67 SP:FB
DB60  E8        INX                             A:02 X:05 Y:00 P:67 SP:FB
DB61  A9 00     LDA #$00                        A:02 X:06 Y:00 P:65 SP:FB
DB63  A9 87     LDA #$87                        A:00 X:06 Y:00 P:67 SP:FB
DB65  91 33     STA $33                         A:87 X:06 Y:00 P:E5 SP:FB
DB67  AD 00 04  LDA $0400                       A:87 X:06 Y:00 P:E5 SP:FB
DB6A  C9 87     CMP #$87                        A:87 X:06 Y:00 P:E5 SP:FB
DB6C  F0 02     BEQ $DB70                       A:87 X:06 Y:00 P:67 SP:FB
DB70  E8        INX                             A:87 X:06 Y:00 P:67 SP:FB
DB71  A9 7E     LDA #$7E                        A:87 X:07 Y:00 P:65 SP:FB
DB73  8D 00 02  STA $0200                       A:7E X:07 Y:00 P:65 SP:FB
DB76  A9 DB     LDA #$DB                        A:7E X:07 Y:00 P:65 SP:FB
DB78  8D 01 02  STA $0201                       A:DB X:07 Y:00 P:E5 SP:FB
DB7B  6C JMPA:DB X:07 Y:00 P:E5 SP:FB
DB7E  A9 00     LDA #$00                        A:DB X:07 Y:00 P:E5 SP:FB
DB80  8D FF 02  STA $02FF                       A:00 X:07 Y:00 P:67 SP:FB
DB83  A9 01     LDA #$01                        A:00 X:07 Y:00 P:67 SP:FB
DB85  8D 00 03  STA $0300                       A:01 X:07 Y:00 P:65 SP:FB
DB88  A9 03     LDA #$03                        A:01 X:07 Y:00 P:65 SP:FB
DB8A  8D 00 02  STA $0200                       A:03 X:07 Y:00 P:65 SP:FB
DB8D  A9 A9     LDA #$A9                        A:03 X:07 Y:00 P:65 SP:FB
DB8F  8D 00 01  STA $0100                       A:A9 X:07 Y:00 P:E5 SP:FB
DB92  A9 55     LDA #$55                        A:A9 X:07 Y:00 P:E5 SP:FB
DB94  8D 01 01  STA $0101                       A:55 X:07 Y:00 P:65 SP:FB
DB97  A9 60     LDA #$60                        A:55 X:07 Y:00 P:65 SP:FB
DB99  8D 02 01  STA $0102                       A:60 X:07 Y:00 P:65 SP:FB
DB9C  A9 A9     LDA #$A9                        A:60 X:07 Y:00 P:65 SP:FB
DB9E  8D 00 03  STA $0300                       A:A9 X:07 Y:00 P:E5 SP:FB
DBA1  A9 AA     LDA #$AA                        A:A9 X:07 Y:00 P:E5 SP:FB
DBA3  8D 01 03  STA $0301                       A:AA X:07 Y:00 P:E5 SP:FB
DBA6  A9 60     LDA #$60                        A:AA X:07 Y:00 P:E5 SP:FB
DBA8  8D 02 03  STA $0302                       A:60 X:07 Y:00 P:65 SP:FB
DBAB  20 B5 DB  JSR $DBB5                       A:60 X:07 Y:00 P:65 SP:FB
DBB5  6C JMPA:60 X:07 Y:00 P:65 SP:F9
A900  00        BRK                             A:60 X:07 Y:00 P:65 SP:F9
A901  00        BRK                             A:60 X:07 Y:00 P:75 SP:F9
A902  00        BRK                             A:60 X:07 Y:00 P:75 SP:F9
A903  00        BRK                             A:60 X:07 Y:00 P:75 SP:F9
A904  00        BRK                             A:60 X:07 Y:00 P:75 SP:F9
A905  00        BRK                             A:60 X:07 Y:00 P:75 SP:F9
A906  00        BRK                             A:60 X:07 Y:00 P:75 SP:F9
A907  00        BRK                             A:60 X:07 Y:00 P:75 SP:F9
A908  00        BRK                             A:60 X:07 Y:00 P:75 SP:F9
A909  00        BRK                             A:60 X:07 Y:00 P:75 SP:F9
A90A  00        BRK                             A:60 X:07 Y:00 P:75 SP:F9
A90B  00        BRK                             A:60 X:07 Y:00 P:75 SP:F9
A90C  00        BRK                             A:60 X:07 Y:00 P:75 SP:F9
A90D  00        BRK                             A:60 X:07 Y:00 P:75 SP:F9
A90E  00        BRK                             A:60 X:07 Y:00 P:75 SP:F9
A90F  00        BRK                             A:60 X:07 Y:00 P:75 SP:F9
A910  00        BRK                             A:60 X:07 Y:00 P:75 SP:F9
A911  00        BRK                             A:60 X:07 Y:00 P:75 SP:F9
A912  00        BRK                             A:60 X:07 Y:00 P:75 SP:F9
A913  00        BRK                             A:60 X:07 Y:00 P:75 SP:F9
A914  00        BRK                             A:60 X:07 Y:00 P:75 SP:F9
A915  00        BRK                             A:60 X:07 Y:00 P:75 SP:F9
A916  00        BRK                             A:60 X:07 Y:00 P:75 SP:F9
A917  00        BRK                             A:60 X:07 Y:00 P:75 SP:F9
A918  00        BRK                             A:60 X:07 Y:00 P:75 SP:F9
A919  00        BRK                             A:60 X:07 Y:00 P:75 SP:F9
A91A  00        BRK                             A:60 X:07 Y:00 P:75 SP:F9
A91B  00        BRK                             A:60 X:07 Y:00 P:75 SP:F9
A91C  00        BRK                             A:60 X:07 Y:00 P:75 SP:F9
A91D  00        BRK                             A:60 X:07 Y:00 P:75 SP:F9
A91E  00        BRK                             A:60 X:07 Y:00 P:75 SP:F9
A91F  00        BRK                             A:60 X:07 Y:00 P:75 SP:F9
A920  00        BRK                             A:60 X:07 Y:00 P:75 SP:F9
A921  00        BRK                             A:60 X:07 Y:00 P:75 SP:F9
A922  00        BRK                             A:60 X:07 Y:00 P:75 SP:F9
A923  00        BRK                             A:60 X:07 Y:00 P:75 SP:F9
A924  00        BRK                             A:60 X:07 Y:00 P:75 SP:F9
A925  00        BRK                             A:60 X:07 Y:00 P:75 SP:F9
A926  00        BRK                             A:60 X:07 Y:00 P:75 SP:F9
A927  00        BRK                             A:60 X:07 Y:00 P:75 SP:F9
A928  00        BRK                             A:60 X:07 Y:00 P:75 SP:F9
A929  00        BRK                             A:60 X:07 Y:00 P:75 SP:F9
A92A  00        BRK                             A:60 X:07 Y:00 P:75 SP:F9
A92B  00        BRK                             A:60 X:07 Y:00 P:75 SP:F9
A92C  00        BRK                             A:60 X:07 Y:00 P:75 SP:F9
A92D  00        BRK                             A:60 X:07 Y:00 P:75 SP:F9
A92E  00        BRK                             A:60 X:07 Y:00 P:75 SP:F9
A92F  00        BRK                             A:60 X:07 Y:00 P:75 SP:F9
A930  00        BRK                             A:60 X:07 Y:00 P:75 SP:F9
A931  00        BRK                             A:60 X:07 Y:00 P:75 SP:F9
A932  00        BRK                             A:60 X:07 Y:00 P:75 SP:F9
A933  00        BRK                             A:60 X:07 Y:00 P:75 SP:F9
A934  00        BRK                             A:60 X:07 Y:00 P:75 SP:F9
A935  00        BRK                             A:60 X:07 Y:00 P:75 SP:F9
A936  00        BRK                             A:60 X:07 Y:00 P:75 SP:F9
A937  00        BRK                             A:60 X:07 Y:00 P:75 SP:F9
A938  00        BRK                             A:60 X:07 Y:00 P:75 SP:F9
A939  00        BRK                             A:60 X:07 Y:00 P:75 SP:F9
A93A  00        BRK                             A:60 X:07 Y:00 P:75 SP:F9
A93B  00        BRK                             A:60 X:07 Y:00 P:75 SP:F9
A93C  00        BRK                             A:60 X:07 Y:00 P:75 SP:F9
A93D  00        BRK                             A:60 X:07 Y:00 P:75 SP:F9
A93E  00        BRK                             A:60 X:07 Y:00 P:75 SP:F9
A93F  00        BRK                             A:60 X:07 Y:00 P:75 SP:F9
A940  00        BRK                             A:60 X:07 Y:00 P:75 SP:F9
A941  00        BRK                             A:60 X:07 Y:00 P:75 SP:F9
A942  00        BRK                             A:60 X:07 Y:00 P:75 SP:F9
A943  00        BRK                             A:60 X:07 Y:00 P:75 SP:F9
A944  00        BRK                             A:60 X:07 Y:00 P:75 SP:F9
A945  00        BRK                             A:60 X:07 Y:00 P:75 SP:F9
A946  00        BRK                             A:60 X:07 Y:00 P:75 SP:F9
A947  00        BRK                             A:60 X:07 Y:00 P:75 SP:F9
A948  00        BRK                             A:60 X:07 Y:00 P:75 SP:F9
A949  00        BRK                             A:60 X:07 Y:00 P:75 SP:F9
A94A  00        BRK                             A:60 X:07 Y:00 P:75 SP:F9
A94B  00        BRK                             A:60 X:07 Y:00 P:75 SP:F9
A94C  00        BRK                             A:60 X:07 Y:00 P:75 SP:F9
A94D  00        BRK                             A:60 X:07 Y:00 P:75 SP:F9
A94E  00        BRK                             A:60 X:07 Y:00 P:75 SP:F9
A94F  00        BRK                             A:60 X:07 Y:00 P:75 SP:F9
A950  00        BRK                             A:60 X:07 Y:00 P:75 SP:F9
A951  00        BRK                             A:60 X:07 Y:00 P:75 SP:F9
A952  00        BRK                             A:60 X:07 Y:00 P:75 SP:F9
A953  00        BRK                             A:60 X:07 Y:00 P:75 SP:F9
A954  00        BRK                             A:60 X:07 Y:00 P:75 SP:F9
A955  00        BRK                             A:60 X:07 Y:00 P:75 SP:F9
A956  00        BRK                             A:60 X:07 Y:00 P:75 SP:F9
A957  00        BRK                             A:60 X:07 Y:00 P:75 SP:F9
A958  00        BRK                             A:60 X:07 Y:00 P:75 SP:F9
A959  00        BRK                             A:60 X:07 Y:00 P:75 SP:F9
A95A  00        BRK                             A:60 X:07 Y:00 P:75 SP:F9
A95B  00        BRK                             A:60 X:07 Y:00 P:75 SP:F9
A95C  00        BRK                             A:60 X:07 Y:00 P:75 SP:F9
A95D  00        BRK                             A:60 X:07 Y:00 P:75 SP:F9
A95E  00        BRK                             A:60 X:07 Y:00 P:75 SP:F9
A95F  00        BRK                             A:60 X:07 Y:00 P:75 SP:F9
A960  00        BRK                             A:60 X:07 Y:00 P:75 SP:F9
A961  00        BRK                             A:60 X:07 Y:00 P:75 SP:F9
A962  00        BRK                             A:60 X:07 Y:00 P:75 SP:F9
A963  00        BRK                             A:60 X:07 Y:00 P:75 SP:F9
A964  00        BRK                             A:60 X:07 Y:00 P:75 SP:F9
A965  00        BRK                             A:60 X:07 Y:00 P:75 SP:F9
A966  00        BRK                             A:60 X:07 Y:00 P:75 SP:F9
A967  00        BRK                             A:60 X:07 Y:00 P:75 SP:F9
A968  00        BRK                             A:60 X:07 Y:00 P:75 SP:F9
A969  00        BRK                             A:60 X:07 Y:00 P:75 SP:F9
A96A  00        BRK                             A:60 X:07 Y:00 P:75 SP:F9
A96B  00        BRK                             A:60 X:07 Y:00 P:75 SP:F9
A96C  00        BRK                             A:60 X:07 Y:00 P:75 SP:F9
A96D  00        BRK                             A:60 X:07 Y:00 P:75 SP:F9
A96E  00        BRK                             A:60 X:07 Y:00 P:75 SP:F9
A96F  00        BRK                             A:60 X:07 Y:00 P:75 SP:F9
A970  00        BRK                             A:60 X:07 Y:00 P:75 SP:F9
A971  00        BRK                             A:60 X:07 Y:00 P:75 SP:F9
A972  00        BRK                             A:60 X:07 Y:00 P:75 SP:F9
A973  00        BRK                             A:60 X:07 Y:00 P:75 SP:F9
A974  00        BRK                             A:60 X:07 Y:00 P:75 SP:F9
A975  00        BRK                             A:60 X:07 Y:00 P:75 SP:F9
A976  00        BRK                             A:60 X:07 Y:00 P:75 SP:F9
A977  00        BRK                             A:60 X:07 Y:00 P:75 SP:F9
A978  00        BRK                             A:60 X:07 Y:00 P:75 SP:F9
A979  00        BRK                             A:60 X:07 Y:00 P:75 SP:F9
A97A  00        BRK                             A:60 X:07 Y:00 P:75 SP:F9
A97B  00        BRK                             A:60 X:07 Y:00 P:75 SP:F9
A97C  00        BRK                             A:60 X:07 Y:00 P:75 SP:F9
A97D  00        BRK                             A:60 X:07 Y:00 P:75 SP:F9
A97E  00        BRK                             A:60 X:07 Y:00 P:75 SP:F9
A97F  00        BRK                             A:60 X:07 Y:00 P:75 SP:F9
A980  00        BRK                             A:60 X:07 Y:00 P:75 SP:F9
A981  00        BRK                             A:60 X:07 Y:00 P:75 SP:F9
A982  00        BRK                             A:60 X:07 Y:00 P:75 SP:F9
A983  00        BRK                             A:60 X:07 Y:00 P:75 SP:F9
A984  00        BRK                             A:60 X:07 Y:00 P:75 SP:F9
A985  00        BRK                             A:60 X:07 Y:00 P:75 SP:F9
A986  00        BRK                             A:60 X:07 Y:00 P:75 SP:F9
A987  00        BRK                             A:60 X:07 Y:00 P:75 SP:F9
A988  00        BRK                             A:60 X:07 Y:00 P:75 SP:F9
A989  00        BRK                             A:60 X:07 Y:00 P:75 SP:F9
A98A  00        BRK                             A:60 X:07 Y:00 P:75 SP:F9
A98B  00        BRK                             A:60 X:07 Y:00 P:75 SP:F9
A98C  00        BRK                             A:60 X:07 Y:00 P:75 SP:F9
A98D  00        BRK                             A:60 X:07 Y:00 P:75 SP:F9
A98E  00        BRK                             A:60 X:07 Y:00 P:75 SP:F9
A98F  00        BRK                             A:60 X:07 Y:00 P:75 SP:F9
A990  00        BRK                             A:60 X:07 Y:00 P:75 SP:F9
A991  00        BRK                             A:60 X:07 Y:00 P:75 SP:F9
A992  00        BRK                             A:60 X:07 Y:00 P:75 SP:F9
A993  00        BRK                             A:60 X:07 Y:00 P:75 SP:F9
A994  00        BRK                             A:60 X:07 Y:00 P:75 SP:F9
A995  00        BRK                             A:60 X:07 Y:00 P:75 SP:F9
A996  00        BRK                             A:60 X:07 Y:00 P:75 SP:F9
A997  00        BRK                             A:60 X:07 Y:00 P:75 SP:F9
A998  00        BRK                             A:60 X:07 Y:00 P:75 SP:F9
A999  00        BRK                             A:60 X:07 Y:00 P:75 SP:F9
A99A  00        BRK                             A:60 X:07 Y:00 P:75 SP:F9
A99B  00        BRK                             A:60 X:07 Y:00 P:75 SP:F9
A99C  00        BRK                             A:60 X:07 Y:00 P:75 SP:F9
A99D  00        BRK                             A:60 X:07 Y:00 P:75 SP:F9
A99E  00        BRK                             A:60 X:07 Y:00 P:75 SP:F9
A99F  00        BRK                             A:60 X:07 Y:00 P:75 SP:F9
A9A0  00        BRK                             A:60 X:07 Y:00 P:75 SP:F9
A9A1  00        BRK                             A:60 X:07 Y:00 P:75 SP:F9
A9A2  00        BRK                             A:60 X:07 Y:00 P:75 SP:F9
A9A3  00        BRK                             A:60 X:07 Y:00 P:75 SP:F9
A9A4  00        BRK                             A:60 X:07 Y:00 P:75 SP:F9
A9A5  00        BRK                             A:60 X:07 Y:00 P:75 SP:F9
A9A6  00        BRK                             A:60 X:07 Y:00 P:75 SP:F9
A9A7  00        BRK                             A:60 X:07 Y:00 P:75 SP:F9
A9A8  00        BRK                             A:60 X:07 Y:00 P:75 SP:F9
A9A9  00        BRK                             A:60 X:07 Y:00 P:75 SP:F9
A9AA  00        BRK                             A:60 X:07 Y:00 P:75 SP:F9
A9AB  00        BRK                             A:60 X:07 Y:00 P:75 SP:F9
A9AC  00        BRK                             A:60 X:07 Y:00 P:75 SP:F9
A9AD  00        BRK                             A:60 X:07 Y:00 P:75 SP:F9
A9AE  00        BRK                             A:60 X:07 Y:00 P:75 SP:F9
A9AF  00        BRK                             A:60 X:07 Y:00 P:75 SP:F9
A9B0  00        BRK                             A:60 X:07 Y:00 P:75 SP:F9
A9B1  00        BRK                             A:60 X:07 Y:00 P:75 SP:F9
A9B2  00        BRK                             A:60 X:07 Y:00 P:75 SP:F9
A9B3  00        BRK                             A:60 X:07 Y:00 P:75 SP:F9
A9B4  00        BRK                             A:60 X:07 Y:00 P:75 SP:F9
A9B5  00        BRK                             A:60 X:07 Y:00 P:75 SP:F9
A9B6  00        BRK                             A:60 X:07 Y:00 P:75 SP:F9
A9B7  00        BRK                             A:60 X:07 Y:00 P:75 SP:F9
A9B8  00        BRK                             A:60 X:07 Y:00 P:75 SP:F9
A9B9  00        BRK                             A:60 X:07 Y:00 P:75 SP:F9
A9BA  00        BRK                             A:60 X:07 Y:00 P:75 SP:F9
A9BB  00        BRK                             A:60 X:07 Y:00 P:75 SP:F9
A9BC  00        BRK                             A:60 X:07 Y:00 P:75 SP:F9
A9BD  00        BRK                             A:60 X:07 Y:00 P:75 SP:F9
A9BE  00        BRK                             A:60 X:07 Y:00 P:75 SP:F9
A9BF  00        BRK                             A:60 X:07 Y:00 P:75 SP:F9
A9C0  00        BRK                             A:60 X:07 Y:00 P:75 SP:F9
A9C1  00        BRK                             A:60 X:07 Y:00 P:75 SP:F9
A9C2  00        BRK                             A:60 X:07 Y:00 P:75 SP:F9
A9C3  00        BRK                             A:60 X:07 Y:00 P:75 SP:F9
A9C4  00        BRK                             A:60 X:07 Y:00 P:75 SP:F9
A9C5  00        BRK                             A:60 X:07 Y:00 P:75 SP:F9
A9C6  00        BRK                             A:60 X:07 Y:00 P:75 SP:F9
A9C7  00        BRK                             A:60 X:07 Y:00 P:75 SP:F9
A9C8  00        BRK                             A:60 X:07 Y:00 P:75 SP:F9
A9C9  00        BRK                             A:60 X:07 Y:00 P:75 SP:F9
A9CA  00        BRK                             A:60 X:07 Y:00 P:75 SP:F9
A9CB  00        BRK                             A:60 X:07 Y:00 P:75 SP:F9
A9CC  00        BRK                             A:60 X:07 Y:00 P:75 SP:F9
A9CD  00        BRK                             A:60 X:07 Y:00 P:75 SP:F9
A9CE  00        BRK                             A:60 X:07 Y:00 P:75 SP:F9
A9CF  00        BRK                             A:60 X:07 Y:00 P:75 SP:F9
A9D0  00        BRK                             A:60 X:07 Y:00 P:75 SP:F9
A9D1  00        BRK                             A:60 X:07 Y:00 P:75 SP:F9
A9D2  00        BRK                             A:60 X:07 Y:00 P:75 SP:F9
A9D3  00        BRK                             A:60 X:07 Y:00 P:75 SP:F9
A9D4  00        BRK                             A:60 X:07 Y:00 P:75 SP:F9
A9D5  00        BRK                             A:60 X:07 Y:00 P:75 SP:F9
A9D6  00        BRK                             A:60 X:07 Y:00 P:75 SP:F9
A9D7  00        BRK                             A:60 X:07 Y:00 P:75 SP:F9
A9D8  00        BRK                             A:60 X:07 Y:00 P:75 SP:F9
A9D9  00        BRK                             A:60 X:07 Y:00 P:75 SP:F9
A9DA  00        BRK                             A:60 X:07 Y:00 P:75 SP:F9
A9DB  00        BRK                             A:60 X:07 Y:00 P:75 SP:F9
A9DC  00        BRK                             A:60 X:07 Y:00 P:75 SP:F9
A9DD  00        BRK                             A:60 X:07 Y:00 P:75 SP:F9
A9DE  00        BRK                             A:60 X:07 Y:00 P:75 SP:F9
A9DF  00        BRK                             A:60 X:07 Y:00 P:75 SP:F9
A9E0  00        BRK                             A:60 X:07 Y:00 P:75 SP:F9
A9E1  00        BRK                             A:60 X:07 Y:00 P:75 SP:F9
A9E2  00        BRK                             A:60 X:07 Y:00 P:75 SP:F9
A9E3  00        BRK                             A:60 X:07 Y:00 P:75 SP:F9
A9E4  00        BRK                             A:60 X:07 Y:00 P:75 SP:F9
A9E5  00        BRK                             A:60 X:07 Y:00 P:75 SP:F9
A9E6  00        BRK                             A:60 X:07 Y:00 P:75 SP:F9
A9E7  00        BRK                             A:60 X:07 Y:00 P:75 SP:F9
A9E8  00        BRK                             A:60 X:07 Y:00 P:75 SP:F9
A9E9  00        BRK                             A:60 X:07 Y:00 P:75 SP:F9
A9EA  00        BRK                             A:60 X:07 Y:00 P:75 SP:F9
A9EB  00        BRK                             A:60 X:07 Y:00 P:75 SP:F9
A9EC  00        BRK                             A:60 X:07 Y:00 P:75 SP:F9
A9ED  00        BRK                             A:60 X:07 Y:00 P:75 SP:F9
A9EE  00        BRK                             A:60 X:07 Y:00 P:75 SP:F9
A9EF  00        BRK                             A:60 X:07 Y:00 P:75 SP:F9
A9F0  00        BRK                             A:60 X:07 Y:00 P:75 SP:F9
A9F1  00        BRK                             A:60 X:07 Y:00 P:75 SP:F9
A9F2  00        BRK                             A:60 X:07 Y:00 P:75 SP:F9
A9F3  00        BRK                             A:60 X:07 Y:00 P:75 SP:F9
A9F4  00        BRK                             A:60 X:07 Y:00 P:75 SP:F9
A9F5  00        BRK                             A:60 X:07 Y:00 P:75 SP:F9
A9F6  00        BRK                             A:60 X:07 Y:00 P:75 SP:F9
A9F7  00        BRK                             A:60 X:07 Y:00 P:75 SP:F9
A9F8  00        BRK                             A:60 X:07 Y:00 P:75 SP:F9
A9F9  00        BRK                             A:60 X:07 Y:00 P:75 SP:F9
A9FA  00        BRK                             A:60 X:07 Y:00 P:75 SP:F9
A9FB  00        BRK                             A:60 X:07 Y:00 P:75 SP:F9
A9FC  00        BRK                             A:60 X:07 Y:00 P:75 SP:F9
A9FD  00        BRK                             A:60 X:07 Y:00 P:75 SP:F9
A9FE  00        BRK                             A:60 X:07 Y:00 P:75 SP:F9
A9FF  00        BRK                             A:60 X:07 Y:00 P:75 SP:F9
AA00  00        BRK                             A:60 X:07 Y:00 P:75 SP:F9
AA01  00        BRK                             A:60 X:07 Y:00 P:75 SP:F9
AA02  00        BRK                             A:60 X:07 Y:00 P:75 SP:F9
AA03  00        BRK                             A:60 X:07 Y:00 P:75 SP:F9
AA04  00        BRK                             A:60 X:07 Y:00 P:75 SP:F9
AA05  00        BRK                             A:60 X:07 Y:00 P:75 SP:F9
AA06  00        BRK                             A:60 X:07 Y:00 P:75 SP:F9
AA07  00        BRK                             A:60 X:07 Y:00 P:75 SP:F9
AA08  00        BRK                             A:60 X:07 Y:00 P:75 SP:F9
AA09  00        BRK                             A:60 X:07 Y:00 P:75 SP:F9
AA0A  00        BRK                             A:60 X:07 Y:00 P:75 SP:F9
AA0B  00        BRK                             A:60 X:07 Y:00 P:75 SP:F9
AA0C  00        BRK                             A:60 X:07 Y:00 P:75 SP:F9
AA0D  00        BRK                             A:60 X:07 Y:00 P:75 SP:F9
AA0E  00        BRK                             A:60 X:07 Y:00 P:75 SP:F9
AA0F  00        BRK                             A:60 X:07 Y:00 P:75 SP:F9
AA10  00        BRK                             A:60 X:07 Y:00 P:75 SP:F9
AA11  00        BRK                             A:60 X:07 Y:00 P:75 SP:F9
AA12  00        BRK                             A:60 X:07 Y:00 P:75 SP:F9
AA13  00        BRK                             A:60 X:07 Y:00 P:75 SP:F9
AA14  00        BRK                             A:60 X:07 Y:00 P:75 SP:F9
AA15  00        BRK                             A:60 X:07 Y:00 P:75 SP:F9
AA16  00        BRK                             A:60 X:07 Y:00 P:75 SP:F9
AA17  00        BRK                             A:60 X:07 Y:00 P:75 SP:F9
AA18  00        BRK                             A:60 X:07 Y:00 P:75 SP:F9
AA19  00        BRK                             A:60 X:07 Y:00 P:75 SP:F9
AA1A  00        BRK                             A:60 X:07 Y:00 P:75 SP:F9
AA1B  00        BRK                             A:60 X:07 Y:00 P:75 SP:F9
AA1C  00        BRK                             A:60 X:07 Y:00 P:75 SP:F9
AA1D  00        BRK                             A:60 X:07 Y:00 P:75 SP:F9
AA1E  00        BRK                             A:60 X:07 Y:00 P:75 SP:F9
AA1F  00        BRK                             A:60 X:07 Y:00 P:75 SP:F9
AA20  00        BRK                             A:60 X:07 Y:00 P:75 SP:F9
AA21  00        BRK                             A:60 X:07 Y:00 P:75 SP:F9
AA22  00        BRK                             A:60 X:07 Y:00 P:75 SP:F9
AA23  00        BRK                             A:60 X:07 Y:00 P:75 SP:F9
AA24  00        BRK                             A:60 X:07 Y:00 P:75 SP:F9
AA25  00        BRK                             A:60 X:07 Y:00 P:75 SP:F9
AA26  00        BRK                             A:60 X:07 Y:00 P:75 SP:F9
AA27  00        BRK                             A:60 X:07 Y:00 P:75 SP:F9
AA28  00        BRK                             A:60 X:07 Y:00 P:75 SP:F9
AA29  00        BRK                             A:60 X:07 Y:00 P:75 SP:F9
AA2A  00        BRK                             A:60 X:07 Y:00 P:75 SP:F9
AA2B  00        BRK                             A:60 X:07 Y:00 P:75 SP:F9
AA2C  00        BRK                             A:60 X:07 Y:00 P:75 SP:F9
AA2D  00        BRK                             A:60 X:07 Y:00 P:75 SP:F9
AA2E  00        BRK                             A:60 X:07 Y:00 P:75 SP:F9
AA2F  00        BRK                             A:60 X:07 Y:00 P:75 SP:F9
AA30  00        BRK                             A:60 X:07 Y:00 P:75 SP:F9
AA31  00        BRK                             A:60 X:07 Y:00 P:75 SP:F9
AA32  00        BRK                             A:60 X:07 Y:00 P:75 SP:F9
AA33  00        BRK                             A:60 X:07 Y:00 P:75 SP:F9
AA34  00        BRK                             A:60 X:07 Y:00 P:75 SP:F9
AA35  00        BRK                             A:60 X:07 Y:00 P:75 SP:F9
AA36  00        BRK                             A:60 X:07 Y:00 P:75 SP:F9
AA37  00        BRK                             A:60 X:07 Y:00 P:75 SP:F9
AA38  00        BRK                             A:60 X:07 Y:00 P:75 SP:F9
AA39  00        BRK                             A:60 X:07 Y:00 P:75 SP:F9
AA3A  00        BRK                             A:60 X:07 Y:00 P:75 SP:F9
AA3B  00        BRK                             A:60 X:07 Y:00 P:75 SP:F9
AA3C  00        BRK                             A:60 X:07 Y:00 P:75 SP:F9
AA3D  00        BRK                             A:60 X:07 Y:00 P:75 SP:F9
AA3E  00        BRK                             A:60 X:07 Y:00 P:75 SP:F9
AA3F  00        BRK                             A:60 X:07 Y:00 P:75 SP:F9
AA40  00        BRK                             A:60 X:07 Y:00 P:75 SP:F9
AA41  00        BRK                             A:60 X:07 Y:00 P:75 SP:F9
AA42  00        BRK                             A:60 X:07 Y:00 P:75 SP:F9
AA43  00        BRK                             A:60 X:07 Y:00 P:75 SP:F9
AA44  00        BRK                             A:60 X:07 Y:00 P:75 SP:F9
AA45  00        BRK                             A:60 X:07 Y:00 P:75 SP:F9
AA46  00        BRK                             A:60 X:07 Y:00 P:75 SP:F9
AA47  00        BRK                             A:60 X:07 Y:00 P:75 SP:F9
AA48  00        BRK                             A:60 X:07 Y:00 P:75 SP:F9
AA49  00        BRK                             A:60 X:07 Y:00 P:75 SP:F9
AA4A  00        BRK                             A:60 X:07 Y:00 P:75 SP:F9
AA4B  00        BRK                             A:60 X:07 Y:00 P:75 SP:F9
AA4C  00        BRK                             A:60 X:07 Y:00 P:75 SP:F9
AA4D  00        BRK                             A:60 X:07 Y:00 P:75 SP:F9
AA4E  00        BRK                             A:60 X:07 Y:00 P:75 SP:F9
AA4F  00        BRK                             A:60 X:07 Y:00 P:75 SP:F9
AA50  00        BRK                             A:60 X:07 Y:00 P:75 SP:F9
AA51  00        BRK                             A:60 X:07 Y:00 P:75 SP:F9
AA52  00        BRK                             A:60 X:07 Y:00 P:75 SP:F9
AA53  00        BRK                             A:60 X:07 Y:00 P:75 SP:F9
AA54  00        BRK                             A:60 X:07 Y:00 P:75 SP:F9
AA55  00        BRK                             A:60 X:07 Y:00 P:75 SP:F9
AA56  00        BRK                             A:60 X:07 Y:00 P:75 SP:F9
AA57  00        BRK                             A:60 X:07 Y:00 P:75 SP:F9
AA58  00        BRK                             A:60 X:07 Y:00 P:75 SP:F9
AA59  00        BRK                             A:60 X:07 Y:00 P:75 SP:F9
AA5A  00        BRK                             A:60 X:07 Y:00 P:75 SP:F9
AA5B  00        BRK                             A:60 X:07 Y:00 P:75 SP:F9
AA5C  00        BRK                             A:60 X:07 Y:00 P:75 SP:F9
AA5D  00        BRK                             A:60 X:07 Y:00 P:75 SP:F9
AA5E  00        BRK                             A:60 X:07 Y:00 P:75 SP:F9
AA5F  00        BRK                             A:60 X:07 Y:00 P:75 SP:F9
AA60  00        BRK                             A:60 X:07 Y:00 P:75 SP:F9
AA61  00        BRK                             A:60 X:07 Y:00 P:75 SP:F9
AA62  00        BRK                             A:60 X:07 Y:00 P:75 SP:F9
AA63  00        BRK                             A:60 X:07 Y:00 P:75 SP:F9
AA64  00        BRK                             A:60 X:07 Y:00 P:75 SP:F9
AA65  00        BRK                             A:60 X:07 Y:00 P:75 SP:F9
AA66  00        BRK                             A:60 X:07 Y:00 P:75 SP:F9
AA67  00        BRK                             A:60 X:07 Y:00 P:75 SP:F9
AA68  00        BRK                             A:60 X:07 Y:00 P:75 SP:F9
AA69  00        BRK                             A:60 X:07 Y:00 P:75 SP:F9
AA6A  00        BRK                             A:60 X:07 Y:00 P:75 SP:F9
AA6B  00        BRK                             A:60 X:07 Y:00 P:75 SP:F9
AA6C  00        BRK                             A:60 X:07 Y:00 P:75 SP:F9
AA6D  00        BRK                             A:60 X:07 Y:00 P:75 SP:F9
AA6E  00        BRK                             A:60 X:07 Y:00 P:75 SP:F9
AA6F  00        BRK                             A:60 X:07 Y:00 P:75 SP:F9
AA70  00        BRK                             A:60 X:07 Y:00 P:75 SP:F9
AA71  00        BRK                             A:60 X:07 Y:00 P:75 SP:F9
AA72  00        BRK                             A:60 X:07 Y:00 P:75 SP:F9
AA73  00        BRK                             A:60 X:07 Y:00 P:75 SP:F9
AA74  00        BRK                             A:60 X:07 Y:00 P:75 SP:F9
AA75  00        BRK                             A:60 X:07 Y:00 P:75 SP:F9
AA76  00        BRK                             A:60 X:07 Y:00 P:75 SP:F9
AA77  00        BRK                             A:60 X:07 Y:00 P:75 SP:F9
AA78  00        BRK                             A:60 X:07 Y:00 P:75 SP:F9
AA79  00        BRK                             A:60 X:07 Y:00 P:75 SP:F9
AA7A  00        BRK                             A:60 X:07 Y:00 P:75 SP:F9
AA7B  00        BRK                             A:60 X:07 Y:00 P:75 SP:F9
AA7C  00        BRK                             A:60 X:07 Y:00 P:75 SP:F9
AA7D  00        BRK                             A:60 X:07 Y:00 P:75 SP:F9
AA7E  00        BRK                             A:60 X:07 Y:00 P:75 SP:F9
AA7F  00        BRK                             A:60 X:07 Y:00 P:75 SP:F9
AA80  00        BRK                             A:60 X:07 Y:00 P:75 SP:F9
AA81  00        BRK                             A:60 X:07 Y:00 P:75 SP:F9
AA82  00        BRK                             A:60 X:07 Y:00 P:75 SP:F9
AA83  00        BRK                             A:60 X:07 Y:00 P:75 SP:F9
AA84  00        BRK                             A:60 X:07 Y:00 P:75 SP:F9
AA85  00        BRK                             A:60 X:07 Y:00 P:75 SP:F9
AA86  00        BRK                             A:60 X:07 Y:00 P:75 SP:F9
AA87  00        BRK                             A:60 X:07 Y:00 P:75 SP:F9
AA88  00        BRK                             A:60 X:07 Y:00 P:75 SP:F9
AA89  00        BRK                             A:60 X:07 Y:00 P:75 SP:F9
AA8A  00        BRK                             A:60 X:07 Y:00 P:75 SP:F9
AA8B  00        BRK                             A:60 X:07 Y:00 P:75 SP:F9
AA8C  00        BRK                             A:60 X:07 Y:00 P:75 SP:F9
AA8D  00        BRK                             A:60 X:07 Y:00 P:75 SP:F9
AA8E  00        BRK                             A:60 X:07 Y:00 P:75 SP:F9
AA8F  00        BRK                             A:60 X:07 Y:00 P:75 SP:F9
AA90  00        BRK                             A:60 X:07 Y:00 P:75 SP:F9
AA91  00        BRK                             A:60 X:07 Y:00 P:75 SP:F9
AA92  00        BRK                             A:60 X:07 Y:00 P:75 SP:F9
AA93  00        BRK                             A:60 X:07 Y:00 P:75 SP:F9
AA94  00        BRK                             A:60 X:07 Y:00 P:75 SP:F9
AA95  00        BRK                             A:60 X:07 Y:00 P:75 SP:F9
AA96  00        BRK                             A:60 X:07 Y:00 P:75 SP:F9
AA97  00        BRK                             A:60 X:07 Y:00 P:75 SP:F9
AA98  00        BRK                             A:60 X:07 Y:00 P:75 SP:F9
AA99  00        BRK                             A:60 X:07 Y:00 P:75 SP:F9
AA9A  00        BRK                             A:60 X:07 Y:00 P:75 SP:F9
AA9B  00        BRK                             A:60 X:07 Y:00 P:75 SP:F9
AA9C  00        BRK                             A:60 X:07 Y:00 P:75 SP:F9
AA9D  00        BRK                             A:60 X:07 Y:00 P:75 SP:F9
AA9E  00        BRK                             A:60 X:07 Y:00 P:75 SP:F9
AA9F  00        BRK                             A:60 X:07 Y:00 P:75 SP:F9
AAA0  00        BRK                             A:60 X:07 Y:00 P:75 SP:F9
AAA1  00        BRK                             A:60 X:07 Y:00 P:75 SP:F9
AAA2  00        BRK                             A:60 X:07 Y:00 P:75 SP:F9
AAA3  00        BRK                             A:60 X:07 Y:00 P:75 SP:F9
AAA4  00        BRK                             A:60 X:07 Y:00 P:75 SP:F9
AAA5  00        BRK                             A:60 X:07 Y:00 P:75 SP:F9
AAA6  00        BRK                             A:60 X:07 Y:00 P:75 SP:F9
AAA7  00        BRK                             A:60 X:07 Y:00 P:75 SP:F9
AAA8  00        BRK                             A:60 X:07 Y:00 P:75 SP:F9
AAA9  00        BRK                             A:60 X:07 Y:00 P:75 SP:F9
AAAA  00        BRK                             A:60 X:07 Y:00 P:75 SP:F9
AAAB  00        BRK                             A:60 X:07 Y:00 P:75 SP:F9
AAAC  00        BRK                             A:60 X:07 Y:00 P:75 SP:F9
AAAD  00        BRK                             A:60 X:07 Y:00 P:75 SP:F9
AAAE  00        BRK                             A:60 X:07 Y:00 P:75 SP:F9
AAAF  00        BRK                             A:60 X:07 Y:00 P:75 SP:F9
AAB0  00        BRK                             A:60 X:07 Y:00 P:75 SP:F9
AAB1  00        BRK                             A:60 X:07 Y:00 P:75 SP:F9
AAB2  00        BRK                             A:60 X:07 Y:00 P:75 SP:F9
AAB3  00        BRK                             A:60 X:07 Y:00 P:75 SP:F9
AAB4  00        BRK                             A:60 X:07 Y:00 P:75 SP:F9
AAB5  00        BRK                             A:60 X:07 Y:00 P:75 SP:F9
AAB6  00        BRK                             A:60 X:07 Y:00 P:75 SP:F9
AAB7  00        BRK                             A:60 X:07 Y:00 P:75 SP:F9
AAB8  00        BRK                             A:60 X:07 Y:00 P:75 SP:F9
AAB9  00        BRK                             A:60 X:07 Y:00 P:75 SP:F9
AABA  00        BRK                             A:60 X:07 Y:00 P:75 SP:F9
AABB  00        BRK                             A:60 X:07 Y:00 P:75 SP:F9
AABC  00        BRK                             A:60 X:07 Y:00 P:75 SP:F9
AABD  00        BRK                             A:60 X:07 Y:00 P:75 SP:F9
AABE  00        BRK                             A:60 X:07 Y:00 P:75 SP:F9
AABF  00        BRK                             A:60 X:07 Y:00 P:75 SP:F9
AAC0  00        BRK                             A:60 X:07 Y:00 P:75 SP:F9
AAC1  00        BRK                             A:60 X:07 Y:00 P:75 SP:F9
AAC2  00        BRK                             A:60 X:07 Y:00 P:75 SP:F9
AAC3  00        BRK                             A:60 X:07 Y:00 P:75 SP:F9
AAC4  00        BRK                             A:60 X:07 Y:00 P:75 SP:F9
AAC5  00        BRK                             A:60 X:07 Y:00 P:75 SP:F9
AAC6  00        BRK                             A:60 X:07 Y:00 P:75 SP:F9
AAC7  00        BRK                             A:60 X:07 Y:00 P:75 SP:F9
AAC8  00        BRK                             A:60 X:07 Y:00 P:75 SP:F9
AAC9  00        BRK                             A:60 X:07 Y:00 P:75 SP:F9
AACA  00        BRK                             A:60 X:07 Y:00 P:75 SP:F9
AACB  00        BRK                             A:60 X:07 Y:00 P:75 SP:F9
AACC  00        BRK                             A:60 X:07 Y:00 P:75 SP:F9
AACD  00        BRK                             A:60 X:07 Y:00 P:75 SP:F9
AACE  00        BRK                             A:60 X:07 Y:00 P:75 SP:F9
AACF  00        BRK                             A:60 X:07 Y:00 P:75 SP:F9
AAD0  00        BRK                             A:60 X:07 Y:00 P:75 SP:F9
AAD1  00        BRK                             A:60 X:07 Y:00 P:75 SP:F9
AAD2  00        BRK                             A:60 X:07 Y:00 P:75 SP:F9
AAD3  00        BRK                             A:60 X:07 Y:00 P:75 SP:F9
AAD4  00        BRK                             A:60 X:07 Y:00 P:75 SP:F9
AAD5  00        BRK                             A:60 X:07 Y:00 P:75 SP:F9
AAD6  00        BRK                             A:60 X:07 Y:00 P:75 SP:F9
AAD7  00        BRK                             A:60 X:07 Y:00 P:75 SP:F9
AAD8  00        BRK                             A:60 X:07 Y:00 P:75 SP:F9
AAD9  00        BRK                             A:60 X:07 Y:00 P:75 SP:F9
AADA  00        BRK                             A:60 X:07 Y:00 P:75 SP:F9
AADB  00        BRK                             A:60 X:07 Y:00 P:75 SP:F9
AADC  00        BRK                             A:60 X:07 Y:00 P:75 SP:F9
AADD  00        BRK                             A:60 X:07 Y:00 P:75 SP:F9
AADE  00        BRK                             A:60 X:07 Y:00 P:75 SP:F9
AADF  00        BRK                             A:60 X:07 Y:00 P:75 SP:F9
AAE0  00        BRK                             A:60 X:07 Y:00 P:75 SP:F9
AAE1  00        BRK                             A:60 X:07 Y:00 P:75 SP:F9
AAE2  00        BRK                             A:60 X:07 Y:00 P:75 SP:F9
AAE3  00        BRK                             A:60 X:07 Y:00 P:75 SP:F9
AAE4  00        BRK                             A:60 X:07 Y:00 P:75 SP:F9
AAE5  00        BRK                             A:60 X:07 Y:00 P:75 SP:F9
AAE6  00        BRK                             A:60 X:07 Y:00 P:75 SP:F9
AAE7  00        BRK                             A:60 X:07 Y:00 P:75 SP:F9
AAE8  00        BRK                             A:60 X:07 Y:00 P:75 SP:F9
AAE9  00        BRK                             A:60 X:07 Y:00 P:75 SP:F9
AAEA  00        BRK                             A:60 X:07 Y:00 P:75 SP:F9
AAEB  00        BRK                             A:60 X:07 Y:00 P:75 SP:F9
AAEC  00        BRK                             A:60 X:07 Y:00 P:75 SP:F9
AAED  00        BRK                             A:60 X:07 Y:00 P:75 SP:F9
AAEE  00        BRK                             A:60 X:07 Y:00 P:75 SP:F9
AAEF  00        BRK                             A:60 X:07 Y:00 P:75 SP:F9
AAF0  00        BRK                             A:60 X:07 Y:00 P:75 SP:F9
AAF1  00        BRK                             A:60 X:07 Y:00 P:75 SP:F9
AAF2  00        BRK                             A:60 X:07 Y:00 P:75 SP:F9
AAF3  00        BRK                             A:60 X:07 Y:00 P:75 SP:F9
AAF4  00        BRK                             A:60 X:07 Y:00 P:75 SP:F9
AAF5  00        BRK                             A:60 X:07 Y:00 P:75 SP:F9
AAF6  00        BRK                             A:60 X:07 Y:00 P:75 SP:F9
AAF7  00        BRK                             A:60 X:07 Y:00 P:75 SP:F9
AAF8  00        BRK                             A:60 X:07 Y:00 P:75 SP:F9
AAF9  00        BRK                             A:60 X:07 Y:00 P:75 SP:F9
AAFA  00        BRK                             A:60 X:07 Y:00 P:75 SP:F9
AAFB  00        BRK                             A:60 X:07 Y:00 P:75 SP:F9
AAFC  00        BRK                             A:60 X:07 Y:00 P:75 SP:F9
AAFD  00        BRK                             A:60 X:07 Y:00 P:75 SP:F9
AAFE  00        BRK                             A:60 X:07 Y:00 P:75 SP:F9
AAFF  00        BRK                             A:60 X:07 Y:00 P:75 SP:F9
AB00  00        BRK                             A:60 X:07 Y:00 P:75 SP:F9
AB01  00        BRK                             A:60 X:07 Y:00 P:75 SP:F9
AB02  00        BRK                             A:60 X:07 Y:00 P:75 SP:F9
AB03  00        BRK                             A:60 X:07 Y:00 P:75 SP:F9
AB04  00        BRK                             A:60 X:07 Y:00 P:75 SP:F9
AB05  00        BRK                             A:60 X:07 Y:00 P:75 SP:F9
AB06  00        BRK                             A:60 X:07 Y:00 P:75 SP:F9
AB07  00        BRK                             A:60 X:07 Y:00 P:75 SP:F9
AB08  00        BRK                             A:60 X:07 Y:00 P:75 SP:F9
AB09  00        BRK                             A:60 X:07 Y:00 P:75 SP:F9
AB0A  00        BRK                             A:60 X:07 Y:00 P:75 SP:F9
AB0B  00        BRK                             A:60 X:07 Y:00 P:75 SP:F9
AB0C  00        BRK                             A:60 X:07 Y:00 P:75 SP:F9
AB0D  00        BRK                             A:60 X:07 Y:00 P:75 SP:F9
AB0E  00        BRK                             A:60 X:07 Y:00 P:75 SP:F9
AB0F  00        BRK                             A:60 X:07 Y:00 P:75 SP:F9
AB10  00        BRK                             A:60 X:07 Y:00 P:75 SP:F9
AB11  00        BRK                             A:60 X:07 Y:00 P:75 SP:F9
AB12  00        BRK                             A:60 X:07 Y:00 P:75 SP:F9
AB13  00        BRK                             A:60 X:07 Y:00 P:75 SP:F9
AB14  00        BRK                             A:60 X:07 Y:00 P:75 SP:F9
AB15  00        BRK                             A:60 X:07 Y:00 P:75 SP:F9
AB16  00        BRK                             A:60 X:07 Y:00 P:75 SP:F9
AB17  00        BRK                             A:60 X:07 Y:00 P:75 SP:F9
AB18  00        BRK                             A:60 X:07 Y:00 P:75 SP:F9
AB19  00        BRK                             A:60 X:07 Y:00 P:75 SP:F9
AB1A  00        BRK                             A:60 X:07 Y:00 P:75 SP:F9
AB1B  00        BRK                             A:60 X:07 Y:00 P:75 SP:F9
AB1C  00        BRK                             A:60 X:07 Y:00 P:75 SP:F9
AB1D  00        BRK                             A:60 X:07 Y:00 P:75 SP:F9
AB1E  00        BRK                             A:60 X:07 Y:00 P:75 SP:F9
AB1F  00        BRK                             A:60 X:07 Y:00 P:75 SP:F9
AB20  00        BRK                             A:60 X:07 Y:00 P:75 SP:F9
AB21  00        BRK                             A:60 X:07 Y:00 P:75 SP:F9
AB22  00        BRK                             A:60 X:07 Y:00 P:75 SP:F9
AB23  00        BRK                             A:60 X:07 Y:00 P:75 SP:F9
AB24  00        BRK                             A:60 X:07 Y:00 P:75 SP:F9
AB25  00        BRK                             A:60 X:07 Y:00 P:75 SP:F9
AB26  00        BRK                             A:60 X:07 Y:00 P:75 SP:F9
AB27  00        BRK                             A:60 X:07 Y:00 P:75 SP:F9
AB28  00        BRK                             A:60 X:07 Y:00 P:75 SP:F9
AB29  00        BRK                             A:60 X:07 Y:00 P:75 SP:F9
AB2A  00        BRK                             A:60 X:07 Y:00 P:75 SP:F9
AB2B  00        BRK                             A:60 X:07 Y:00 P:75 SP:F9
AB2C  00        BRK                             A:60 X:07 Y:00 P:75 SP:F9
AB2D  00        BRK                             A:60 X:07 Y:00 P:75 SP:F9
AB2E  00        BRK                             A:60 X:07 Y:00 P:75 SP:F9
AB2F  00        BRK                             A:60 X:07 Y:00 P:75 SP:F9
AB30  00        BRK                             A:60 X:07 Y:00 P:75 SP:F9
AB31  00        BRK                             A:60 X:07 Y:00 P:75 SP:F9
AB32  00        BRK                             A:60 X:07 Y:00 P:75 SP:F9
AB33  00        BRK                             A:60 X:07 Y:00 P:75 SP:F9
AB34  00        BRK                             A:60 X:07 Y:00 P:75 SP:F9
AB35  00        BRK                             A:60 X:07 Y:00 P:75 SP:F9
AB36  00        BRK                             A:60 X:07 Y:00 P:75 SP:F9
AB37  00        BRK                             A:60 X:07 Y:00 P:75 SP:F9
AB38  00        BRK                             A:60 X:07 Y:00 P:75 SP:F9
AB39  00        BRK                             A:60 X:07 Y:00 P:75 SP:F9
AB3A  00        BRK                             A:60 X:07 Y:00 P:75 SP:F9
AB3B  00        BRK                             A:60 X:07 Y:00 P:75 SP:F9
AB3C  00        BRK                             A:60 X:07 Y:00 P:75 SP:F9
AB3D  00        BRK                             A:60 X:07 Y:00 P:75 SP:F9
AB3E  00        BRK                             A:60 X:07 Y:00 P:75 SP:F9
AB3F  00        BRK                             A:60 X:07 Y:00 P:75 SP:F9
AB40  00        BRK                             A:60 X:07 Y:00 P:75 SP:F9
AB41  00        BRK                             A:60 X:07 Y:00 P:75 SP:F9
AB42  00        BRK                             A:60 X:07 Y:00 P:75 SP:F9
AB43  00        BRK                             A:60 X:07 Y:00 P:75 SP:F9
AB44  00        BRK                             A:60 X:07 Y:00 P:75 SP:F9
AB45  00        BRK                             A:60 X:07 Y:00 P:75 SP:F9
AB46  00        BRK                             A:60 X:07 Y:00 P:75 SP:F9
AB47  00        BRK                             A:60 X:07 Y:00 P:75 SP:F9
AB48  00        BRK                             A:60 X:07 Y:00 P:75 SP:F9
AB49  00        BRK                             A:60 X:07 Y:00 P:75 SP:F9
AB4A  00        BRK                             A:60 X:07 Y:00 P:75 SP:F9
AB4B  00        BRK                             A:60 X:07 Y:00 P:75 SP:F9
AB4C  00        BRK                             A:60 X:07 Y:00 P:75 SP:F9
AB4D  00        BRK                             A:60 X:07 Y:00 P:75 SP:F9
AB4E  00        BRK                             A:60 X:07 Y:00 P:75 SP:F9
AB4F  00        BRK                             A:60 X:07 Y:00 P:75 SP:F9
AB50  00        BRK                             A:60 X:07 Y:00 P:75 SP:F9
AB51  00        BRK                             A:60 X:07 Y:00 P:75 SP:F9
AB52  00        BRK                             A:60 X:07 Y:00 P:75 SP:F9
AB53  00        BRK                             A:60 X:07 Y:00 P:75 SP:F9
AB54  00        BRK                             A:60 X:07 Y:00 P:75 SP:F9
AB55  00        BRK                             A:60 X:07 Y:00 P:75 SP:F9
AB56  00        BRK                             A:60 X:07 Y:00 P:75 SP:F9
AB57  00        BRK                             A:60 X:07 Y:00 P:75 SP:F9
AB58  00        BRK                             A:60 X:07 Y:00 P:75 SP:F9
AB59  00        BRK                             A:60 X:07 Y:00 P:75 SP:F9
AB5A  00        BRK                             A:60 X:07 Y:00 P:75 SP:F9
AB5B  00        BRK                             A:60 X:07 Y:00 P:75 SP:F9
AB5C  00        BRK                             A:60 X:07 Y:00 P:75 SP:F9
AB5D  00        BRK                             A:60 X:07 Y:00 P:75 SP:F9
AB5E  00        BRK                             A:60 X:07 Y:00 P:75 SP:F9
AB5F  00        BRK                             A:60 X:07 Y:00 P:75 SP:F9
AB60  00        BRK                             A:60 X:07 Y:00 P:75 SP:F9
AB61  00        BRK                             A:60 X:07 Y:00 P:75 SP:F9
AB62  00        BRK                             A:60 X:07 Y:00 P:75 SP:F9
AB63  00        BRK                             A:60 X:07 Y:00 P:75 SP:F9
AB64  00        BRK                             A:60 X:07 Y:00 P:75 SP:F9
AB65  00        BRK                             A:60 X:07 Y:00 P:75 SP:F9
AB66  00        BRK                             A:60 X:07 Y:00 P:75 SP:F9
AB67  00        BRK                             A:60 X:07 Y:00 P:75 SP:F9
AB68  00        BRK                             A:60 X:07 Y:00 P:75 SP:F9
AB69  00        BRK                             A:60 X:07 Y:00 P:75 SP:F9
AB6A  00        BRK                             A:60 X:07 Y:00 P:75 SP:F9
AB6B  00        BRK                             A:60 X:07 Y:00 P:75 SP:F9
AB6C  00        BRK                             A:60 X:07 Y:00 P:75 SP:F9
AB6D  00        BRK                             A:60 X:07 Y:00 P:75 SP:F9
AB6E  00        BRK                             A:60 X:07 Y:00 P:75 SP:F9
AB6F  00        BRK                             A:60 X:07 Y:00 P:75 SP:F9
AB70  00        BRK                             A:60 X:07 Y:00 P:75 SP:F9
AB71  00        BRK                             A:60 X:07 Y:00 P:75 SP:F9
AB72  00        BRK                             A:60 X:07 Y:00 P:75 SP:F9
AB73  00        BRK                             A:60 X:07 Y:00 P:75 SP:F9
AB74  00        BRK                             A:60 X:07 Y:00 P:75 SP:F9
AB75  00        BRK                             A:60 X:07 Y:00 P:75 SP:F9
AB76  00        BRK                             A:60 X:07 Y:00 P:75 SP:F9
AB77  00        BRK                             A:60 X:07 Y:00 P:75 SP:F9
AB78  00        BRK                             A:60 X:07 Y:00 P:75 SP:F9
AB79  00        BRK                             A:60 X:07 Y:00 P:75 SP:F9
AB7A  00        BRK                             A:60 X:07 Y:00 P:75 SP:F9
AB7B  00        BRK                             A:60 X:07 Y:00 P:75 SP:F9
AB7C  00        BRK                             A:60 X:07 Y:00 P:75 SP:F9
AB7D  00        BRK                             A:60 X:07 Y:00 P:75 SP:F9
AB7E  00        BRK                             A:60 X:07 Y:00 P:75 SP:F9
AB7F  00        BRK                             A:60 X:07 Y:00 P:75 SP:F9
AB80  00        BRK                             A:60 X:07 Y:00 P:75 SP:F9
AB81  00        BRK                             A:60 X:07 Y:00 P:75 SP:F9
AB82  00        BRK                             A:60 X:07 Y:00 P:75 SP:F9
AB83  00        BRK                             A:60 X:07 Y:00 P:75 SP:F9
AB84  00        BRK                             A:60 X:07 Y:00 P:75 SP:F9
AB85  00        BRK                             A:60 X:07 Y:00 P:75 SP:F9
AB86  00        BRK                             A:60 X:07 Y:00 P:75 SP:F9
AB87  00        BRK                             A:60 X:07 Y:00 P:75 SP:F9
AB88  00        BRK                             A:60 X:07 Y:00 P:75 SP:F9
AB89  00        BRK                             A:60 X:07 Y:00 P:75 SP:F9
AB8A  00        BRK                             A:60 X:07 Y:00 P:75 SP:F9
AB8B  00        BRK                             A:60 X:07 Y:00 P:75 SP:F9
AB8C  00        BRK                             A:60 X:07 Y:00 P:75 SP:F9
AB8D  00        BRK                             A:60 X:07 Y:00 P:75 SP:F9
AB8E  00        BRK                             A:60 X:07 Y:00 P:75 SP:F9
AB8F  00        BRK                             A:60 X:07 Y:00 P:75 SP:F9
AB90  00        BRK                             A:60 X:07 Y:00 P:75 SP:F9
AB91  00        BRK                             A:60 X:07 Y:00 P:75 SP:F9
AB92  00        BRK                             A:60 X:07 Y:00 P:75 SP:F9
AB93  00        BRK                             A:60 X:07 Y:00 P:75 SP:F9
AB94  00        BRK                             A:60 X:07 Y:00 P:75 SP:F9
AB95  00        BRK                             A:60 X:07 Y:00 P:75 SP:F9
AB96  00        BRK                             A:60 X:07 Y:00 P:75 SP:F9
AB97  00        BRK                             A:60 X:07 Y:00 P:75 SP:F9
AB98  00        BRK                             A:60 X:07 Y:00 P:75 SP:F9
AB99  00        BRK                             A:60 X:07 Y:00 P:75 SP:F9
AB9A  00        BRK                             A:60 X:07 Y:00 P:75 SP:F9
AB9B  00        BRK                             A:60 X:07 Y:00 P:75 SP:F9
AB9C  00        BRK                             A:60 X:07 Y:00 P:75 SP:F9
AB9D  00        BRK                             A:60 X:07 Y:00 P:75 SP:F9
AB9E  00        BRK                             A:60 X:07 Y:00 P:75 SP:F9
AB9F  00        BRK                             A:60 X:07 Y:00 P:75 SP:F9
ABA0  00        BRK                             A:60 X:07 Y:00 P:75 SP:F9
ABA1  00        BRK                             A:60 X:07 Y:00 P:75 SP:F9
ABA2  00        BRK                             A:60 X:07 Y:00 P:75 SP:F9
ABA3  00        BRK                             A:60 X:07 Y:00 P:75 SP:F9
ABA4  00        BRK                             A:60 X:07 Y:00 P:75 SP:F9
ABA5  00        BRK                             A:60 X:07 Y:00 P:75 SP:F9
ABA6  00        BRK                             A:60 X:07 Y:00 P:75 SP:F9
ABA7  00        BRK                             A:60 X:07 Y:00 P:75 SP:F9
ABA8  00        BRK                             A:60 X:07 Y:00 P:75 SP:F9
ABA9  00        BRK                             A:60 X:07 Y:00 P:75 SP:F9
ABAA  00        BRK                             A:60 X:07 Y:00 P:75 SP:F9
ABAB  00        BRK                             A:60 X:07 Y:00 P:75 SP:F9
ABAC  00        BRK                             A:60 X:07 Y:00 P:75 SP:F9
ABAD  00        BRK                             A:60 X:07 Y:00 P:75 SP:F9
ABAE  00        BRK                             A:60 X:07 Y:00 P:75 SP:F9
ABAF  00        BRK                             A:60 X:07 Y:00 P:75 SP:F9
ABB0  00        BRK                             A:60 X:07 Y:00 P:75 SP:F9
ABB1  00        BRK                             A:60 X:07 Y:00 P:75 SP:F9
ABB2  00        BRK                             A:60 X:07 Y:00 P:75 SP:F9
ABB3  00        BRK                             A:60 X:07 Y:00 P:75 SP:F9
ABB4  00        BRK                             A:60 X:07 Y:00 P:75 SP:F9
ABB5  00        BRK                             A:60 X:07 Y:00 P:75 SP:F9
ABB6  00        BRK                             A:60 X:07 Y:00 P:75 SP:F9
ABB7  00        BRK                             A:60 X:07 Y:00 P:75 SP:F9
ABB8  00        BRK                             A:60 X:07 Y:00 P:75 SP:F9
ABB9  00        BRK                             A:60 X:07 Y:00 P:75 SP:F9
ABBA  00        BRK                             A:60 X:07 Y:00 P:75 SP:F9
ABBB  00        BRK                             A:60 X:07 Y:00 P:75 SP:F9
ABBC  00        BRK                             A:60 X:07 Y:00 P:75 SP:F9
ABBD  00        BRK                             A:60 X:07 Y:00 P:75 SP:F9
ABBE  00        BRK                             A:60 X:07 Y:00 P:75 SP:F9
ABBF  00        BRK                             A:60 X:07 Y:00 P:75 SP:F9
ABC0  00        BRK                             A:60 X:07 Y:00 P:75 SP:F9
ABC1  00        BRK                             A:60 X:07 Y:00 P:75 SP:F9
ABC2  00        BRK                             A:60 X:07 Y:00 P:75 SP:F9
ABC3  00        BRK                             A:60 X:07 Y:00 P:75 SP:F9
ABC4  00        BRK                             A:60 X:07 Y:00 P:75 SP:F9
ABC5  00        BRK                             A:60 X:07 Y:00 P:75 SP:F9
ABC6  00        BRK                             A:60 X:07 Y:00 P:75 SP:F9
ABC7  00        BRK                             A:60 X:07 Y:00 P:75 SP:F9
ABC8  00        BRK                             A:60 X:07 Y:00 P:75 SP:F9
ABC9  00        BRK                             A:60 X:07 Y:00 P:75 SP:F9
ABCA  00        BRK                             A:60 X:07 Y:00 P:75 SP:F9
ABCB  00        BRK                             A:60 X:07 Y:00 P:75 SP:F9
ABCC  00        BRK                             A:60 X:07 Y:00 P:75 SP:F9
ABCD  00        BRK                             A:60 X:07 Y:00 P:75 SP:F9
ABCE  00        BRK                             A:60 X:07 Y:00 P:75 SP:F9
ABCF  00        BRK                             A:60 X:07 Y:00 P:75 SP:F9
ABD0  00        BRK                             A:60 X:07 Y:00 P:75 SP:F9
ABD1  00        BRK                             A:60 X:07 Y:00 P:75 SP:F9
ABD2  00        BRK                             A:60 X:07 Y:00 P:75 SP:F9
ABD3  00        BRK                             A:60 X:07 Y:00 P:75 SP:F9
ABD4  00        BRK                             A:60 X:07 Y:00 P:75 SP:F9
ABD5  00        BRK                             A:60 X:07 Y:00 P:75 SP:F9
ABD6  00        BRK                             A:60 X:07 Y:00 P:75 SP:F9
ABD7  00        BRK                             A:60 X:07 Y:00 P:75 SP:F9
ABD8  00        BRK                             A:60 X:07 Y:00 P:75 SP:F9
ABD9  00        BRK                             A:60 X:07 Y:00 P:75 SP:F9
ABDA  00        BRK                             A:60 X:07 Y:00 P:75 SP:F9
ABDB  00        BRK                             A:60 X:07 Y:00 P:75 SP:F9
ABDC  00        BRK                             A:60 X:07 Y:00 P:75 SP:F9
ABDD  00        BRK                             A:60 X:07 Y:00 P:75 SP:F9
ABDE  00        BRK                             A:60 X:07 Y:00 P:75 SP:F9
ABDF  00        BRK                             A:60 X:07 Y:00 P:75 SP:F9
ABE0  00        BRK                             A:60 X:07 Y:00 P:75 SP:F9
ABE1  00        BRK                             A:60 X:07 Y:00 P:75 SP:F9
ABE2  00        BRK                             A:60 X:07 Y:00 P:75 SP:F9
ABE3  00        BRK                             A:60 X:07 Y:00 P:75 SP:F9
ABE4  00        BRK                             A:60 X:07 Y:00 P:75 SP:F9
ABE5  00        BRK                             A:60 X:07 Y:00 P:75 SP:F9
ABE6  00        BRK                             A:60 X:07 Y:00 P:75 SP:F9
ABE7  00        BRK                             A:60 X:07 Y:00 P:75 SP:F9
ABE8  00        BRK                             A:60 X:07 Y:00 P:75 SP:F9
ABE9  00        BRK                             A:60 X:07 Y:00 P:75 SP:F9
ABEA  00        BRK                             A:60 X:07 Y:00 P:75 SP:F9
ABEB  00        BRK                             A:60 X:07 Y:00 P:75 SP:F9
ABEC  00        BRK                             A:60 X:07 Y:00 P:75 SP:F9
ABED  00        BRK                             A:60 X:07 Y:00 P:75 SP:F9
ABEE  00        BRK                             A:60 X:07 Y:00 P:75 SP:F9
ABEF  00        BRK                             A:60 X:07 Y:00 P:75 SP:F9
ABF0  00        BRK                             A:60 X:07 Y:00 P:75 SP:F9
ABF1  00        BRK                             A:60 X:07 Y:00 P:75 SP:F9
ABF2  00        BRK                             A:60 X:07 Y:00 P:75 SP:F9
ABF3  00        BRK                             A:60 X:07 Y:00 P:75 SP:F9
ABF4  00        BRK                             A:60 X:07 Y:00 P:75 SP:F9
ABF5  00        BRK                             A:60 X:07 Y:00 P:75 SP:F9
ABF6  00        BRK                             A:60 X:07 Y:00 P:75 SP:F9
ABF7  00        BRK                             A:60 X:07 Y:00 P:75 SP:F9
ABF8  00        BRK                             A:60 X:07 Y:00 P:75 SP:F9
ABF9  00        BRK                             A:60 X:07 Y:00 P:75 SP:F9
ABFA  00        BRK                             A:60 X:07 Y:00 P:75 SP:F9
ABFB  00        BRK                             A:60 X:07 Y:00 P:75 SP:F9
ABFC  00        BRK                             A:60 X:07 Y:00 P:75 SP:F9
ABFD  00        BRK                             A:60 X:07 Y:00 P:75 SP:F9
ABFE  00        BRK                             A:60 X:07 Y:00 P:75 SP:F9
ABFF  00        BRK                             A:60 X:07 Y:00 P:75 SP:F9
AC00  00        BRK                             A:60 X:07 Y:00 P:75 SP:F9
AC01  00        BRK                             A:60 X:07 Y:00 P:75 SP:F9
AC02  00        BRK                             A:60 X:07 Y:00 P:75 SP:F9
AC03  00        BRK                             A:60 X:07 Y:00 P:75 SP:F9
AC04  00        BRK                             A:60 X:07 Y:00 P:75 SP:F9
AC05  00        BRK                             A:60 X:07 Y:00 P:75 SP:F9
AC06  00        BRK                             A:60 X:07 Y:00 P:75 SP:F9
AC07  00        BRK                             A:60 X:07 Y:00 P:75 SP:F9
AC08  00        BRK                             A:60 X:07 Y:00 P:75 SP:F9
AC09  00        BRK                             A:60 X:07 Y:00 P:75 SP:F9
AC0A  00        BRK                             A:60 X:07 Y:00 P:75 SP:F9
AC0B  00        BRK                             A:60 X:07 Y:00 P:75 SP:F9
AC0C  00        BRK                             A:60 X:07 Y:00 P:75 SP:F9
AC0D  00        BRK                             A:60 X:07 Y:00 P:75 SP:F9
AC0E  00        BRK                             A:60 X:07 Y:00 P:75 SP:F9
AC0F  00        BRK                             A:60 X:07 Y:00 P:75 SP:F9
AC10  00        BRK                             A:60 X:07 Y:00 P:75 SP:F9
AC11  00        BRK                             A:60 X:07 Y:00 P:75 SP:F9
AC12  00        BRK                             A:60 X:07 Y:00 P:75 SP:F9
AC13  00        BRK                             A:60 X:07 Y:00 P:75 SP:F9
AC14  00        BRK                             A:60 X:07 Y:00 P:75 SP:F9
AC15  00        BRK                             A:60 X:07 Y:00 P:75 SP:F9
AC16  00        BRK                             A:60 X:07 Y:00 P:75 SP:F9
AC17  00        BRK                             A:60 X:07 Y:00 P:75 SP:F9
AC18  00        BRK                             A:60 X:07 Y:00 P:75 SP:F9
AC19  00        BRK                             A:60 X:07 Y:00 P:75 SP:F9
AC1A  00        BRK                             A:60 X:07 Y:00 P:75 SP:F9
AC1B  00        BRK                             A:60 X:07 Y:00 P:75 SP:F9
AC1C  00        BRK                             A:60 X:07 Y:00 P:75 SP:F9
AC1D  00        BRK                             A:60 X:07 Y:00 P:75 SP:F9
AC1E  00        BRK                             A:60 X:07 Y:00 P:75 SP:F9
AC1F  00        BRK                             A:60 X:07 Y:00 P:75 SP:F9
AC20  00        BRK                             A:60 X:07 Y:00 P:75 SP:F9
AC21  00        BRK                             A:60 X:07 Y:00 P:75 SP:F9
AC22  00        BRK                             A:60 X:07 Y:00 P:75 SP:F9
AC23  00        BRK                             A:60 X:07 Y:00 P:75 SP:F9
AC24  00        BRK                             A:60 X:07 Y:00 P:75 SP:F9
AC25  00        BRK                             A:60 X:07 Y:00 P:75 SP:F9
AC26  00        BRK                             A:60 X:07 Y:00 P:75 SP:F9
AC27  00        BRK                             A:60 X:07 Y:00 P:75 SP:F9
AC28  00        BRK                             A:60 X:07 Y:00 P:75 SP:F9
AC29  00        BRK                             A:60 X:07 Y:00 P:75 SP:F9
AC2A  00        BRK                             A:60 X:07 Y:00 P:75 SP:F9
AC2B  00        BRK                             A:60 X:07 Y:00 P:75 SP:F9
AC2C  00        BRK                             A:60 X:07 Y:00 P:75 SP:F9
AC2D  00        BRK                             A:60 X:07 Y:00 P:75 SP:F9
AC2E  00        BRK                             A:60 X:07 Y:00 P:75 SP:F9
AC2F  00        BRK                             A:60 X:07 Y:00 P:75 SP:F9
AC30  00        BRK                             A:60 X:07 Y:00 P:75 SP:F9
AC31  00        BRK                             A:60 X:07 Y:00 P:75 SP:F9
AC32  00        BRK                             A:60 X:07 Y:00 P:75 SP:F9
AC33  00        BRK                             A:60 X:07 Y:00 P:75 SP:F9
AC34  00        BRK                             A:60 X:07 Y:00 P:75 SP:F9
AC35  00        BRK                             A:60 X:07 Y:00 P:75 SP:F9
AC36  00        BRK                             A:60 X:07 Y:00 P:75 SP:F9
AC37  00        BRK                             A:60 X:07 Y:00 P:75 SP:F9
AC38  00        BRK                             A:60 X:07 Y:00 P:75 SP:F9
AC39  00        BRK                             A:60 X:07 Y:00 P:75 SP:F9
AC3A  00        BRK                             A:60 X:07 Y:00 P:75 SP:F9
AC3B  00        BRK                             A:60 X:07 Y:00 P:75 SP:F9
AC3C  00        BRK                             A:60 X:07 Y:00 P:75 SP:F9
AC3D  00        BRK                             A:60 X:07 Y:00 P:75 SP:F9
AC3E  00        BRK                             A:60 X:07 Y:00 P:75 SP:F9
AC3F  00        BRK                             A:60 X:07 Y:00 P:75 SP:F9
AC40  00        BRK                             A:60 X:07 Y:00 P:75 SP:F9
AC41  00        BRK                             A:60 X:07 Y:00 P:75 SP:F9
AC42  00        BRK                             A:60 X:07 Y:00 P:75 SP:F9
AC43  00        BRK                             A:60 X:07 Y:00 P:75 SP:F9
AC44  00        BRK                             A:60 X:07 Y:00 P:75 SP:F9
AC45  00        BRK                             A:60 X:07 Y:00 P:75 SP:F9
AC46  00        BRK                             A:60 X:07 Y:00 P:75 SP:F9
AC47  00        BRK                             A:60 X:07 Y:00 P:75 SP:F9
AC48  00        BRK                             A:60 X:07 Y:00 P:75 SP:F9
AC49  00        BRK                             A:60 X:07 Y:00 P:75 SP:F9
AC4A  00        BRK                             A:60 X:07 Y:00 P:75 SP:F9
AC4B  00        BRK                             A:60 X:07 Y:00 P:75 SP:F9
AC4C  00        BRK                             A:60 X:07 Y:00 P:75 SP:F9
AC4D  00        BRK                             A:60 X:07 Y:00 P:75 SP:F9
AC4E  00        BRK                             A:60 X:07 Y:00 P:75 SP:F9
AC4F  00        BRK                             A:60 X:07 Y:00 P:75 SP:F9
AC50  00        BRK                             A:60 X:07 Y:00 P:75 SP:F9
AC51  00        BRK                             A:60 X:07 Y:00 P:75 SP:F9
AC52  00        BRK                             A:60 X:07 Y:00 P:75 SP:F9
AC53  00        BRK                             A:60 X:07 Y:00 P:75 SP:F9
AC54  00        BRK                             A:60 X:07 Y:00 P:75 SP:F9
AC55  00        BRK                             A:60 X:07 Y:00 P:75 SP:F9
AC56  00        BRK                             A:60 X:07 Y:00 P:75 SP:F9
AC57  00        BRK                             A:60 X:07 Y:00 P:75 SP:F9
AC58  00        BRK                             A:60 X:07 Y:00 P:75 SP:F9
AC59  00        BRK                             A:60 X:07 Y:00 P:75 SP:F9
AC5A  00        BRK                             A:60 X:07 Y:00 P:75 SP:F9
AC5B  00        BRK                             A:60 X:07 Y:00 P:75 SP:F9
AC5C  00        BRK                             A:60 X:07 Y:00 P:75 SP:F9
AC5D  00        BRK                             A:60 X:07 Y:00 P:75 SP:F9
AC5E  00        BRK                             A:60 X:07 Y:00 P:75 SP:F9
AC5F  00        BRK                             A:60 X:07 Y:00 P:75 SP:F9
AC60  00        BRK                             A:60 X:07 Y:00 P:75 SP:F9
AC61  00        BRK                             A:60 X:07 Y:00 P:75 SP:F9
AC62  00        BRK                             A:60 X:07 Y:00 P:75 SP:F9
AC63  00        BRK                             A:60 X:07 Y:00 P:75 SP:F9
AC64  00        BRK                             A:60 X:07 Y:00 P:75 SP:F9
AC65  00        BRK                             A:60 X:07 Y:00 P:75 SP:F9
AC66  00        BRK                             A:60 X:07 Y:00 P:75 SP:F9
AC67  00        BRK                             A:60 X:07 Y:00 P:75 SP:F9
AC68  00        BRK                             A:60 X:07 Y:00 P:75 SP:F9
AC69  00        BRK                             A:60 X:07 Y:00 P:75 SP:F9
AC6A  00        BRK                             A:60 X:07 Y:00 P:75 SP:F9
AC6B  00        BRK                             A:60 X:07 Y:00 P:75 SP:F9
AC6C  00        BRK                             A:60 X:07 Y:00 P:75 SP:F9
AC6D  00        BRK                             A:60 X:07 Y:00 P:75 SP:F9
AC6E  00        BRK                             A:60 X:07 Y:00 P:75 SP:F9
AC6F  00        BRK                             A:60 X:07 Y:00 P:75 SP:F9
AC70  00        BRK                             A:60 X:07 Y:00 P:75 SP:F9
AC71  00        BRK                             A:60 X:07 Y:00 P:75 SP:F9
AC72  00        BRK                             A:60 X:07 Y:00 P:75 SP:F9
AC73  00        BRK                             A:60 X:07 Y:00 P:75 SP:F9
AC74  00        BRK                             A:60 X:07 Y:00 P:75 SP:F9
AC75  00        BRK                             A:60 X:07 Y:00 P:75 SP:F9
AC76  00        BRK                             A:60 X:07 Y:00 P:75 SP:F9
AC77  00        BRK                             A:60 X:07 Y:00 P:75 SP:F9
AC78  00        BRK                             A:60 X:07 Y:00 P:75 SP:F9
AC79  00        BRK                             A:60 X:07 Y:00 P:75 SP:F9
AC7A  00        BRK                             A:60 X:07 Y:00 P:75 SP:F9
AC7B  00        BRK                             A:60 X:07 Y:00 P:75 SP:F9
AC7C  00        BRK                             A:60 X:07 Y:00 P:75 SP:F9
AC7D  00        BRK                             A:60 X:07 Y:00 P:75 SP:F9
AC7E  00        BRK                             A:60 X:07 Y:00 P:75 SP:F9
AC7F  00        BRK                             A:60 X:07 Y:00 P:75 SP:F9
AC80  00        BRK                             A:60 X:07 Y:00 P:75 SP:F9
AC81  00        BRK                             A:60 X:07 Y:00 P:75 SP:F9
AC82  00        BRK                             A:60 X:07 Y:00 P:75 SP:F9
AC83  00        BRK                             A:60 X:07 Y:00 P:75 SP:F9
AC84  00        BRK                             A:60 X:07 Y:00 P:75 SP:F9
AC85  00        BRK                             A:60 X:07 Y:00 P:75 SP:F9
AC86  00        BRK                             A:60 X:07 Y:00 P:75 SP:F9
AC87  00        BRK                             A:60 X:07 Y:00 P:75 SP:F9
AC88  00        BRK                             A:60 X:07 Y:00 P:75 SP:F9
AC89  00        BRK                             A:60 X:07 Y:00 P:75 SP:F9
AC8A  00        BRK                             A:60 X:07 Y:00 P:75 SP:F9
AC8B  00        BRK                             A:60 X:07 Y:00 P:75 SP:F9
AC8C  00        BRK                             A:60 X:07 Y:00 P:75 SP:F9
AC8D  00        BRK                             A:60 X:07 Y:00 P:75 SP:F9
AC8E  00        BRK                             A:60 X:07 Y:00 P:75 SP:F9
AC8F  00        BRK                             A:60 X:07 Y:00 P:75 SP:F9
AC90  00        BRK                             A:60 X:07 Y:00 P:75 SP:F9
AC91  00        BRK                             A:60 X:07 Y:00 P:75 SP:F9
AC92  00        BRK                             A:60 X:07 Y:00 P:75 SP:F9
AC93  00        BRK                             A:60 X:07 Y:00 P:75 SP:F9
AC94  00        BRK                             A:60 X:07 Y:00 P:75 SP:F9
AC95  00        BRK                             A:60 X:07 Y:00 P:75 SP:F9
AC96  00        BRK                             A:60 X:07 Y:00 P:75 SP:F9
AC97  00        BRK                             A:60 X:07 Y:00 P:75 SP:F9
AC98  00        BRK                             A:60 X:07 Y:00 P:75 SP:F9
AC99  00        BRK                             A:60 X:07 Y:00 P:75 SP:F9
AC9A  00        BRK                             A:60 X:07 Y:00 P:75 SP:F9
AC9B  00        BRK                             A:60 X:07 Y:00 P:75 SP:F9
AC9C  00        BRK                             A:60 X:07 Y:00 P:75 SP:F9
AC9D  00        BRK                             A:60 X:07 Y:00 P:75 SP:F9
AC9E  00        BRK                             A:60 X:07 Y:00 P:75 SP:F9
AC9F  00        BRK                             A:60 X:07 Y:00 P:75 SP:F9
ACA0  00        BRK                             A:60 X:07 Y:00 P:75 SP:F9
ACA1  00        BRK                             A:60 X:07 Y:00 P:75 SP:F9
ACA2  00        BRK                             A:60 X:07 Y:00 P:75 SP:F9
ACA3  00        BRK                             A:60 X:07 Y:00 P:75 SP:F9
ACA4  00        BRK                             A:60 X:07 Y:00 P:75 SP:F9
ACA5  00        BRK                             A:60 X:07 Y:00 P:75 SP:F9
ACA6  00        BRK                             A:60 X:07 Y:00 P:75 SP:F9
ACA7  00        BRK                             A:60 X:07 Y:00 P:75 SP:F9
ACA8  00        BRK                             A:60 X:07 Y:00 P:75 SP:F9
ACA9  00        BRK                             A:60 X:07 Y:00 P:75 SP:F9
ACAA  00        BRK                             A:60 X:07 Y:00 P:75 SP:F9
ACAB  00        BRK                             A:60 X:07 Y:00 P:75 SP:F9
ACAC  00        BRK                             A:60 X:07 Y:00 P:75 SP:F9
ACAD  00        BRK                             A:60 X:07 Y:00 P:75 SP:F9
ACAE  00        BRK                             A:60 X:07 Y:00 P:75 SP:F9
ACAF  00        BRK                             A:60 X:07 Y:00 P:75 SP:F9
ACB0  00        BRK                             A:60 X:07 Y:00 P:75 SP:F9
ACB1  00        BRK                             A:60 X:07 Y:00 P:75 SP:F9
ACB2  00        BRK                             A:60 X:07 Y:00 P:75 SP:F9
ACB3  00        BRK                             A:60 X:07 Y:00 P:75 SP:F9
ACB4  00        BRK                             A:60 X:07 Y:00 P:75 SP:F9
ACB5  00        BRK                             A:60 X:07 Y:00 P:75 SP:F9
ACB6  00        BRK                             A:60 X:07 Y:00 P:75 SP:F9
ACB7  00        BRK                             A:60 X:07 Y:00 P:75 SP:F9
ACB8  00        BRK                             A:60 X:07 Y:00 P:75 SP:F9
ACB9  00        BRK                             A:60 X:07 Y:00 P:75 SP:F9
ACBA  00        BRK                             A:60 X:07 Y:00 P:75 SP:F9
ACBB  00        BRK                             A:60 X:07 Y:00 P:75 SP:F9
ACBC  00        BRK                             A:60 X:07 Y:00 P:75 SP:F9
ACBD  00        BRK                             A:60 X:07 Y:00 P:75 SP:F9
ACBE  00        BRK                             A:60 X:07 Y:00 P:75 SP:F9
ACBF  00        BRK                             A:60 X:07 Y:00 P:75 SP:F9
ACC0  00        BRK                             A:60 X:07 Y:00 P:75 SP:F9
ACC1  00        BRK                             A:60 X:07 Y:00 P:75 SP:F9
ACC2  00        BRK                             A:60 X:07 Y:00 P:75 SP:F9
ACC3  00        BRK                             A:60 X:07 Y:00 P:75 SP:F9
ACC4  00        BRK                             A:60 X:07 Y:00 P:75 SP:F9
ACC5  00        BRK                             A:60 X:07 Y:00 P:75 SP:F9
ACC6  00        BRK                             A:60 X:07 Y:00 P:75 SP:F9
ACC7  00        BRK                             A:60 X:07 Y:00 P:75 SP:F9
ACC8  00        BRK                             A:60 X:07 Y:00 P:75 SP:F9
ACC9  00        BRK                             A:60 X:07 Y:00 P:75 SP:F9
ACCA  00        BRK                             A:60 X:07 Y:00 P:75 SP:F9
ACCB  00        BRK                             A:60 X:07 Y:00 P:75 SP:F9
ACCC  00        BRK                             A:60 X:07 Y:00 P:75 SP:F9
ACCD  00        BRK                             A:60 X:07 Y:00 P:75 SP:F9
ACCE  00        BRK                             A:60 X:07 Y:00 P:75 SP:F9
ACCF  00        BRK                             A:60 X:07 Y:00 P:75 SP:F9
ACD0  00        BRK                             A:60 X:07 Y:00 P:75 SP:F9
ACD1  00        BRK                             A:60 X:07 Y:00 P:75 SP:F9
ACD2  00        BRK                             A:60 X:07 Y:00 P:75 SP:F9
ACD3  00        BRK                             A:60 X:07 Y:00 P:75 SP:F9
ACD4  00        BRK                             A:60 X:07 Y:00 P:75 SP:F9
ACD5  00        BRK                             A:60 X:07 Y:00 P:75 SP:F9
ACD6  00        BRK                             A:60 X:07 Y:00 P:75 SP:F9
ACD7  00        BRK                             A:60 X:07 Y:00 P:75 SP:F9
ACD8  00        BRK                             A:60 X:07 Y:00 P:75 SP:F9
ACD9  00        BRK                             A:60 X:07 Y:00 P:75 SP:F9
ACDA  00        BRK                             A:60 X:07 Y:00 P:75 SP:F9
ACDB  00        BRK                             A:60 X:07 Y:00 P:75 SP:F9
ACDC  00        BRK                             A:60 X:07 Y:00 P:75 SP:F9
ACDD  00        BRK                             A:60 X:07 Y:00 P:75 SP:F9
ACDE  00        BRK                             A:60 X:07 Y:00 P:75 SP:F9
ACDF  00        BRK                             A:60 X:07 Y:00 P:75 SP:F9
ACE0  00        BRK                             A:60 X:07 Y:00 P:75 SP:F9
ACE1  00        BRK                             A:60 X:07 Y:00 P:75 SP:F9
ACE2  00        BRK                             A:60 X:07 Y:00 P:75 SP:F9
ACE3  00        BRK                             A:60 X:07 Y:00 P:75 SP:F9
ACE4  00        BRK                             A:60 X:07 Y:00 P:75 SP:F9
ACE5  00        BRK                             A:60 X:07 Y:00 P:75 SP:F9
ACE6  00        BRK                             A:60 X:07 Y:00 P:75 SP:F9
ACE7  00        BRK                             A:60 X:07 Y:00 P:75 SP:F9
ACE8  00        BRK                             A:60 X:07 Y:00 P:75 SP:F9
ACE9  00        BRK                             A:60 X:07 Y:00 P:75 SP:F9
ACEA  00        BRK                             A:60 X:07 Y:00 P:75 SP:F9
ACEB  00        BRK                             A:60 X:07 Y:00 P:75 SP:F9
ACEC  00        BRK                             A:60 X:07 Y:00 P:75 SP:F9
ACED  00        BRK                             A:60 X:07 Y:00 P:75 SP:F9
ACEE  00        BRK                             A:60 X:07 Y:00 P:75 SP:F9
ACEF  00        BRK                             A:60 X:07 Y:00 P:75 SP:F9
ACF0  00        BRK                             A:60 X:07 Y:00 P:75 SP:F9
ACF1  00        BRK                             A:60 X:07 Y:00 P:75 SP:F9
ACF2  00        BRK                             A:60 X:07 Y:00 P:75 SP:F9
ACF3  00        BRK                             A:60 X:07 Y:00 P:75 SP:F9
ACF4  00        BRK                             A:60 X:07 Y:00 P:75 SP:F9
ACF5  00        BRK                             A:60 X:07 Y:00 P:75 SP:F9
ACF6  00        BRK                             A:60 X:07 Y:00 P:75 SP:F9
ACF7  00        BRK                             A:60 X:07 Y:00 P:75 SP:F9
ACF8  00        BRK                             A:60 X:07 Y:00 P:75 SP:F9
ACF9  00        BRK                             A:60 X:07 Y:00 P:75 SP:F9
ACFA  00        BRK                             A:60 X:07 Y:00 P:75 SP:F9
ACFB  00        BRK                             A:60 X:07 Y:00 P:75 SP:F9
ACFC  00        BRK                             A:60 X:07 Y:00 P:75 SP:F9
ACFD  00        BRK                             A:60 X:07 Y:00 P:75 SP:F9
ACFE  00        BRK                             A:60 X:07 Y:00 P:75 SP:F9
ACFF  00        BRK                             A:60 X:07 Y:00 P:75 SP:F9
AD00  00        BRK                             A:60 X:07 Y:00 P:75 SP:F9
AD01  00        BRK                             A:60 X:07 Y:00 P:75 SP:F9
AD02  00        BRK                             A:60 X:07 Y:00 P:75 SP:F9
AD03  00        BRK                             A:60 X:07 Y:00 P:75 SP:F9
AD04  00        BRK                             A:60 X:07 Y:00 P:75 SP:F9
AD05  00        BRK                             A:60 X:07 Y:00 P:75 SP:F9
AD06  00        BRK                             A:60 X:07 Y:00 P:75 SP:F9
AD07  00        BRK                             A:60 X:07 Y:00 P:75 SP:F9
AD08  00        BRK                             A:60 X:07 Y:00 P:75 SP:F9
AD09  00        BRK                             A:60 X:07 Y:00 P:75 SP:F9
AD0A  00        BRK                             A:60 X:07 Y:00 P:75 SP:F9
AD0B  00        BRK                             A:60 X:07 Y:00 P:75 SP:F9
AD0C  00        BRK                             A:60 X:07 Y:00 P:75 SP:F9
AD0D  00        BRK                             A:60 X:07 Y:00 P:75 SP:F9
AD0E  00        BRK                             A:60 X:07 Y:00 P:75 SP:F9
AD0F  00        BRK                             A:60 X:07 Y:00 P:75 SP:F9
AD10  00        BRK                             A:60 X:07 Y:00 P:75 SP:F9
AD11  00        BRK                             A:60 X:07 Y:00 P:75 SP:F9
AD12  00        BRK                             A:60 X:07 Y:00 P:75 SP:F9
AD13  00        BRK                             A:60 X:07 Y:00 P:75 SP:F9
AD14  00        BRK                             A:60 X:07 Y:00 P:75 SP:F9
AD15  00        BRK                             A:60 X:07 Y:00 P:75 SP:F9
AD16  00        BRK                             A:60 X:07 Y:00 P:75 SP:F9
AD17  00        BRK                             A:60 X:07 Y:00 P:75 SP:F9
AD18  00        BRK                             A:60 X:07 Y:00 P:75 SP:F9
AD19  00        BRK                             A:60 X:07 Y:00 P:75 SP:F9
AD1A  00        BRK                             A:60 X:07 Y:00 P:75 SP:F9
AD1B  00        BRK                             A:60 X:07 Y:00 P:75 SP:F9
AD1C  00        BRK                             A:60 X:07 Y:00 P:75 SP:F9
AD1D  00        BRK                             A:60 X:07 Y:00 P:75 SP:F9
AD1E  00        BRK                             A:60 X:07 Y:00 P:75 SP:F9
AD1F  00        BRK                             A:60 X:07 Y:00 P:75 SP:F9
AD20  00        BRK                             A:60 X:07 Y:00 P:75 SP:F9
AD21  00        BRK                             A:60 X:07 Y:00 P:75 SP:F9
AD22  00        BRK                             A:60 X:07 Y:00 P:75 SP:F9
AD23  00        BRK                             A:60 X:07 Y:00 P:75 SP:F9
AD24  00        BRK                             A:60 X:07 Y:00 P:75 SP:F9
AD25  00        BRK                             A:60 X:07 Y:00 P:75 SP:F9
AD26  00        BRK                             A:60 X:07 Y:00 P:75 SP:F9
AD27  00        BRK                             A:60 X:07 Y:00 P:75 SP:F9
AD28  00        BRK                             A:60 X:07 Y:00 P:75 SP:F9
AD29  00        BRK                             A:60 X:07 Y:00 P:75 SP:F9
AD2A  00        BRK                             A:60 X:07 Y:00 P:75 SP:F9
AD2B  00        BRK                             A:60 X:07 Y:00 P:75 SP:F9
AD2C  00        BRK                             A:60 X:07 Y:00 P:75 SP:F9
AD2D  00        BRK                             A:60 X:07 Y:00 P:75 SP:F9
AD2E  00        BRK                             A:60 X:07 Y:00 P:75 SP:F9
AD2F  00        BRK                             A:60 X:07 Y:00 P:75 SP:F9
AD30  00        BRK                             A:60 X:07 Y:00 P:75 SP:F9
AD31  00        BRK                             A:60 X:07 Y:00 P:75 SP:F9
AD32  00        BRK                             A:60 X:07 Y:00 P:75 SP:F9
AD33  00        BRK                             A:60 X:07 Y:00 P:75 SP:F9
AD34  00        BRK                             A:60 X:07 Y:00 P:75 SP:F9
AD35  00        BRK                             A:60 X:07 Y:00 P:75 SP:F9
AD36  00        BRK                             A:60 X:07 Y:00 P:75 SP:F9
AD37  00        BRK                             A:60 X:07 Y:00 P:75 SP:F9
AD38  00        BRK                             A:60 X:07 Y:00 P:75 SP:F9
AD39  00        BRK                             A:60 X:07 Y:00 P:75 SP:F9
AD3A  00        BRK                             A:60 X:07 Y:00 P:75 SP:F9
AD3B  00        BRK                             A:60 X:07 Y:00 P:75 SP:F9
AD3C  00        BRK                             A:60 X:07 Y:00 P:75 SP:F9
AD3D  00        BRK                             A:60 X:07 Y:00 P:75 SP:F9
AD3E  00        BRK                             A:60 X:07 Y:00 P:75 SP:F9
AD3F  00        BRK                             A:60 X:07 Y:00 P:75 SP:F9
AD40  00        BRK                             A:60 X:07 Y:00 P:75 SP:F9
AD41  00        BRK                             A:60 X:07 Y:00 P:75 SP:F9
AD42  00        BRK                             A:60 X:07 Y:00 P:75 SP:F9
AD43  00        BRK                             A:60 X:07 Y:00 P:75 SP:F9
AD44  00        BRK                             A:60 X:07 Y:00 P:75 SP:F9
AD45  00        BRK                             A:60 X:07 Y:00 P:75 SP:F9
AD46  00        BRK                             A:60 X:07 Y:00 P:75 SP:F9
AD47  00        BRK                             A:60 X:07 Y:00 P:75 SP:F9
AD48  00        BRK                             A:60 X:07 Y:00 P:75 SP:F9
AD49  00        BRK                             A:60 X:07 Y:00 P:75 SP:F9
AD4A  00        BRK                             A:60 X:07 Y:00 P:75 SP:F9
AD4B  00        BRK                             A:60 X:07 Y:00 P:75 SP:F9
AD4C  00        BRK                             A:60 X:07 Y:00 P:75 SP:F9
AD4D  00        BRK                             A:60 X:07 Y:00 P:75 SP:F9
AD4E  00        BRK                             A:60 X:07 Y:00 P:75 SP:F9
AD4F  00        BRK                             A:60 X:07 Y:00 P:75 SP:F9
AD50  00        BRK                             A:60 X:07 Y:00 P:75 SP:F9
AD51  00        BRK                             A:60 X:07 Y:00 P:75 SP:F9
AD52  00        BRK                             A:60 X:07 Y:00 P:75 SP:F9
AD53  00        BRK                             A:60 X:07 Y:00 P:75 SP:F9
AD54  00        BRK                             A:60 X:07 Y:00 P:75 SP:F9
AD55  00        BRK                             A:60 X:07 Y:00 P:75 SP:F9
AD56  00        BRK                             A:60 X:07 Y:00 P:75 SP:F9
AD57  00        BRK                             A:60 X:07 Y:00 P:75 SP:F9
AD58  00        BRK                             A:60 X:07 Y:00 P:75 SP:F9
AD59  00        BRK                             A:60 X:07 Y:00 P:75 SP:F9
AD5A  00        BRK                             A:60 X:07 Y:00 P:75 SP:F9
AD5B  00        BRK                             A:60 X:07 Y:00 P:75 SP:F9
AD5C  00        BRK                             A:60 X:07 Y:00 P:75 SP:F9
AD5D  00        BRK                             A:60 X:07 Y:00 P:75 SP:F9
AD5E  00        BRK                             A:60 X:07 Y:00 P:75 SP:F9
AD5F  00        BRK                             A:60 X:07 Y:00 P:75 SP:F9
AD60  00        BRK                             A:60 X:07 Y:00 P:75 SP:F9
AD61  00        BRK                             A:60 X:07 Y:00 P:75 SP:F9
AD62  00        BRK                             A:60 X:07 Y:00 P:75 SP:F9
AD63  00        BRK                             A:60 X:07 Y:00 P:75 SP:F9
AD64  00        BRK                             A:60 X:07 Y:00 P:75 SP:F9
AD65  00        BRK                             A:60 X:07 Y:00 P:75 SP:F9
AD66  00        BRK                             A:60 X:07 Y:00 P:75 SP:F9
AD67  00        BRK                             A:60 X:07 Y:00 P:75 SP:F9
AD68  00        BRK                             A:60 X:07 Y:00 P:75 SP:F9
AD69  00        BRK                             A:60 X:07 Y:00 P:75 SP:F9
AD6A  00        BRK                             A:60 X:07 Y:00 P:75 SP:F9
AD6B  00        BRK                             A:60 X:07 Y:00 P:75 SP:F9
AD6C  00        BRK                             A:60 X:07 Y:00 P:75 SP:F9
AD6D  00        BRK                             A:60 X:07 Y:00 P:75 SP:F9
AD6E  00        BRK                             A:60 X:07 Y:00 P:75 SP:F9
AD6F  00        BRK                             A:60 X:07 Y:00 P:75 SP:F9
AD70  00        BRK                             A:60 X:07 Y:00 P:75 SP:F9
AD71  00        BRK                             A:60 X:07 Y:00 P:75 SP:F9
AD72  00        BRK                             A:60 X:07 Y:00 P:75 SP:F9
AD73  00        BRK                             A:60 X:07 Y:00 P:75 SP:F9
AD74  00        BRK                             A:60 X:07 Y:00 P:75 SP:F9
AD75  00        BRK                             A:60 X:07 Y:00 P:75 SP:F9
AD76  00        BRK                             A:60 X:07 Y:00 P:75 SP:F9
AD77  00        BRK                             A:60 X:07 Y:00 P:75 SP:F9
AD78  00        BRK                             A:60 X:07 Y:00 P:75 SP:F9
AD79  00        BRK                             A:60 X:07 Y:00 P:75 SP:F9
AD7A  00        BRK                             A:60 X:07 Y:00 P:75 SP:F9
AD7B  00        BRK                             A:60 X:07 Y:00 P:75 SP:F9
AD7C  00        BRK                             A:60 X:07 Y:00 P:75 SP:F9
AD7D  00        BRK                             A:60 X:07 Y:00 P:75 SP:F9
AD7E  00        BRK                             A:60 X:07 Y:00 P:75 SP:F9
AD7F  00        BRK                             A:60 X:07 Y:00 P:75 SP:F9
AD80  00        BRK                             A:60 X:07 Y:00 P:75 SP:F9
AD81  00        BRK                             A:60 X:07 Y:00 P:75 SP:F9
AD82  00        BRK                             A:60 X:07 Y:00 P:75 SP:F9
AD83  00        BRK                             A:60 X:07 Y:00 P:75 SP:F9
AD84  00        BRK                             A:60 X:07 Y:00 P:75 SP:F9
AD85  00        BRK                             A:60 X:07 Y:00 P:75 SP:F9
AD86  00        BRK                             A:60 X:07 Y:00 P:75 SP:F9
AD87  00        BRK                             A:60 X:07 Y:00 P:75 SP:F9
AD88  00        BRK                             A:60 X:07 Y:00 P:75 SP:F9
AD89  00        BRK                             A:60 X:07 Y:00 P:75 SP:F9
AD8A  00        BRK                             A:60 X:07 Y:00 P:75 SP:F9
AD8B  00        BRK                             A:60 X:07 Y:00 P:75 SP:F9
AD8C  00        BRK                             A:60 X:07 Y:00 P:75 SP:F9
AD8D  00        BRK                             A:60 X:07 Y:00 P:75 SP:F9
AD8E  00        BRK                             A:60 X:07 Y:00 P:75 SP:F9
AD8F  00        BRK                             A:60 X:07 Y:00 P:75 SP:F9
AD90  00        BRK                             A:60 X:07 Y:00 P:75 SP:F9
AD91  00        BRK                             A:60 X:07 Y:00 P:75 SP:F9
AD92  00        BRK                             A:60 X:07 Y:00 P:75 SP:F9
AD93  00        BRK                             A:60 X:07 Y:00 P:75 SP:F9
AD94  00        BRK                             A:60 X:07 Y:00 P:75 SP:F9
AD95  00        BRK                             A:60 X:07 Y:00 P:75 SP:F9
AD96  00        BRK                             A:60 X:07 Y:00 P:75 SP:F9
AD97  00        BRK                             A:60 X:07 Y:00 P:75 SP:F9
AD98  00        BRK                             A:60 X:07 Y:00 P:75 SP:F9
AD99  00        BRK                             A:60 X:07 Y:00 P:75 SP:F9
AD9A  00        BRK                             A:60 X:07 Y:00 P:75 SP:F9
AD9B  00        BRK                             A:60 X:07 Y:00 P:75 SP:F9
AD9C  00        BRK                             A:60 X:07 Y:00 P:75 SP:F9
AD9D  00        BRK                             A:60 X:07 Y:00 P:75 SP:F9
AD9E  00        BRK                             A:60 X:07 Y:00 P:75 SP:F9
AD9F  00        BRK                             A:60 X:07 Y:00 P:75 SP:F9
ADA0  00        BRK                             A:60 X:07 Y:00 P:75 SP:F9
ADA1  00        BRK                             A:60 X:07 Y:00 P:75 SP:F9
ADA2  00        BRK                             A:60 X:07 Y:00 P:75 SP:F9
ADA3  00        BRK                             A:60 X:07 Y:00 P:75 SP:F9
ADA4  00        BRK                             A:60 X:07 Y:00 P:75 SP:F9
ADA5  00        BRK                             A:60 X:07 Y:00 P:75 SP:F9
ADA6  00        BRK                             A:60 X:07 Y:00 P:75 SP:F9
ADA7  00        BRK                             A:60 X:07 Y:00 P:75 SP:F9
ADA8  00        BRK                             A:60 X:07 Y:00 P:75 SP:F9
ADA9  00        BRK                             A:60 X:07 Y:00 P:75 SP:F9
ADAA  00        BRK                             A:60 X:07 Y:00 P:75 SP:F9
ADAB  00        BRK                             A:60 X:07 Y:00 P:75 SP:F9
ADAC  00        BRK                             A:60 X:07 Y:00 P:75 SP:F9
ADAD  00        BRK                             A:60 X:07 Y:00 P:75 SP:F9
ADAE  00        BRK                             A:60 X:07 Y:00 P:75 SP:F9
ADAF  00        BRK                             A:60 X:07 Y:00 P:75 SP:F9
ADB0  00        BRK                             A:60 X:07 Y:00 P:75 SP:F9
ADB1  00        BRK                             A:60 X:07 Y:00 P:75 SP:F9
ADB2  00        BRK                             A:60 X:07 Y:00 P:75 SP:F9
ADB3  00        BRK                             A:60 X:07 Y:00 P:75 SP:F9
ADB4  00        BRK                             A:60 X:07 Y:00 P:75 SP:F9
ADB5  00        BRK                             A:60 X:07 Y:00 P:75 SP:F9
ADB6  00        BRK                             A:60 X:07 Y:00 P:75 SP:F9
ADB7  00        BRK                             A:60 X:07 Y:00 P:75 SP:F9
ADB8  00        BRK                             A:60 X:07 Y:00 P:75 SP:F9
ADB9  00        BRK                             A:60 X:07 Y:00 P:75 SP:F9
ADBA  00        BRK                             A:60 X:07 Y:00 P:75 SP:F9
ADBB  00        BRK                             A:60 X:07 Y:00 P:75 SP:F9
ADBC  00        BRK                             A:60 X:07 Y:00 P:75 SP:F9
ADBD  00        BRK                             A:60 X:07 Y:00 P:75 SP:F9
ADBE  00        BRK                             A:60 X:07 Y:00 P:75 SP:F9
ADBF  00        BRK                             A:60 X:07 Y:00 P:75 SP:F9
ADC0  00        BRK                             A:60 X:07 Y:00 P:75 SP:F9
ADC1  00        BRK                             A:60 X:07 Y:00 P:75 SP:F9
ADC2  00        BRK                             A:60 X:07 Y:00 P:75 SP:F9
ADC3  00        BRK                             A:60 X:07 Y:00 P:75 SP:F9
ADC4  00        BRK                             A:60 X:07 Y:00 P:75 SP:F9
ADC5  00        BRK                             A:60 X:07 Y:00 P:75 SP:F9
ADC6  00        BRK                             A:60 X:07 Y:00 P:75 SP:F9
ADC7  00        BRK                             A:60 X:07 Y:00 P:75 SP:F9
ADC8  00        BRK                             A:60 X:07 Y:00 P:75 SP:F9
ADC9  00        BRK                             A:60 X:07 Y:00 P:75 SP:F9
ADCA  00        BRK                             A:60 X:07 Y:00 P:75 SP:F9
ADCB  00        BRK                             A:60 X:07 Y:00 P:75 SP:F9
ADCC  00        BRK                             A:60 X:07 Y:00 P:75 SP:F9
ADCD  00        BRK                             A:60 X:07 Y:00 P:75 SP:F9
ADCE  00        BRK                             A:60 X:07 Y:00 P:75 SP:F9
ADCF  00        BRK                             A:60 X:07 Y:00 P:75 SP:F9
ADD0  00        BRK                             A:60 X:07 Y:00 P:75 SP:F9
ADD1  00        BRK                             A:60 X:07 Y:00 P:75 SP:F9
ADD2  00        BRK                             A:60 X:07 Y:00 P:75 SP:F9
ADD3  00        BRK                             A:60 X:07 Y:00 P:75 SP:F9
ADD4  00        BRK                             A:60 X:07 Y:00 P:75 SP:F9
ADD5  00        BRK                             A:60 X:07 Y:00 P:75 SP:F9
ADD6  00        BRK                             A:60 X:07 Y:00 P:75 SP:F9
ADD7  00        BRK                             A:60 X:07 Y:00 P:75 SP:F9
ADD8  00        BRK                             A:60 X:07 Y:00 P:75 SP:F9
ADD9  00        BRK                             A:60 X:07 Y:00 P:75 SP:F9
ADDA  00        BRK                             A:60 X:07 Y:00 P:75 SP:F9
ADDB  00        BRK                             A:60 X:07 Y:00 P:75 SP:F9
ADDC  00        BRK                             A:60 X:07 Y:00 P:75 SP:F9
ADDD  00        BRK                             A:60 X:07 Y:00 P:75 SP:F9
ADDE  00        BRK                             A:60 X:07 Y:00 P:75 SP:F9
ADDF  00        BRK                             A:60 X:07 Y:00 P:75 SP:F9
ADE0  00        BRK                             A:60 X:07 Y:00 P:75 SP:F9
ADE1  00        BRK                             A:60 X:07 Y:00 P:75 SP:F9
ADE2  00        BRK                             A:60 X:07 Y:00 P:75 SP:F9
ADE3  00        BRK                             A:60 X:07 Y:00 P:75 SP:F9
ADE4  00        BRK                             A:60 X:07 Y:00 P:75 SP:F9
ADE5  00        BRK                             A:60 X:07 Y:00 P:75 SP:F9
ADE6  00        BRK                             A:60 X:07 Y:00 P:75 SP:F9
ADE7  00        BRK                             A:60 X:07 Y:00 P:75 SP:F9
ADE8  00        BRK                             A:60 X:07 Y:00 P:75 SP:F9
ADE9  00        BRK                             A:60 X:07 Y:00 P:75 SP:F9
ADEA  00        BRK                             A:60 X:07 Y:00 P:75 SP:F9
ADEB  00        BRK                             A:60 X:07 Y:00 P:75 SP:F9
ADEC  00        BRK                             A:60 X:07 Y:00 P:75 SP:F9
ADED  00        BRK                             A:60 X:07 Y:00 P:75 SP:F9
ADEE  00        BRK                             A:60 X:07 Y:00 P:75 SP:F9
ADEF  00        BRK                             A:60 X:07 Y:00 P:75 SP:F9
ADF0  00        BRK                             A:60 X:07 Y:00 P:75 SP:F9
ADF1  00        BRK                             A:60 X:07 Y:00 P:75 SP:F9
ADF2  00        BRK                             A:60 X:07 Y:00 P:75 SP:F9
ADF3  00        BRK                             A:60 X:07 Y:00 P:75 SP:F9
ADF4  00        BRK                             A:60 X:07 Y:00 P:75 SP:F9
ADF5  00        BRK                             A:60 X:07 Y:00 P:75 SP:F9
ADF6  00        BRK                             A:60 X:07 Y:00 P:75 SP:F9
ADF7  00        BRK                             A:60 X:07 Y:00 P:75 SP:F9
ADF8  00        BRK                             A:60 X:07 Y:00 P:75 SP:F9
ADF9  00        BRK                             A:60 X:07 Y:00 P:75 SP:F9
ADFA  00        BRK                             A:60 X:07 Y:00 P:75 SP:F9
ADFB  00        BRK                             A:60 X:07 Y:00 P:75 SP:F9
ADFC  00        BRK                             A:60 X:07 Y:00 P:75 SP:F9
ADFD  00        BRK                             A:60 X:07 Y:00 P:75 SP:F9
ADFE  00        BRK                             A:60 X:07 Y:00 P:75 SP:F9
ADFF  00        BRK                             A:60 X:07 Y:00 P:75 SP:F9
AE00  00        BRK                             A:60 X:07 Y:00 P:75 SP:F9
AE01  00        BRK                             A:60 X:07 Y:00 P:75 SP:F9
AE02  00        BRK                             A:60 X:07 Y:00 P:75 SP:F9
AE03  00        BRK                             A:60 X:07 Y:00 P:75 SP:F9
AE04  00        BRK                             A:60 X:07 Y:00 P:75 SP:F9
AE05  00        BRK                             A:60 X:07 Y:00 P:75 SP:F9
AE06  00        BRK                             A:60 X:07 Y:00 P:75 SP:F9
AE07  00        BRK                             A:60 X:07 Y:00 P:75 SP:F9
AE08  00        BRK                             A:60 X:07 Y:00 P:75 SP:F9
AE09  00        BRK                             A:60 X:07 Y:00 P:75 SP:F9
AE0A  00        BRK                             A:60 X:07 Y:00 P:75 SP:F9
AE0B  00        BRK                             A:60 X:07 Y:00 P:75 SP:F9
AE0C  00        BRK                             A:60 X:07 Y:00 P:75 SP:F9
AE0D  00        BRK                             A:60 X:07 Y:00 P:75 SP:F9
AE0E  00        BRK                             A:60 X:07 Y:00 P:75 SP:F9
AE0F  00        BRK                             A:60 X:07 Y:00 P:75 SP:F9
AE10  00        BRK                             A:60 X:07 Y:00 P:75 SP:F9
AE11  00        BRK                             A:60 X:07 Y:00 P:75 SP:F9
AE12  00        BRK                             A:60 X:07 Y:00 P:75 SP:F9
AE13  00        BRK                             A:60 X:07 Y:00 P:75 SP:F9
AE14  00        BRK                             A:60 X:07 Y:00 P:75 SP:F9
AE15  00        BRK                             A:60 X:07 Y:00 P:75 SP:F9
AE16  00        BRK                             A:60 X:07 Y:00 P:75 SP:F9
AE17  00        BRK                             A:60 X:07 Y:00 P:75 SP:F9
AE18  00        BRK                             A:60 X:07 Y:00 P:75 SP:F9
AE19  00        BRK                             A:60 X:07 Y:00 P:75 SP:F9
AE1A  00        BRK                             A:60 X:07 Y:00 P:75 SP:F9
AE1B  00        BRK                             A:60 X:07 Y:00 P:75 SP:F9
AE1C  00        BRK                             A:60 X:07 Y:00 P:75 SP:F9
AE1D  00        BRK                             A:60 X:07 Y:00 P:75 SP:F9
AE1E  00        BRK                             A:60 X:07 Y:00 P:75 SP:F9
AE1F  00        BRK                             A:60 X:07 Y:00 P:75 SP:F9
AE20  00        BRK                             A:60 X:07 Y:00 P:75 SP:F9
AE21  00        BRK                             A:60 X:07 Y:00 P:75 SP:F9
AE22  00        BRK                             A:60 X:07 Y:00 P:75 SP:F9
AE23  00        BRK                             A:60 X:07 Y:00 P:75 SP:F9
AE24  00        BRK                             A:60 X:07 Y:00 P:75 SP:F9
AE25  00        BRK                             A:60 X:07 Y:00 P:75 SP:F9
AE26  00        BRK                             A:60 X:07 Y:00 P:75 SP:F9
AE27  00        BRK                             A:60 X:07 Y:00 P:75 SP:F9
AE28  00        BRK                             A:60 X:07 Y:00 P:75 SP:F9
AE29  00        BRK                             A:60 X:07 Y:00 P:75 SP:F9
AE2A  00        BRK                             A:60 X:07 Y:00 P:75 SP:F9
AE2B  00        BRK                             A:60 X:07 Y:00 P:75 SP:F9
AE2C  00        BRK                             A:60 X:07 Y:00 P:75 SP:F9
AE2D  00        BRK                             A:60 X:07 Y:00 P:75 SP:F9
AE2E  00        BRK                             A:60 X:07 Y:00 P:75 SP:F9
AE2F  00        BRK                             A:60 X:07 Y:00 P:75 SP:F9
AE30  00        BRK                             A:60 X:07 Y:00 P:75 SP:F9
AE31  00        BRK                             A:60 X:07 Y:00 P:75 SP:F9
AE32  00        BRK                             A:60 X:07 Y:00 P:75 SP:F9
AE33  00        BRK                             A:60 X:07 Y:00 P:75 SP:F9
AE34  00        BRK                             A:60 X:07 Y:00 P:75 SP:F9
AE35  00        BRK                             A:60 X:07 Y:00 P:75 SP:F9
AE36  00        BRK                             A:60 X:07 Y:00 P:75 SP:F9
AE37  00        BRK                             A:60 X:07 Y:00 P:75 SP:F9
AE38  00        BRK                             A:60 X:07 Y:00 P:75 SP:F9
AE39  00        BRK                             A:60 X:07 Y:00 P:75 SP:F9
AE3A  00        BRK                             A:60 X:07 Y:00 P:75 SP:F9
AE3B  00        BRK                             A:60 X:07 Y:00 P:75 SP:F9
AE3C  00        BRK                             A:60 X:07 Y:00 P:75 SP:F9
AE3D  00        BRK                             A:60 X:07 Y:00 P:75 SP:F9
AE3E  00        BRK                             A:60 X:07 Y:00 P:75 SP:F9
AE3F  00        BRK                             A:60 X:07 Y:00 P:75 SP:F9
AE40  00        BRK                             A:60 X:07 Y:00 P:75 SP:F9
AE41  00        BRK                             A:60 X:07 Y:00 P:75 SP:F9
AE42  00        BRK                             A:60 X:07 Y:00 P:75 SP:F9
AE43  00        BRK                             A:60 X:07 Y:00 P:75 SP:F9
AE44  00        BRK                             A:60 X:07 Y:00 P:75 SP:F9
AE45  00        BRK                             A:60 X:07 Y:00 P:75 SP:F9
AE46  00        BRK                             A:60 X:07 Y:00 P:75 SP:F9
AE47  00        BRK                             A:60 X:07 Y:00 P:75 SP:F9
AE48  00        BRK                             A:60 X:07 Y:00 P:75 SP:F9
AE49  00        BRK                             A:60 X:07 Y:00 P:75 SP:F9
AE4A  00        BRK                             A:60 X:07 Y:00 P:75 SP:F9
AE4B  00        BRK                             A:60 X:07 Y:00 P:75 SP:F9
AE4C  00        BRK                             A:60 X:07 Y:00 P:75 SP:F9
AE4D  00        BRK                             A:60 X:07 Y:00 P:75 SP:F9
AE4E  00        BRK                             A:60 X:07 Y:00 P:75 SP:F9
AE4F  00        BRK                             A:60 X:07 Y:00 P:75 SP:F9
AE50  00        BRK                             A:60 X:07 Y:00 P:75 SP:F9
AE51  00        BRK                             A:60 X:07 Y:00 P:75 SP:F9
AE52  00        BRK                             A:60 X:07 Y:00 P:75 SP:F9
AE53  00        BRK                             A:60 X:07 Y:00 P:75 SP:F9
AE54  00        BRK                             A:60 X:07 Y:00 P:75 SP:F9
AE55  00        BRK                             A:60 X:07 Y:00 P:75 SP:F9
AE56  00        BRK                             A:60 X:07 Y:00 P:75 SP:F9
AE57  00        BRK                             A:60 X:07 Y:00 P:75 SP:F9
AE58  00        BRK                             A:60 X:07 Y:00 P:75 SP:F9
AE59  00        BRK                             A:60 X:07 Y:00 P:75 SP:F9
AE5A  00        BRK                             A:60 X:07 Y:00 P:75 SP:F9
AE5B  00        BRK                             A:60 X:07 Y:00 P:75 SP:F9
AE5C  00        BRK                             A:60 X:07 Y:00 P:75 SP:F9
AE5D  00        BRK                             A:60 X:07 Y:00 P:75 SP:F9
AE5E  00        BRK                             A:60 X:07 Y:00 P:75 SP:F9
AE5F  00        BRK                             A:60 X:07 Y:00 P:75 SP:F9
AE60  00        BRK                             A:60 X:07 Y:00 P:75 SP:F9
AE61  00        BRK                             A:60 X:07 Y:00 P:75 SP:F9
AE62  00        BRK                             A:60 X:07 Y:00 P:75 SP:F9
AE63  00        BRK                             A:60 X:07 Y:00 P:75 SP:F9
AE64  00        BRK                             A:60 X:07 Y:00 P:75 SP:F9
AE65  00        BRK                             A:60 X:07 Y:00 P:75 SP:F9
AE66  00        BRK                             A:60 X:07 Y:00 P:75 SP:F9
AE67  00        BRK                             A:60 X:07 Y:00 P:75 SP:F9
AE68  00        BRK                             A:60 X:07 Y:00 P:75 SP:F9
AE69  00        BRK                             A:60 X:07 Y:00 P:75 SP:F9
AE6A  00        BRK                             A:60 X:07 Y:00 P:75 SP:F9
AE6B  00        BRK                             A:60 X:07 Y:00 P:75 SP:F9
AE6C  00        BRK                             A:60 X:07 Y:00 P:75 SP:F9
AE6D  00        BRK                             A:60 X:07 Y:00 P:75 SP:F9
AE6E  00        BRK                             A:60 X:07 Y:00 P:75 SP:F9
AE6F  00        BRK                             A:60 X:07 Y:00 P:75 SP:F9
AE70  00        BRK                             A:60 X:07 Y:00 P:75 SP:F9
AE71  00        BRK                             A:60 X:07 Y:00 P:75 SP:F9
AE72  00        BRK                             A:60 X:07 Y:00 P:75 SP:F9
AE73  00        BRK                             A:60 X:07 Y:00 P:75 SP:F9
AE74  00        BRK                             A:60 X:07 Y:00 P:75 SP:F9
AE75  00        BRK                             A:60 X:07 Y:00 P:75 SP:F9
AE76  00        BRK                             A:60 X:07 Y:00 P:75 SP:F9
AE77  00        BRK                             A:60 X:07 Y:00 P:75 SP:F9
AE78  00        BRK                             A:60 X:07 Y:00 P:75 SP:F9
AE79  00        BRK                             A:60 X:07 Y:00 P:75 SP:F9
AE7A  00        BRK                             A:60 X:07 Y:00 P:75 SP:F9
AE7B  00        BRK                             A:60 X:07 Y:00 P:75 SP:F9
AE7C  00        BRK                             A:60 X:07 Y:00 P:75 SP:F9
AE7D  00        BRK                             A:60 X:07 Y:00 P:75 SP:F9
AE7E  00        BRK                             A:60 X:07 Y:00 P:75 SP:F9
AE7F  00        BRK                             A:60 X:07 Y:00 P:75 SP:F9
AE80  00        BRK                             A:60 X:07 Y:00 P:75 SP:F9
AE81  00        BRK                             A:60 X:07 Y:00 P:75 SP:F9
AE82  00        BRK                             A:60 X:07 Y:00 P:75 SP:F9
AE83  00        BRK                             A:60 X:07 Y:00 P:75 SP:F9
AE84  00        BRK                             A:60 X:07 Y:00 P:75 SP:F9
AE85  00        BRK                             A:60 X:07 Y:00 P:75 SP:F9
AE86  00        BRK                             A:60 X:07 Y:00 P:75 SP:F9
AE87  00        BRK                             A:60 X:07 Y:00 P:75 SP:F9
AE88  00        BRK                             A:60 X:07 Y:00 P:75 SP:F9
AE89  00        BRK                             A:60 X:07 Y:00 P:75 SP:F9
AE8A  00        BRK                             A:60 X:07 Y:00 P:75 SP:F9
AE8B  00        BRK                             A:60 X:07 Y:00 P:75 SP:F9
AE8C  00        BRK                             A:60 X:07 Y:00 P:75 SP:F9
AE8D  00        BRK                             A:60 X:07 Y:00 P:75 SP:F9
AE8E  00        BRK                             A:60 X:07 Y:00 P:75 SP:F9
AE8F  00        BRK                             A:60 X:07 Y:00 P:75 SP:F9
AE90  00        BRK                             A:60 X:07 Y:00 P:75 SP:F9
AE91  00        BRK                             A:60 X:07 Y:00 P:75 SP:F9
AE92  00        BRK                             A:60 X:07 Y:00 P:75 SP:F9
AE93  00        BRK                             A:60 X:07 Y:00 P:75 SP:F9
AE94  00        BRK                             A:60 X:07 Y:00 P:75 SP:F9
AE95  00        BRK                             A:60 X:07 Y:00 P:75 SP:F9
AE96  00        BRK                             A:60 X:07 Y:00 P:75 SP:F9
AE97  00        BRK                             A:60 X:07 Y:00 P:75 SP:F9
AE98  00        BRK                             A:60 X:07 Y:00 P:75 SP:F9
AE99  00        BRK                             A:60 X:07 Y:00 P:75 SP:F9
AE9A  00        BRK                             A:60 X:07 Y:00 P:75 SP:F9
AE9B  00        BRK                             A:60 X:07 Y:00 P:75 SP:F9
AE9C  00        BRK                             A:60 X:07 Y:00 P:75 SP:F9
AE9D  00        BRK                             A:60 X:07 Y:00 P:75 SP:F9
AE9E  00        BRK                             A:60 X:07 Y:00 P:75 SP:F9
AE9F  00        BRK                             A:60 X:07 Y:00 P:75 SP:F9
AEA0  00        BRK                             A:60 X:07 Y:00 P:75 SP:F9
AEA1  00        BRK                             A:60 X:07 Y:00 P:75 SP:F9
AEA2  00        BRK                             A:60 X:07 Y:00 P:75 SP:F9
AEA3  00        BRK                             A:60 X:07 Y:00 P:75 SP:F9
AEA4  00        BRK                             A:60 X:07 Y:00 P:75 SP:F9
AEA5  00        BRK                             A:60 X:07 Y:00 P:75 SP:F9
AEA6  00        BRK                             A:60 X:07 Y:00 P:75 SP:F9
AEA7  00        BRK                             A:60 X:07 Y:00 P:75 SP:F9
AEA8  00        BRK                             A:60 X:07 Y:00 P:75 SP:F9
AEA9  00        BRK                             A:60 X:07 Y:00 P:75 SP:F9
AEAA  00        BRK                             A:60 X:07 Y:00 P:75 SP:F9
AEAB  00        BRK                             A:60 X:07 Y:00 P:75 SP:F9
AEAC  00        BRK                             A:60 X:07 Y:00 P:75 SP:F9
AEAD  00        BRK                             A:60 X:07 Y:00 P:75 SP:F9
AEAE  00        BRK                             A:60 X:07 Y:00 P:75 SP:F9
AEAF  00        BRK                             A:60 X:07 Y:00 P:75 SP:F9
AEB0  00        BRK                             A:60 X:07 Y:00 P:75 SP:F9
AEB1  00        BRK                             A:60 X:07 Y:00 P:75 SP:F9
AEB2  00        BRK                             A:60 X:07 Y:00 P:75 SP:F9
AEB3  00        BRK                             A:60 X:07 Y:00 P:75 SP:F9
AEB4  00        BRK                             A:60 X:07 Y:00 P:75 SP:F9
AEB5  00        BRK                             A:60 X:07 Y:00 P:75 SP:F9
AEB6  00        BRK                             A:60 X:07 Y:00 P:75 SP:F9
AEB7  00        BRK                             A:60 X:07 Y:00 P:75 SP:F9
AEB8  00        BRK                             A:60 X:07 Y:00 P:75 SP:F9
AEB9  00        BRK                             A:60 X:07 Y:00 P:75 SP:F9
AEBA  00        BRK                             A:60 X:07 Y:00 P:75 SP:F9
AEBB  00        BRK                             A:60 X:07 Y:00 P:75 SP:F9
AEBC  00        BRK                             A:60 X:07 Y:00 P:75 SP:F9
AEBD  00        BRK                             A:60 X:07 Y:00 P:75 SP:F9
AEBE  00        BRK                             A:60 X:07 Y:00 P:75 SP:F9
AEBF  00        BRK                             A:60 X:07 Y:00 P:75 SP:F9
AEC0  00        BRK                             A:60 X:07 Y:00 P:75 SP:F9
AEC1  00        BRK                             A:60 X:07 Y:00 P:75 SP:F9
AEC2  00        BRK                             A:60 X:07 Y:00 P:75 SP:F9
AEC3  00        BRK                             A:60 X:07 Y:00 P:75 SP:F9
AEC4  00        BRK                             A:60 X:07 Y:00 P:75 SP:F9
AEC5  00        BRK                             A:60 X:07 Y:00 P:75 SP:F9
AEC6  00        BRK                             A:60 X:07 Y:00 P:75 SP:F9
AEC7  00        BRK                             A:60 X:07 Y:00 P:75 SP:F9
AEC8  00        BRK                             A:60 X:07 Y:00 P:75 SP:F9
AEC9  00        BRK                             A:60 X:07 Y:00 P:75 SP:F9
AECA  00        BRK                             A:60 X:07 Y:00 P:75 SP:F9
AECB  00        BRK                             A:60 X:07 Y:00 P:75 SP:F9
AECC  00        BRK                             A:60 X:07 Y:00 P:75 SP:F9
AECD  00        BRK                             A:60 X:07 Y:00 P:75 SP:F9
AECE  00        BRK                             A:60 X:07 Y:00 P:75 SP:F9
AECF  00        BRK                             A:60 X:07 Y:00 P:75 SP:F9
AED0  00        BRK                             A:60 X:07 Y:00 P:75 SP:F9
AED1  00        BRK                             A:60 X:07 Y:00 P:75 SP:F9
AED2  00        BRK                             A:60 X:07 Y:00 P:75 SP:F9
AED3  00        BRK                             A:60 X:07 Y:00 P:75 SP:F9
AED4  00        BRK                             A:60 X:07 Y:00 P:75 SP:F9
AED5  00        BRK                             A:60 X:07 Y:00 P:75 SP:F9
AED6  00        BRK                             A:60 X:07 Y:00 P:75 SP:F9
AED7  00        BRK                             A:60 X:07 Y:00 P:75 SP:F9
AED8  00        BRK                             A:60 X:07 Y:00 P:75 SP:F9
AED9  00        BRK                             A:60 X:07 Y:00 P:75 SP:F9
AEDA  00        BRK                             A:60 X:07 Y:00 P:75 SP:F9
AEDB  00        BRK                             A:60 X:07 Y:00 P:75 SP:F9
AEDC  00        BRK                             A:60 X:07 Y:00 P:75 SP:F9
AEDD  00        BRK                             A:60 X:07 Y:00 P:75 SP:F9
AEDE  00        BRK                             A:60 X:07 Y:00 P:75 SP:F9
AEDF  00        BRK                             A:60 X:07 Y:00 P:75 SP:F9
AEE0  00        BRK                             A:60 X:07 Y:00 P:75 SP:F9
AEE1  00        BRK                             A:60 X:07 Y:00 P:75 SP:F9
AEE2  00        BRK                             A:60 X:07 Y:00 P:75 SP:F9
AEE3  00        BRK                             A:60 X:07 Y:00 P:75 SP:F9
AEE4  00        BRK                             A:60 X:07 Y:00 P:75 SP:F9
AEE5  00        BRK                             A:60 X:07 Y:00 P:75 SP:F9
AEE6  00        BRK                             A:60 X:07 Y:00 P:75 SP:F9
AEE7  00        BRK                             A:60 X:07 Y:00 P:75 SP:F9
AEE8  00        BRK                             A:60 X:07 Y:00 P:75 SP:F9
AEE9  00        BRK                             A:60 X:07 Y:00 P:75 SP:F9
AEEA  00        BRK                             A:60 X:07 Y:00 P:75 SP:F9
AEEB  00        BRK                             A:60 X:07 Y:00 P:75 SP:F9
AEEC  00        BRK                             A:60 X:07 Y:00 P:75 SP:F9
AEED  00        BRK                             A:60 X:07 Y:00 P:75 SP:F9
AEEE  00        BRK                             A:60 X:07 Y:00 P:75 SP:F9
AEEF  00        BRK                             A:60 X:07 Y:00 P:75 SP:F9
AEF0  00        BRK                             A:60 X:07 Y:00 P:75 SP:F9
AEF1  00        BRK                             A:60 X:07 Y:00 P:75 SP:F9
AEF2  00        BRK                             A:60 X:07 Y:00 P:75 SP:F9
AEF3  00        BRK                             A:60 X:07 Y:00 P:75 SP:F9
AEF4  00        BRK                             A:60 X:07 Y:00 P:75 SP:F9
AEF5  00        BRK                             A:60 X:07 Y:00 P:75 SP:F9
AEF6  00        BRK                             A:60 X:07 Y:00 P:75 SP:F9
AEF7  00        BRK                             A:60 X:07 Y:00 P:75 SP:F9
AEF8  00        BRK                             A:60 X:07 Y:00 P:75 SP:F9
AEF9  00        BRK                             A:60 X:07 Y:00 P:75 SP:F9
AEFA  00        BRK                             A:60 X:07 Y:00 P:75 SP:F9
AEFB  00        BRK                             A:60 X:07 Y:00 P:75 SP:F9
AEFC  00        BRK                             A:60 X:07 Y:00 P:75 SP:F9
AEFD  00        BRK                             A:60 X:07 Y:00 P:75 SP:F9
AEFE  00        BRK                             A:60 X:07 Y:00 P:75 SP:F9
AEFF  00        BRK                             A:60 X:07 Y:00 P:75 SP:F9
AF00  00        BRK                             A:60 X:07 Y:00 P:75 SP:F9
AF01  00        BRK                             A:60 X:07 Y:00 P:75 SP:F9
AF02  00        BRK                             A:60 X:07 Y:00 P:75 SP:F9
AF03  00        BRK                             A:60 X:07 Y:00 P:75 SP:F9
AF04  00        BRK                             A:60 X:07 Y:00 P:75 SP:F9
AF05  00        BRK                             A:60 X:07 Y:00 P:75 SP:F9
AF06  00        BRK                             A:60 X:07 Y:00 P:75 SP:F9
AF07  00        BRK                             A:60 X:07 Y:00 P:75 SP:F9
AF08  00        BRK                             A:60 X:07 Y:00 P:75 SP:F9
AF09  00        BRK                             A:60 X:07 Y:00 P:75 SP:F9
AF0A  00        BRK                             A:60 X:07 Y:00 P:75 SP:F9
AF0B  00        BRK                             A:60 X:07 Y:00 P:75 SP:F9
AF0C  00        BRK                             A:60 X:07 Y:00 P:75 SP:F9
AF0D  00        BRK                             A:60 X:07 Y:00 P:75 SP:F9
AF0E  00        BRK                             A:60 X:07 Y:00 P:75 SP:F9
AF0F  00        BRK                             A:60 X:07 Y:00 P:75 SP:F9
AF10  00        BRK                             A:60 X:07 Y:00 P:75 SP:F9
AF11  00        BRK                             A:60 X:07 Y:00 P:75 SP:F9
AF12  00        BRK                             A:60 X:07 Y:00 P:75 SP:F9
AF13  00        BRK                             A:60 X:07 Y:00 P:75 SP:F9
AF14  00        BRK                             A:60 X:07 Y:00 P:75 SP:F9
AF15  00        BRK                             A:60 X:07 Y:00 P:75 SP:F9
AF16  00        BRK                             A:60 X:07 Y:00 P:75 SP:F9
AF17  00        BRK                             A:60 X:07 Y:00 P:75 SP:F9
AF18  00        BRK                             A:60 X:07 Y:00 P:75 SP:F9
AF19  00        BRK                             A:60 X:07 Y:00 P:75 SP:F9
AF1A  00        BRK                             A:60 X:07 Y:00 P:75 SP:F9
AF1B  00        BRK                             A:60 X:07 Y:00 P:75 SP:F9
AF1C  00        BRK                             A:60 X:07 Y:00 P:75 SP:F9
AF1D  00        BRK                             A:60 X:07 Y:00 P:75 SP:F9
AF1E  00        BRK                             A:60 X:07 Y:00 P:75 SP:F9
AF1F  00        BRK                             A:60 X:07 Y:00 P:75 SP:F9
AF20  00        BRK                             A:60 X:07 Y:00 P:75 SP:F9
AF21  00        BRK                             A:60 X:07 Y:00 P:75 SP:F9
AF22  00        BRK                             A:60 X:07 Y:00 P:75 SP:F9
AF23  00        BRK                             A:60 X:07 Y:00 P:75 SP:F9
AF24  00        BRK                             A:60 X:07 Y:00 P:75 SP:F9
AF25  00        BRK                             A:60 X:07 Y:00 P:75 SP:F9
AF26  00        BRK                             A:60 X:07 Y:00 P:75 SP:F9
AF27  00        BRK                             A:60 X:07 Y:00 P:75 SP:F9
AF28  00        BRK                             A:60 X:07 Y:00 P:75 SP:F9
AF29  00        BRK                             A:60 X:07 Y:00 P:75 SP:F9
AF2A  00        BRK                             A:60 X:07 Y:00 P:75 SP:F9
AF2B  00        BRK                             A:60 X:07 Y:00 P:75 SP:F9
AF2C  00        BRK                             A:60 X:07 Y:00 P:75 SP:F9
AF2D  00        BRK                             A:60 X:07 Y:00 P:75 SP:F9
AF2E  00        BRK                             A:60 X:07 Y:00 P:75 SP:F9
AF2F  00        BRK                             A:60 X:07 Y:00 P:75 SP:F9
AF30  00        BRK                             A:60 X:07 Y:00 P:75 SP:F9
AF31  00        BRK                             A:60 X:07 Y:00 P:75 SP:F9
AF32  00        BRK                             A:60 X:07 Y:00 P:75 SP:F9
AF33  00        BRK                             A:60 X:07 Y:00 P:75 SP:F9
AF34  00        BRK                             A:60 X:07 Y:00 P:75 SP:F9
AF35  00        BRK                             A:60 X:07 Y:00 P:75 SP:F9
AF36  00        BRK                             A:60 X:07 Y:00 P:75 SP:F9
AF37  00        BRK                             A:60 X:07 Y:00 P:75 SP:F9
AF38  00        BRK                             A:60 X:07 Y:00 P:75 SP:F9
AF39  00        BRK                             A:60 X:07 Y:00 P:75 SP:F9
AF3A  00        BRK                             A:60 X:07 Y:00 P:75 SP:F9
AF3B  00        BRK                             A:60 X:07 Y:00 P:75 SP:F9
AF3C  00        BRK                             A:60 X:07 Y:00 P:75 SP:F9
AF3D  00        BRK                             A:60 X:07 Y:00 P:75 SP:F9
AF3E  00        BRK                             A:60 X:07 Y:00 P:75 SP:F9
AF3F  00        BRK                             A:60 X:07 Y:00 P:75 SP:F9
AF40  00        BRK                             A:60 X:07 Y:00 P:75 SP:F9
AF41  00        BRK                             A:60 X:07 Y:00 P:75 SP:F9
AF42  00        BRK                             A:60 X:07 Y:00 P:75 SP:F9
AF43  00        BRK                             A:60 X:07 Y:00 P:75 SP:F9
AF44  00        BRK                             A:60 X:07 Y:00 P:75 SP:F9
AF45  00        BRK                             A:60 X:07 Y:00 P:75 SP:F9
AF46  00        BRK                             A:60 X:07 Y:00 P:75 SP:F9
AF47  00        BRK                             A:60 X:07 Y:00 P:75 SP:F9
AF48  00        BRK                             A:60 X:07 Y:00 P:75 SP:F9
AF49  00        BRK                             A:60 X:07 Y:00 P:75 SP:F9
AF4A  00        BRK                             A:60 X:07 Y:00 P:75 SP:F9
AF4B  00        BRK                             A:60 X:07 Y:00 P:75 SP:F9
AF4C  00        BRK                             A:60 X:07 Y:00 P:75 SP:F9
AF4D  00        BRK                             A:60 X:07 Y:00 P:75 SP:F9
AF4E  00        BRK                             A:60 X:07 Y:00 P:75 SP:F9
AF4F  00        BRK                             A:60 X:07 Y:00 P:75 SP:F9
AF50  00        BRK                             A:60 X:07 Y:00 P:75 SP:F9
AF51  00        BRK                             A:60 X:07 Y:00 P:75 SP:F9
AF52  00        BRK                             A:60 X:07 Y:00 P:75 SP:F9
AF53  00        BRK                             A:60 X:07 Y:00 P:75 SP:F9
AF54  00        BRK                             A:60 X:07 Y:00 P:75 SP:F9
AF55  00        BRK                             A:60 X:07 Y:00 P:75 SP:F9
AF56  00        BRK                             A:60 X:07 Y:00 P:75 SP:F9
AF57  00        BRK                             A:60 X:07 Y:00 P:75 SP:F9
AF58  00        BRK                             A:60 X:07 Y:00 P:75 SP:F9
AF59  00        BRK                             A:60 X:07 Y:00 P:75 SP:F9
AF5A  00        BRK                             A:60 X:07 Y:00 P:75 SP:F9
AF5B  00        BRK                             A:60 X:07 Y:00 P:75 SP:F9
AF5C  00        BRK                             A:60 X:07 Y:00 P:75 SP:F9
AF5D  00        BRK                             A:60 X:07 Y:00 P:75 SP:F9
AF5E  00        BRK                             A:60 X:07 Y:00 P:75 SP:F9
AF5F  00        BRK                             A:60 X:07 Y:00 P:75 SP:F9
AF60  00        BRK                             A:60 X:07 Y:00 P:75 SP:F9
AF61  00        BRK                             A:60 X:07 Y:00 P:75 SP:F9
AF62  00        BRK                             A:60 X:07 Y:00 P:75 SP:F9
AF63  00        BRK                             A:60 X:07 Y:00 P:75 SP:F9
AF64  00        BRK                             A:60 X:07 Y:00 P:75 SP:F9
AF65  00        BRK                             A:60 X:07 Y:00 P:75 SP:F9
AF66  00        BRK                             A:60 X:07 Y:00 P:75 SP:F9
AF67  00        BRK                             A:60 X:07 Y:00 P:75 SP:F9
AF68  00        BRK                             A:60 X:07 Y:00 P:75 SP:F9
AF69  00        BRK                             A:60 X:07 Y:00 P:75 SP:F9
AF6A  00        BRK                             A:60 X:07 Y:00 P:75 SP:F9
AF6B  00        BRK                             A:60 X:07 Y:00 P:75 SP:F9
AF6C  00        BRK                             A:60 X:07 Y:00 P:75 SP:F9
AF6D  00        BRK                             A:60 X:07 Y:00 P:75 SP:F9
AF6E  00        BRK                             A:60 X:07 Y:00 P:75 SP:F9
AF6F  00        BRK                             A:60 X:07 Y:00 P:75 SP:F9
AF70  00        BRK                             A:60 X:07 Y:00 P:75 SP:F9
AF71  00        BRK                             A:60 X:07 Y:00 P:75 SP:F9
AF72  00        BRK                             A:60 X:07 Y:00 P:75 SP:F9
AF73  00        BRK                             A:60 X:07 Y:00 P:75 SP:F9
AF74  00        BRK                             A:60 X:07 Y:00 P:75 SP:F9
AF75  00        BRK                             A:60 X:07 Y:00 P:75 SP:F9
AF76  00        BRK                             A:60 X:07 Y:00 P:75 SP:F9
AF77  00        BRK                             A:60 X:07 Y:00 P:75 SP:F9
AF78  00        BRK                             A:60 X:07 Y:00 P:75 SP:F9
AF79  00        BRK                             A:60 X:07 Y:00 P:75 SP:F9
AF7A  00        BRK                             A:60 X:07 Y:00 P:75 SP:F9
AF7B  00        BRK                             A:60 X:07 Y:00 P:75 SP:F9
AF7C  00        BRK                             A:60 X:07 Y:00 P:75 SP:F9
AF7D  00        BRK                             A:60 X:07 Y:00 P:75 SP:F9
AF7E  00        BRK                             A:60 X:07 Y:00 P:75 SP:F9
AF7F  00        BRK                             A:60 X:07 Y:00 P:75 SP:F9
AF80  00        BRK                             A:60 X:07 Y:00 P:75 SP:F9
AF81  00        BRK                             A:60 X:07 Y:00 P:75 SP:F9
AF82  00        BRK                             A:60 X:07 Y:00 P:75 SP:F9
AF83  00        BRK                             A:60 X:07 Y:00 P:75 SP:F9
AF84  00        BRK                             A:60 X:07 Y:00 P:75 SP:F9
AF85  00        BRK                             A:60 X:07 Y:00 P:75 SP:F9
AF86  00        BRK                             A:60 X:07 Y:00 P:75 SP:F9
AF87  00        BRK                             A:60 X:07 Y:00 P:75 SP:F9
AF88  00        BRK                             A:60 X:07 Y:00 P:75 SP:F9
AF89  00        BRK                             A:60 X:07 Y:00 P:75 SP:F9
AF8A  00        BRK                             A:60 X:07 Y:00 P:75 SP:F9
AF8B  00        BRK                             A:60 X:07 Y:00 P:75 SP:F9
AF8C  00        BRK                             A:60 X:07 Y:00 P:75 SP:F9
AF8D  00        BRK                             A:60 X:07 Y:00 P:75 SP:F9
AF8E  00        BRK                             A:60 X:07 Y:00 P:75 SP:F9
AF8F  00        BRK                             A:60 X:07 Y:00 P:75 SP:F9
AF90  00        BRK                             A:60 X:07 Y:00 P:75 SP:F9
AF91  00        BRK                             A:60 X:07 Y:00 P:75 SP:F9
AF92  00        BRK                             A:60 X:07 Y:00 P:75 SP:F9
AF93  00        BRK                             A:60 X:07 Y:00 P:75 SP:F9
AF94  00        BRK                             A:60 X:07 Y:00 P:75 SP:F9
AF95  00        BRK                             A:60 X:07 Y:00 P:75 SP:F9
AF96  00        BRK                             A:60 X:07 Y:00 P:75 SP:F9
AF97  00        BRK                             A:60 X:07 Y:00 P:75 SP:F9
AF98  00        BRK                             A:60 X:07 Y:00 P:75 SP:F9
AF99  00        BRK                             A:60 X:07 Y:00 P:75 SP:F9
AF9A  00        BRK                             A:60 X:07 Y:00 P:75 SP:F9
AF9B  00        BRK                             A:60 X:07 Y:00 P:75 SP:F9
AF9C  00        BRK                             A:60 X:07 Y:00 P:75 SP:F9
AF9D  00        BRK                             A:60 X:07 Y:00 P:75 SP:F9
AF9E  00        BRK                             A:60 X:07 Y:00 P:75 SP:F9
AF9F  00        BRK                             A:60 X:07 Y:00 P:75 SP:F9
AFA0  00        BRK                             A:60 X:07 Y:00 P:75 SP:F9
AFA1  00        BRK                             A:60 X:07 Y:00 P:75 SP:F9
AFA2  00        BRK                             A:60 X:07 Y:00 P:75 SP:F9
AFA3  00        BRK                             A:60 X:07 Y:00 P:75 SP:F9
AFA4  00        BRK                             A:60 X:07 Y:00 P:75 SP:F9
AFA5  00        BRK                             A:60 X:07 Y:00 P:75 SP:F9
AFA6  00        BRK                             A:60 X:07 Y:00 P:75 SP:F9
AFA7  00        BRK                             A:60 X:07 Y:00 P:75 SP:F9
AFA8  00        BRK                             A:60 X:07 Y:00 P:75 SP:F9
AFA9  00        BRK                             A:60 X:07 Y:00 P:75 SP:F9
AFAA  00        BRK                             A:60 X:07 Y:00 P:75 SP:F9
AFAB  00        BRK                             A:60 X:07 Y:00 P:75 SP:F9
AFAC  00        BRK                             A:60 X:07 Y:00 P:75 SP:F9
AFAD  00        BRK                             A:60 X:07 Y:00 P:75 SP:F9
AFAE  00        BRK                             A:60 X:07 Y:00 P:75 SP:F9
AFAF  00        BRK                             A:60 X:07 Y:00 P:75 SP:F9
AFB0  00        BRK                             A:60 X:07 Y:00 P:75 SP:F9
AFB1  00        BRK                             A:60 X:07 Y:00 P:75 SP:F9
AFB2  00        BRK                             A:60 X:07 Y:00 P:75 SP:F9
AFB3  00        BRK                             A:60 X:07 Y:00 P:75 SP:F9
AFB4  00        BRK                             A:60 X:07 Y:00 P:75 SP:F9
AFB5  00        BRK                             A:60 X:07 Y:00 P:75 SP:F9
AFB6  00        BRK                             A:60 X:07 Y:00 P:75 SP:F9
AFB7  00        BRK                             A:60 X:07 Y:00 P:75 SP:F9
AFB8  00        BRK                             A:60 X:07 Y:00 P:75 SP:F9
AFB9  00        BRK                             A:60 X:07 Y:00 P:75 SP:F9
AFBA  00        BRK                             A:60 X:07 Y:00 P:75 SP:F9
AFBB  00        BRK                             A:60 X:07 Y:00 P:75 SP:F9
AFBC  00        BRK                             A:60 X:07 Y:00 P:75 SP:F9
AFBD  00        BRK                             A:60 X:07 Y:00 P:75 SP:F9
AFBE  00        BRK                             A:60 X:07 Y:00 P:75 SP:F9
AFBF  00        BRK                             A:60 X:07 Y:00 P:75 SP:F9
AFC0  00        BRK                             A:60 X:07 Y:00 P:75 SP:F9
AFC1  00        BRK                             A:60 X:07 Y:00 P:75 SP:F9
AFC2  00        BRK                             A:60 X:07 Y:00 P:75 SP:F9
AFC3  00        BRK                             A:60 X:07 Y:00 P:75 SP:F9
AFC4  00        BRK                             A:60 X:07 Y:00 P:75 SP:F9
AFC5  00        BRK                             A:60 X:07 Y:00 P:75 SP:F9
AFC6  00        BRK                             A:60 X:07 Y:00 P:75 SP:F9
AFC7  00        BRK                             A:60 X:07 Y:00 P:75 SP:F9
AFC8  00        BRK                             A:60 X:07 Y:00 P:75 SP:F9
AFC9  00        BRK                             A:60 X:07 Y:00 P:75 SP:F9
AFCA  00        BRK                             A:60 X:07 Y:00 P:75 SP:F9
AFCB  00        BRK                             A:60 X:07 Y:00 P:75 SP:F9
AFCC  00        BRK                             A:60 X:07 Y:00 P:75 SP:F9
AFCD  00        BRK                             A:60 X:07 Y:00 P:75 SP:F9
AFCE  00        BRK                             A:60 X:07 Y:00 P:75 SP:F9
AFCF  00        BRK                             A:60 X:07 Y:00 P:75 SP:F9
AFD0  00        BRK                             A:60 X:07 Y:00 P:75 SP:F9
AFD1  00        BRK                             A:60 X:07 Y:00 P:75 SP:F9
AFD2  00        BRK                             A:60 X:07 Y:00 P:75 SP:F9
AFD3  00        BRK                             A:60 X:07 Y:00 P:75 SP:F9
AFD4  00        BRK                             A:60 X:07 Y:00 P:75 SP:F9
AFD5  00        BRK                             A:60 X:07 Y:00 P:75 SP:F9
AFD6  00        BRK                             A:60 X:07 Y:00 P:75 SP:F9
AFD7  00        BRK                             A:60 X:07 Y:00 P:75 SP:F9
AFD8  00        BRK                             A:60 X:07 Y:00 P:75 SP:F9
AFD9  00        BRK                             A:60 X:07 Y:00 P:75 SP:F9
AFDA  00        BRK                             A:60 X:07 Y:00 P:75 SP:F9
AFDB  00        BRK                             A:60 X:07 Y:00 P:75 SP:F9
AFDC  00        BRK                             A:60 X:07 Y:00 P:75 SP:F9
AFDD  00        BRK                             A:60 X:07 Y:00 P:75 SP:F9
AFDE  00        BRK                             A:60 X:07 Y:00 P:75 SP:F9
AFDF  00        BRK                             A:60 X:07 Y:00 P:75 SP:F9
AFE0  00        BRK                             A:60 X:07 Y:00 P:75 SP:F9
AFE1  00        BRK                             A:60 X:07 Y:00 P:75 SP:F9
AFE2  00        BRK                             A:60 X:07 Y:00 P:75 SP:F9
AFE3  00        BRK                             A:60 X:07 Y:00 P:75 SP:F9
AFE4  00        BRK                             A:60 X:07 Y:00 P:75 SP:F9
AFE5  00        BRK                             A:60 X:07 Y:00 P:75 SP:F9
AFE6  00        BRK                             A:60 X:07 Y:00 P:75 SP:F9
AFE7  00        BRK                             A:60 X:07 Y:00 P:75 SP:F9
AFE8  00        BRK                             A:60 X:07 Y:00 P:75 SP:F9
AFE9  00        BRK                             A:60 X:07 Y:00 P:75 SP:F9
AFEA  00        BRK                             A:60 X:07 Y:00 P:75 SP:F9
AFEB  00        BRK                             A:60 X:07 Y:00 P:75 SP:F9
AFEC  00        BRK                             A:60 X:07 Y:00 P:75 SP:F9
AFED  00        BRK                             A:60 X:07 Y:00 P:75 SP:F9
AFEE  00        BRK                             A:60 X:07 Y:00 P:75 SP:F9
AFEF  00        BRK                             A:60 X:07 Y:00 P:75 SP:F9
AFF0  00        BRK                             A:60 X:07 Y:00 P:75 SP:F9
AFF1  00        BRK                             A:60 X:07 Y:00 P:75 SP:F9
AFF2  00        BRK                             A:60 X:07 Y:00 P:75 SP:F9
AFF3  00        BRK                             A:60 X:07 Y:00 P:75 SP:F9
AFF4  00        BRK                             A:60 X:07 Y:00 P:75 SP:F9
AFF5  00        BRK                             A:60 X:07 Y:00 P:75 SP:F9
AFF6  00        BRK                             A:60 X:07 Y:00 P:75 SP:F9
AFF7  00        BRK                             A:60 X:07 Y:00 P:75 SP:F9
AFF8  00        BRK                             A:60 X:07 Y:00 P:75 SP:F9
AFF9  00        BRK                             A:60 X:07 Y:00 P:75 SP:F9
AFFA  00        BRK                             A:60 X:07 Y:00 P:75 SP:F9
AFFB  00        BRK                             A:60 X:07 Y:00 P:75 SP:F9
AFFC  00        BRK                             A:60 X:07 Y:00 P:75 SP:F9
AFFD  00        BRK                             A:60 X:07 Y:00 P:75 SP:F9
AFFE  00        BRK                             A:60 X:07 Y:00 P:75 SP:F9
AFFF  00        BRK                             A:60 X:07 Y:00 P:75 SP:F9
B000  00        BRK                             A:60 X:07 Y:00 P:75 SP:F9
B001  00        BRK                             A:60 X:07 Y:00 P:75 SP:F9
B002  00        BRK                             A:60 X:07 Y:00 P:75 SP:F9
B003  00        BRK                             A:60 X:07 Y:00 P:75 SP:F9
B004  00        BRK                             A:60 X:07 Y:00 P:75 SP:F9
B005  00        BRK                             A:60 X:07 Y:00 P:75 SP:F9
B006  00        BRK                             A:60 X:07 Y:00 P:75 SP:F9
B007  00        BRK                             A:60 X:07 Y:00 P:75 SP:F9
B008  00        BRK                             A:60 X:07 Y:00 P:75 SP:F9
B009  00        BRK                             A:60 X:07 Y:00 P:75 SP:F9
B00A  00        BRK                             A:60 X:07 Y:00 P:75 SP:F9
B00B  00        BRK                             A:60 X:07 Y:00 P:75 SP:F9
B00C  00        BRK                             A:60 X:07 Y:00 P:75 SP:F9
B00D  00        BRK                             A:60 X:07 Y:00 P:75 SP:F9
B00E  00        BRK                             A:60 X:07 Y:00 P:75 SP:F9
B00F  00        BRK                             A:60 X:07 Y:00 P:75 SP:F9
B010  00        BRK                             A:60 X:07 Y:00 P:75 SP:F9
B011  00        BRK                             A:60 X:07 Y:00 P:75 SP:F9
B012  00        BRK                             A:60 X:07 Y:00 P:75 SP:F9
B013  00        BRK                             A:60 X:07 Y:00 P:75 SP:F9
B014  00        BRK                             A:60 X:07 Y:00 P:75 SP:F9
B015  00        BRK                             A:60 X:07 Y:00 P:75 SP:F9
B016  00        BRK                             A:60 X:07 Y:00 P:75 SP:F9
B017  00        BRK                             A:60 X:07 Y:00 P:75 SP:F9
B018  00        BRK                             A:60 X:07 Y:00 P:75 SP:F9
B019  00        BRK                             A:60 X:07 Y:00 P:75 SP:F9
B01A  00        BRK                             A:60 X:07 Y:00 P:75 SP:F9
B01B  00        BRK                             A:60 X:07 Y:00 P:75 SP:F9
B01C  00        BRK                             A:60 X:07 Y:00 P:75 SP:F9
B01D  00        BRK                             A:60 X:07 Y:00 P:75 SP:F9
B01E  00        BRK                             A:60 X:07 Y:00 P:75 SP:F9
B01F  00        BRK                             A:60 X:07 Y:00 P:75 SP:F9
B020  00        BRK                             A:60 X:07 Y:00 P:75 SP:F9
B021  00        BRK                             A:60 X:07 Y:00 P:75 SP:F9
B022  00        BRK                             A:60 X:07 Y:00 P:75 SP:F9
B023  00        BRK                             A:60 X:07 Y:00 P:75 SP:F9
B024  00        BRK                             A:60 X:07 Y:00 P:75 SP:F9
B025  00        BRK                             A:60 X:07 Y:00 P:75 SP:F9
B026  00        BRK                             A:60 X:07 Y:00 P:75 SP:F9
B027  00        BRK                             A:60 X:07 Y:00 P:75 SP:F9
B028  00        BRK                             A:60 X:07 Y:00 P:75 SP:F9
B029  00        BRK                             A:60 X:07 Y:00 P:75 SP:F9
B02A  00        BRK                             A:60 X:07 Y:00 P:75 SP:F9
B02B  00        BRK                             A:60 X:07 Y:00 P:75 SP:F9
B02C  00        BRK                             A:60 X:07 Y:00 P:75 SP:F9
B02D  00        BRK                             A:60 X:07 Y:00 P:75 SP:F9
B02E  00        BRK                             A:60 X:07 Y:00 P:75 SP:F9
B02F  00        BRK                             A:60 X:07 Y:00 P:75 SP:F9
B030  00        BRK                             A:60 X:07 Y:00 P:75 SP:F9
B031  00        BRK                             A:60 X:07 Y:00 P:75 SP:F9
B032  00        BRK                             A:60 X:07 Y:00 P:75 SP:F9
B033  00        BRK                             A:60 X:07 Y:00 P:75 SP:F9
B034  00        BRK                             A:60 X:07 Y:00 P:75 SP:F9
B035  00        BRK                             A:60 X:07 Y:00 P:75 SP:F9
B036  00        BRK                             A:60 X:07 Y:00 P:75 SP:F9
B037  00        BRK                             A:60 X:07 Y:00 P:75 SP:F9
B038  00        BRK                             A:60 X:07 Y:00 P:75 SP:F9
B039  00        BRK                             A:60 X:07 Y:00 P:75 SP:F9
B03A  00        BRK                             A:60 X:07 Y:00 P:75 SP:F9
B03B  00        BRK                             A:60 X:07 Y:00 P:75 SP:F9
B03C  00        BRK                             A:60 X:07 Y:00 P:75 SP:F9
B03D  00        BRK                             A:60 X:07 Y:00 P:75 SP:F9
B03E  00        BRK                             A:60 X:07 Y:00 P:75 SP:F9
B03F  00        BRK                             A:60 X:07 Y:00 P:75 SP:F9
B040  00        BRK                             A:60 X:07 Y:00 P:75 SP:F9
B041  00        BRK                             A:60 X:07 Y:00 P:75 SP:F9
B042  00        BRK                             A:60 X:07 Y:00 P:75 SP:F9
B043  00        BRK                             A:60 X:07 Y:00 P:75 SP:F9
B044  00        BRK                             A:60 X:07 Y:00 P:75 SP:F9
B045  00        BRK                             A:60 X:07 Y:00 P:75 SP:F9
B046  00        BRK                             A:60 X:07 Y:00 P:75 SP:F9
B047  00        BRK                             A:60 X:07 Y:00 P:75 SP:F9
B048  00        BRK                             A:60 X:07 Y:00 P:75 SP:F9
B049  00        BRK                             A:60 X:07 Y:00 P:75 SP:F9
B04A  00        BRK                             A:60 X:07 Y:00 P:75 SP:F9
B04B  00        BRK                             A:60 X:07 Y:00 P:75 SP:F9
B04C  00        BRK                             A:60 X:07 Y:00 P:75 SP:F9
B04D  00        BRK                             A:60 X:07 Y:00 P:75 SP:F9
B04E  00        BRK                             A:60 X:07 Y:00 P:75 SP:F9
B04F  00        BRK                             A:60 X:07 Y:00 P:75 SP:F9
B050  00        BRK                             A:60 X:07 Y:00 P:75 SP:F9
B051  00        BRK                             A:60 X:07 Y:00 P:75 SP:F9
B052  00        BRK                             A:60 X:07 Y:00 P:75 SP:F9
B053  00        BRK                             A:60 X:07 Y:00 P:75 SP:F9
B054  00        BRK                             A:60 X:07 Y:00 P:75 SP:F9
B055  00        BRK                             A:60 X:07 Y:00 P:75 SP:F9
B056  00        BRK                             A:60 X:07 Y:00 P:75 SP:F9
B057  00        BRK                             A:60 X:07 Y:00 P:75 SP:F9
B058  00        BRK                             A:60 X:07 Y:00 P:75 SP:F9
B059  00        BRK                             A:60 X:07 Y:00 P:75 SP:F9
B05A  00        BRK                             A:60 X:07 Y:00 P:75 SP:F9
B05B  00        BRK                             A:60 X:07 Y:00 P:75 SP:F9
B05C  00        BRK                             A:60 X:07 Y:00 P:75 SP:F9
B05D  00        BRK                             A:60 X:07 Y:00 P:75 SP:F9
B05E  00        BRK                             A:60 X:07 Y:00 P:75 SP:F9
B05F  00        BRK                             A:60 X:07 Y:00 P:75 SP:F9
B060  00        BRK                             A:60 X:07 Y:00 P:75 SP:F9
B061  00        BRK                             A:60 X:07 Y:00 P:75 SP:F9
B062  00        BRK                             A:60 X:07 Y:00 P:75 SP:F9
B063  00        BRK                             A:60 X:07 Y:00 P:75 SP:F9
B064  00        BRK                             A:60 X:07 Y:00 P:75 SP:F9
B065  00        BRK                             A:60 X:07 Y:00 P:75 SP:F9
B066  00        BRK                             A:60 X:07 Y:00 P:75 SP:F9
B067  00        BRK                             A:60 X:07 Y:00 P:75 SP:F9
B068  00        BRK                             A:60 X:07 Y:00 P:75 SP:F9
B069  00        BRK                             A:60 X:07 Y:00 P:75 SP:F9
B06A  00        BRK                             A:60 X:07 Y:00 P:75 SP:F9
B06B  00        BRK                             A:60 X:07 Y:00 P:75 SP:F9
B06C  00        BRK                             A:60 X:07 Y:00 P:75 SP:F9
B06D  00        BRK                             A:60 X:07 Y:00 P:75 SP:F9
B06E  00        BRK                             A:60 X:07 Y:00 P:75 SP:F9
B06F  00        BRK                             A:60 X:07 Y:00 P:75 SP:F9
B070  00        BRK                             A:60 X:07 Y:00 P:75 SP:F9
B071  00        BRK                             A:60 X:07 Y:00 P:75 SP:F9
B072  00        BRK                             A:60 X:07 Y:00 P:75 SP:F9
B073  00        BRK                             A:60 X:07 Y:00 P:75 SP:F9
B074  00        BRK                             A:60 X:07 Y:00 P:75 SP:F9
B075  00        BRK                             A:60 X:07 Y:00 P:75 SP:F9
B076  00        BRK                             A:60 X:07 Y:00 P:75 SP:F9
B077  00        BRK                             A:60 X:07 Y:00 P:75 SP:F9
B078  00        BRK                             A:60 X:07 Y:00 P:75 SP:F9
B079  00        BRK                             A:60 X:07 Y:00 P:75 SP:F9
B07A  00        BRK                             A:60 X:07 Y:00 P:75 SP:F9
B07B  00        BRK                             A:60 X:07 Y:00 P:75 SP:F9
B07C  00        BRK                             A:60 X:07 Y:00 P:75 SP:F9
B07D  00        BRK                             A:60 X:07 Y:00 P:75 SP:F9
B07E  00        BRK                             A:60 X:07 Y:00 P:75 SP:F9
B07F  00        BRK                             A:60 X:07 Y:00 P:75 SP:F9
B080  00        BRK                             A:60 X:07 Y:00 P:75 SP:F9
B081  00        BRK                             A:60 X:07 Y:00 P:75 SP:F9
B082  00        BRK                             A:60 X:07 Y:00 P:75 SP:F9
B083  00        BRK                             A:60 X:07 Y:00 P:75 SP:F9
B084  00        BRK                             A:60 X:07 Y:00 P:75 SP:F9
B085  00        BRK                             A:60 X:07 Y:00 P:75 SP:F9
B086  00        BRK                             A:60 X:07 Y:00 P:75 SP:F9
B087  00        BRK                             A:60 X:07 Y:00 P:75 SP:F9
B088  00        BRK                             A:60 X:07 Y:00 P:75 SP:F9
B089  00        BRK                             A:60 X:07 Y:00 P:75 SP:F9
B08A  00        BRK                             A:60 X:07 Y:00 P:75 SP:F9
B08B  00        BRK                             A:60 X:07 Y:00 P:75 SP:F9
B08C  00        BRK                             A:60 X:07 Y:00 P:75 SP:F9
B08D  00        BRK                             A:60 X:07 Y:00 P:75 SP:F9
B08E  00        BRK                             A:60 X:07 Y:00 P:75 SP:F9
B08F  00        BRK                             A:60 X:07 Y:00 P:75 SP:F9
B090  00        BRK                             A:60 X:07 Y:00 P:75 SP:F9
B091  00        BRK                             A:60 X:07 Y:00 P:75 SP:F9
B092  00        BRK                             A:60 X:07 Y:00 P:75 SP:F9
B093  00        BRK                             A:60 X:07 Y:00 P:75 SP:F9
B094  00        BRK                             A:60 X:07 Y:00 P:75 SP:F9
B095  00        BRK                             A:60 X:07 Y:00 P:75 SP:F9
B096  00        BRK                             A:60 X:07 Y:00 P:75 SP:F9
B097  00        BRK                             A:60 X:07 Y:00 P:75 SP:F9
B098  00        BRK                             A:60 X:07 Y:00 P:75 SP:F9
B099  00        BRK                             A:60 X:07 Y:00 P:75 SP:F9
B09A  00        BRK                             A:60 X:07 Y:00 P:75 SP:F9
B09B  00        BRK                             A:60 X:07 Y:00 P:75 SP:F9
B09C  00        BRK                             A:60 X:07 Y:00 P:75 SP:F9
B09D  00        BRK                             A:60 X:07 Y:00 P:75 SP:F9
B09E  00        BRK                             A:60 X:07 Y:00 P:75 SP:F9
B09F  00        BRK                             A:60 X:07 Y:00 P:75 SP:F9
B0A0  00        BRK                             A:60 X:07 Y:00 P:75 SP:F9
B0A1  00        BRK                             A:60 X:07 Y:00 P:75 SP:F9
B0A2  00        BRK                             A:60 X:07 Y:00 P:75 SP:F9
B0A3  00        BRK                             A:60 X:07 Y:00 P:75 SP:F9
B0A4  00        BRK                             A:60 X:07 Y:00 P:75 SP:F9
B0A5  00        BRK                             A:60 X:07 Y:00 P:75 SP:F9
B0A6  00        BRK                             A:60 X:07 Y:00 P:75 SP:F9
B0A7  00        BRK                             A:60 X:07 Y:00 P:75 SP:F9
B0A8  00        BRK                             A:60 X:07 Y:00 P:75 SP:F9
B0A9  00        BRK                             A:60 X:07 Y:00 P:75 SP:F9
B0AA  00        BRK                             A:60 X:07 Y:00 P:75 SP:F9
B0AB  00        BRK                             A:60 X:07 Y:00 P:75 SP:F9
B0AC  00        BRK                             A:60 X:07 Y:00 P:75 SP:F9
B0AD  00        BRK                             A:60 X:07 Y:00 P:75 SP:F9
B0AE  00        BRK                             A:60 X:07 Y:00 P:75 SP:F9
B0AF  00        BRK                             A:60 X:07 Y:00 P:75 SP:F9
B0B0  00        BRK                             A:60 X:07 Y:00 P:75 SP:F9
B0B1  00        BRK                             A:60 X:07 Y:00 P:75 SP:F9
B0B2  00        BRK                             A:60 X:07 Y:00 P:75 SP:F9
B0B3  00        BRK                             A:60 X:07 Y:00 P:75 SP:F9
B0B4  00        BRK                             A:60 X:07 Y:00 P:75 SP:F9
B0B5  00        BRK                             A:60 X:07 Y:00 P:75 SP:F9
B0B6  00        BRK                             A:60 X:07 Y:00 P:75 SP:F9
B0B7  00        BRK                             A:60 X:07 Y:00 P:75 SP:F9
B0B8  00        BRK                             A:60 X:07 Y:00 P:75 SP:F9
B0B9  00        BRK                             A:60 X:07 Y:00 P:75 SP:F9
B0BA  00        BRK                             A:60 X:07 Y:00 P:75 SP:F9
B0BB  00        BRK                             A:60 X:07 Y:00 P:75 SP:F9
B0BC  00        BRK                             A:60 X:07 Y:00 P:75 SP:F9
B0BD  00        BRK                             A:60 X:07 Y:00 P:75 SP:F9
B0BE  00        BRK                             A:60 X:07 Y:00 P:75 SP:F9
B0BF  00        BRK                             A:60 X:07 Y:00 P:75 SP:F9
B0C0  00        BRK                             A:60 X:07 Y:00 P:75 SP:F9
B0C1  00        BRK                             A:60 X:07 Y:00 P:75 SP:F9
B0C2  00        BRK                             A:60 X:07 Y:00 P:75 SP:F9
B0C3  00        BRK                             A:60 X:07 Y:00 P:75 SP:F9
B0C4  00        BRK                             A:60 X:07 Y:00 P:75 SP:F9
B0C5  00        BRK                             A:60 X:07 Y:00 P:75 SP:F9
B0C6  00        BRK                             A:60 X:07 Y:00 P:75 SP:F9
B0C7  00        BRK                             A:60 X:07 Y:00 P:75 SP:F9
B0C8  00        BRK                             A:60 X:07 Y:00 P:75 SP:F9
B0C9  00        BRK                             A:60 X:07 Y:00 P:75 SP:F9
B0CA  00        BRK                             A:60 X:07 Y:00 P:75 SP:F9
B0CB  00        BRK                             A:60 X:07 Y:00 P:75 SP:F9
B0CC  00        BRK                             A:60 X:07 Y:00 P:75 SP:F9
B0CD  00        BRK                             A:60 X:07 Y:00 P:75 SP:F9
B0CE  00        BRK                             A:60 X:07 Y:00 P:75 SP:F9
B0CF  00        BRK                             A:60 X:07 Y:00 P:75 SP:F9
B0D0  00        BRK                             A:60 X:07 Y:00 P:75 SP:F9
B0D1  00        BRK                             A:60 X:07 Y:00 P:75 SP:F9
B0D2  00        BRK                             A:60 X:07 Y:00 P:75 SP:F9
B0D3  00        BRK                             A:60 X:07 Y:00 P:75 SP:F9
B0D4  00        BRK                             A:60 X:07 Y:00 P:75 SP:F9
B0D5  00        BRK                             A:60 X:07 Y:00 P:75 SP:F9
B0D6  00        BRK                             A:60 X:07 Y:00 P:75 SP:F9
B0D7  00        BRK                             A:60 X:07 Y:00 P:75 SP:F9
B0D8  00        BRK                             A:60 X:07 Y:00 P:75 SP:F9
B0D9  00        BRK                             A:60 X:07 Y:00 P:75 SP:F9
B0DA  00        BRK                             A:60 X:07 Y:00 P:75 SP:F9
B0DB  00        BRK                             A:60 X:07 Y:00 P:75 SP:F9
B0DC  00        BRK                             A:60 X:07 Y:00 P:75 SP:F9
B0DD  00        BRK                             A:60 X:07 Y:00 P:75 SP:F9
B0DE  00        BRK                             A:60 X:07 Y:00 P:75 SP:F9
B0DF  00        BRK                             A:60 X:07 Y:00 P:75 SP:F9
B0E0  00        BRK                             A:60 X:07 Y:00 P:75 SP:F9
B0E1  00        BRK                             A:60 X:07 Y:00 P:75 SP:F9
B0E2  00        BRK                             A:60 X:07 Y:00 P:75 SP:F9
B0E3  00        BRK                             A:60 X:07 Y:00 P:75 SP:F9
B0E4  00        BRK                             A:60 X:07 Y:00 P:75 SP:F9
B0E5  00        BRK                             A:60 X:07 Y:00 P:75 SP:F9
B0E6  00        BRK                             A:60 X:07 Y:00 P:75 SP:F9
B0E7  00        BRK                             A:60 X:07 Y:00 P:75 SP:F9
B0E8  00        BRK                             A:60 X:07 Y:00 P:75 SP:F9
B0E9  00        BRK                             A:60 X:07 Y:00 P:75 SP:F9
B0EA  00        BRK                             A:60 X:07 Y:00 P:75 SP:F9
B0EB  00        BRK                             A:60 X:07 Y:00 P:75 SP:F9
B0EC  00        BRK                             A:60 X:07 Y:00 P:75 SP:F9
B0ED  00        BRK                             A:60 X:07 Y:00 P:75 SP:F9
B0EE  00        BRK                             A:60 X:07 Y:00 P:75 SP:F9
B0EF  00        BRK                             A:60 X:07 Y:00 P:75 SP:F9
B0F0  00        BRK                             A:60 X:07 Y:00 P:75 SP:F9
B0F1  00        BRK                             A:60 X:07 Y:00 P:75 SP:F9
B0F2  00        BRK                             A:60 X:07 Y:00 P:75 SP:F9
B0F3  00        BRK                             A:60 X:07 Y:00 P:75 SP:F9
B0F4  00        BRK                             A:60 X:07 Y:00 P:75 SP:F9
B0F5  00        BRK                             A:60 X:07 Y:00 P:75 SP:F9
B0F6  00        BRK                             A:60 X:07 Y:00 P:75 SP:F9
B0F7  00        BRK                             A:60 X:07 Y:00 P:75 SP:F9
B0F8  00        BRK                             A:60 X:07 Y:00 P:75 SP:F9
B0F9  00        BRK                             A:60 X:07 Y:00 P:75 SP:F9
B0FA  00        BRK                             A:60 X:07 Y:00 P:75 SP:F9
B0FB  00        BRK                             A:60 X:07 Y:00 P:75 SP:F9
B0FC  00        BRK                             A:60 X:07 Y:00 P:75 SP:F9
B0FD  00        BRK                             A:60 X:07 Y:00 P:75 SP:F9
B0FE  00        BRK                             A:60 X:07 Y:00 P:75 SP:F9
B0FF  00        BRK                             A:60 X:07 Y:00 P:75 SP:F9
B100  00        BRK                             A:60 X:07 Y:00 P:75 SP:F9
B101  00        BRK                             A:60 X:07 Y:00 P:75 SP:F9
B102  00        BRK                             A:60 X:07 Y:00 P:75 SP:F9
B103  00        BRK                             A:60 X:07 Y:00 P:75 SP:F9
B104  00        BRK                             A:60 X:07 Y:00 P:75 SP:F9
B105  00        BRK                             A:60 X:07 Y:00 P:75 SP:F9
B106  00        BRK                             A:60 X:07 Y:00 P:75 SP:F9
B107  00        BRK                             A:60 X:07 Y:00 P:75 SP:F9
B108  00        BRK                             A:60 X:07 Y:00 P:75 SP:F9
B109  00        BRK                             A:60 X:07 Y:00 P:75 SP:F9
B10A  00        BRK                             A:60 X:07 Y:00 P:75 SP:F9
B10B  00        BRK                             A:60 X:07 Y:00 P:75 SP:F9
B10C  00        BRK                             A:60 X:07 Y:00 P:75 SP:F9
B10D  00        BRK                             A:60 X:07 Y:00 P:75 SP:F9
B10E  00        BRK                             A:60 X:07 Y:00 P:75 SP:F9
B10F  00        BRK                             A:60 X:07 Y:00 P:75 SP:F9
B110  00        BRK                             A:60 X:07 Y:00 P:75 SP:F9
B111  00        BRK                             A:60 X:07 Y:00 P:75 SP:F9
B112  00        BRK                             A:60 X:07 Y:00 P:75 SP:F9
B113  00        BRK                             A:60 X:07 Y:00 P:75 SP:F9
B114  00        BRK                             A:60 X:07 Y:00 P:75 SP:F9
B115  00        BRK                             A:60 X:07 Y:00 P:75 SP:F9
B116  00        BRK                             A:60 X:07 Y:00 P:75 SP:F9
B117  00        BRK                             A:60 X:07 Y:00 P:75 SP:F9
B118  00        BRK                             A:60 X:07 Y:00 P:75 SP:F9
B119  00        BRK                             A:60 X:07 Y:00 P:75 SP:F9
B11A  00        BRK                             A:60 X:07 Y:00 P:75 SP:F9
B11B  00        BRK                             A:60 X:07 Y:00 P:75 SP:F9
B11C  00        BRK                             A:60 X:07 Y:00 P:75 SP:F9
B11D  00        BRK                             A:60 X:07 Y:00 P:75 SP:F9
B11E  00        BRK                             A:60 X:07 Y:00 P:75 SP:F9
B11F  00        BRK                             A:60 X:07 Y:00 P:75 SP:F9
B120  00        BRK                             A:60 X:07 Y:00 P:75 SP:F9
B121  00        BRK                             A:60 X:07 Y:00 P:75 SP:F9
B122  00        BRK                             A:60 X:07 Y:00 P:75 SP:F9
B123  00        BRK                             A:60 X:07 Y:00 P:75 SP:F9
B124  00        BRK                             A:60 X:07 Y:00 P:75 SP:F9
B125  00        BRK                             A:60 X:07 Y:00 P:75 SP:F9
B126  00        BRK                             A:60 X:07 Y:00 P:75 SP:F9
B127  00        BRK                             A:60 X:07 Y:00 P:75 SP:F9
B128  00        BRK                             A:60 X:07 Y:00 P:75 SP:F9
B129  00        BRK                             A:60 X:07 Y:00 P:75 SP:F9
B12A  00        BRK                             A:60 X:07 Y:00 P:75 SP:F9
B12B  00        BRK                             A:60 X:07 Y:00 P:75 SP:F9
B12C  00        BRK                             A:60 X:07 Y:00 P:75 SP:F9
B12D  00        BRK                             A:60 X:07 Y:00 P:75 SP:F9
B12E  00        BRK                             A:60 X:07 Y:00 P:75 SP:F9
B12F  00        BRK                             A:60 X:07 Y:00 P:75 SP:F9
B130  00        BRK                             A:60 X:07 Y:00 P:75 SP:F9
B131  00        BRK                             A:60 X:07 Y:00 P:75 SP:F9
B132  00        BRK                             A:60 X:07 Y:00 P:75 SP:F9
B133  00        BRK                             A:60 X:07 Y:00 P:75 SP:F9
B134  00        BRK                             A:60 X:07 Y:00 P:75 SP:F9
B135  00        BRK                             A:60 X:07 Y:00 P:75 SP:F9
B136  00        BRK                             A:60 X:07 Y:00 P:75 SP:F9
B137  00        BRK                             A:60 X:07 Y:00 P:75 SP:F9
B138  00        BRK                             A:60 X:07 Y:00 P:75 SP:F9
B139  00        BRK                             A:60 X:07 Y:00 P:75 SP:F9
B13A  00        BRK                             A:60 X:07 Y:00 P:75 SP:F9
B13B  00        BRK                             A:60 X:07 Y:00 P:75 SP:F9
B13C  00        BRK                             A:60 X:07 Y:00 P:75 SP:F9
B13D  00        BRK                             A:60 X:07 Y:00 P:75 SP:F9
B13E  00        BRK                             A:60 X:07 Y:00 P:75 SP:F9
B13F  00        BRK                             A:60 X:07 Y:00 P:75 SP:F9
B140  00        BRK                             A:60 X:07 Y:00 P:75 SP:F9
B141  00        BRK                             A:60 X:07 Y:00 P:75 SP:F9
B142  00        BRK                             A:60 X:07 Y:00 P:75 SP:F9
B143  00        BRK                             A:60 X:07 Y:00 P:75 SP:F9
B144  00        BRK                             A:60 X:07 Y:00 P:75 SP:F9
B145  00        BRK                             A:60 X:07 Y:00 P:75 SP:F9
B146  00        BRK                             A:60 X:07 Y:00 P:75 SP:F9
B147  00        BRK                             A:60 X:07 Y:00 P:75 SP:F9
B148  00        BRK                             A:60 X:07 Y:00 P:75 SP:F9
B149  00        BRK                             A:60 X:07 Y:00 P:75 SP:F9
B14A  00        BRK                             A:60 X:07 Y:00 P:75 SP:F9
B14B  00        BRK                             A:60 X:07 Y:00 P:75 SP:F9
B14C  00        BRK                             A:60 X:07 Y:00 P:75 SP:F9
B14D  00        BRK                             A:60 X:07 Y:00 P:75 SP:F9
B14E  00        BRK                             A:60 X:07 Y:00 P:75 SP:F9
B14F  00        BRK                             A:60 X:07 Y:00 P:75 SP:F9
B150  00        BRK                             A:60 X:07 Y:00 P:75 SP:F9
B151  00        BRK                             A:60 X:07 Y:00 P:75 SP:F9
B152  00        BRK                             A:60 X:07 Y:00 P:75 SP:F9
B153  00        BRK                             A:60 X:07 Y:00 P:75 SP:F9
B154  00        BRK                             A:60 X:07 Y:00 P:75 SP:F9
B155  00        BRK                             A:60 X:07 Y:00 P:75 SP:F9
B156  00        BRK                             A:60 X:07 Y:00 P:75 SP:F9
B157  00        BRK                             A:60 X:07 Y:00 P:75 SP:F9
B158  00        BRK                             A:60 X:07 Y:00 P:75 SP:F9
B159  00        BRK                             A:60 X:07 Y:00 P:75 SP:F9
B15A  00        BRK                             A:60 X:07 Y:00 P:75 SP:F9
B15B  00        BRK                             A:60 X:07 Y:00 P:75 SP:F9
B15C  00        BRK                             A:60 X:07 Y:00 P:75 SP:F9
B15D  00        BRK                             A:60 X:07 Y:00 P:75 SP:F9
B15E  00        BRK                             A:60 X:07 Y:00 P:75 SP:F9
B15F  00        BRK                             A:60 X:07 Y:00 P:75 SP:F9
B160  00        BRK                             A:60 X:07 Y:00 P:75 SP:F9
B161  00        BRK                             A:60 X:07 Y:00 P:75 SP:F9
B162  00        BRK                             A:60 X:07 Y:00 P:75 SP:F9
B163  00        BRK                             A:60 X:07 Y:00 P:75 SP:F9
B164  00        BRK                             A:60 X:07 Y:00 P:75 SP:F9
B165  00        BRK                             A:60 X:07 Y:00 P:75 SP:F9
B166  00        BRK                             A:60 X:07 Y:00 P:75 SP:F9
B167  00        BRK                             A:60 X:07 Y:00 P:75 SP:F9
B168  00        BRK                             A:60 X:07 Y:00 P:75 SP:F9
B169  00        BRK                             A:60 X:07 Y:00 P:75 SP:F9
B16A  00        BRK                             A:60 X:07 Y:00 P:75 SP:F9
B16B  00        BRK                             A:60 X:07 Y:00 P:75 SP:F9
B16C  00        BRK                             A:60 X:07 Y:00 P:75 SP:F9
B16D  00        BRK                             A:60 X:07 Y:00 P:75 SP:F9
B16E  00        BRK                             A:60 X:07 Y:00 P:75 SP:F9
B16F  00        BRK                             A:60 X:07 Y:00 P:75 SP:F9
B170  00        BRK                             A:60 X:07 Y:00 P:75 SP:F9
B171  00        BRK                             A:60 X:07 Y:00 P:75 SP:F9
B172  00        BRK                             A:60 X:07 Y:00 P:75 SP:F9
B173  00        BRK                             A:60 X:07 Y:00 P:75 SP:F9
B174  00        BRK                             A:60 X:07 Y:00 P:75 SP:F9
B175  00        BRK                             A:60 X:07 Y:00 P:75 SP:F9
B176  00        BRK                             A:60 X:07 Y:00 P:75 SP:F9
B177  00        BRK                             A:60 X:07 Y:00 P:75 SP:F9
B178  00        BRK                             A:60 X:07 Y:00 P:75 SP:F9
B179  00        BRK                             A:60 X:07 Y:00 P:75 SP:F9
B17A  00        BRK                             A:60 X:07 Y:00 P:75 SP:F9
B17B  00        BRK                             A:60 X:07 Y:00 P:75 SP:F9
B17C  00        BRK                             A:60 X:07 Y:00 P:75 SP:F9
B17D  00        BRK                             A:60 X:07 Y:00 P:75 SP:F9
B17E  00        BRK                             A:60 X:07 Y:00 P:75 SP:F9
B17F  00        BRK                             A:60 X:07 Y:00 P:75 SP:F9
B180  00        BRK                             A:60 X:07 Y:00 P:75 SP:F9
B181  00        BRK                             A:60 X:07 Y:00 P:75 SP:F9
B182  00        BRK                             A:60 X:07 Y:00 P:75 SP:F9
B183  00        BRK                             A:60 X:07 Y:00 P:75 SP:F9
B184  00        BRK                             A:60 X:07 Y:00 P:75 SP:F9
B185  00        BRK                             A:60 X:07 Y:00 P:75 SP:F9
B186  00        BRK                             A:60 X:07 Y:00 P:75 SP:F9
B187  00        BRK                             A:60 X:07 Y:00 P:75 SP:F9
B188  00        BRK                             A:60 X:07 Y:00 P:75 SP:F9
B189  00        BRK                             A:60 X:07 Y:00 P:75 SP:F9
B18A  00        BRK                             A:60 X:07 Y:00 P:75 SP:F9
B18B  00        BRK                             A:60 X:07 Y:00 P:75 SP:F9
B18C  00        BRK                             A:60 X:07 Y:00 P:75 SP:F9
B18D  00        BRK                             A:60 X:07 Y:00 P:75 SP:F9
B18E  00        BRK                             A:60 X:07 Y:00 P:75 SP:F9
B18F  00        BRK                             A:60 X:07 Y:00 P:75 SP:F9
B190  00        BRK                             A:60 X:07 Y:00 P:75 SP:F9
B191  00        BRK                             A:60 X:07 Y:00 P:75 SP:F9
B192  00        BRK                             A:60 X:07 Y:00 P:75 SP:F9
B193  00        BRK                             A:60 X:07 Y:00 P:75 SP:F9
B194  00        BRK                             A:60 X:07 Y:00 P:75 SP:F9
B195  00        BRK                             A:60 X:07 Y:00 P:75 SP:F9
B196  00        BRK                             A:60 X:07 Y:00 P:75 SP:F9
B197  00        BRK                             A:60 X:07 Y:00 P:75 SP:F9
B198  00        BRK                             A:60 X:07 Y:00 P:75 SP:F9
B199  00        BRK                             A:60 X:07 Y:00 P:75 SP:F9
B19A  00        BRK                             A:60 X:07 Y:00 P:75 SP:F9
B19B  00        BRK                             A:60 X:07 Y:00 P:75 SP:F9
B19C  00        BRK                             A:60 X:07 Y:00 P:75 SP:F9
B19D  00        BRK                             A:60 X:07 Y:00 P:75 SP:F9
B19E  00        BRK                             A:60 X:07 Y:00 P:75 SP:F9
B19F  00        BRK                             A:60 X:07 Y:00 P:75 SP:F9
B1A0  00        BRK                             A:60 X:07 Y:00 P:75 SP:F9
B1A1  00        BRK                             A:60 X:07 Y:00 P:75 SP:F9
B1A2  00        BRK                             A:60 X:07 Y:00 P:75 SP:F9
B1A3  00        BRK                             A:60 X:07 Y:00 P:75 SP:F9
B1A4  00        BRK                             A:60 X:07 Y:00 P:75 SP:F9
B1A5  00        BRK                             A:60 X:07 Y:00 P:75 SP:F9
B1A6  00        BRK                             A:60 X:07 Y:00 P:75 SP:F9
B1A7  00        BRK                             A:60 X:07 Y:00 P:75 SP:F9
B1A8  00        BRK                             A:60 X:07 Y:00 P:75 SP:F9
B1A9  00        BRK                             A:60 X:07 Y:00 P:75 SP:F9
B1AA  00        BRK                             A:60 X:07 Y:00 P:75 SP:F9
B1AB  00        BRK                             A:60 X:07 Y:00 P:75 SP:F9
B1AC  00        BRK                             A:60 X:07 Y:00 P:75 SP:F9
B1AD  00        BRK                             A:60 X:07 Y:00 P:75 SP:F9
B1AE  00        BRK                             A:60 X:07 Y:00 P:75 SP:F9
B1AF  00        BRK                             A:60 X:07 Y:00 P:75 SP:F9
B1B0  00        BRK                             A:60 X:07 Y:00 P:75 SP:F9
B1B1  00        BRK                             A:60 X:07 Y:00 P:75 SP:F9
B1B2  00        BRK                             A:60 X:07 Y:00 P:75 SP:F9
B1B3  00        BRK                             A:60 X:07 Y:00 P:75 SP:F9
B1B4  00        BRK                             A:60 X:07 Y:00 P:75 SP:F9
B1B5  00        BRK                             A:60 X:07 Y:00 P:75 SP:F9
B1B6  00        BRK                             A:60 X:07 Y:00 P:75 SP:F9
B1B7  00        BRK                             A:60 X:07 Y:00 P:75 SP:F9
B1B8  00        BRK                             A:60 X:07 Y:00 P:75 SP:F9
B1B9  00        BRK                             A:60 X:07 Y:00 P:75 SP:F9
B1BA  00        BRK                             A:60 X:07 Y:00 P:75 SP:F9
B1BB  00        BRK                             A:60 X:07 Y:00 P:75 SP:F9
B1BC  00        BRK                             A:60 X:07 Y:00 P:75 SP:F9
B1BD  00        BRK                             A:60 X:07 Y:00 P:75 SP:F9
B1BE  00        BRK                             A:60 X:07 Y:00 P:75 SP:F9
B1BF  00        BRK                             A:60 X:07 Y:00 P:75 SP:F9
B1C0  00        BRK                             A:60 X:07 Y:00 P:75 SP:F9
B1C1  00        BRK                             A:60 X:07 Y:00 P:75 SP:F9
B1C2  00        BRK                             A:60 X:07 Y:00 P:75 SP:F9
B1C3  00        BRK                             A:60 X:07 Y:00 P:75 SP:F9
B1C4  00        BRK                             A:60 X:07 Y:00 P:75 SP:F9
B1C5  00        BRK                             A:60 X:07 Y:00 P:75 SP:F9
B1C6  00        BRK                             A:60 X:07 Y:00 P:75 SP:F9
B1C7  00        BRK                             A:60 X:07 Y:00 P:75 SP:F9
B1C8  00        BRK                             A:60 X:07 Y:00 P:75 SP:F9
B1C9  00        BRK                             A:60 X:07 Y:00 P:75 SP:F9
B1CA  00        BRK                             A:60 X:07 Y:00 P:75 SP:F9
B1CB  00        BRK                             A:60 X:07 Y:00 P:75 SP:F9
B1CC  00        BRK                             A:60 X:07 Y:00 P:75 SP:F9
B1CD  00        BRK                             A:60 X:07 Y:00 P:75 SP:F9
B1CE  00        BRK                             A:60 X:07 Y:00 P:75 SP:F9
B1CF  00        BRK                             A:60 X:07 Y:00 P:75 SP:F9
B1D0  00        BRK                             A:60 X:07 Y:00 P:75 SP:F9
B1D1  00        BRK                             A:60 X:07 Y:00 P:75 SP:F9
B1D2  00        BRK                             A:60 X:07 Y:00 P:75 SP:F9
B1D3  00        BRK                             A:60 X:07 Y:00 P:75 SP:F9
B1D4  00        BRK                             A:60 X:07 Y:00 P:75 SP:F9
B1D5  00        BRK                             A:60 X:07 Y:00 P:75 SP:F9
B1D6  00        BRK                             A:60 X:07 Y:00 P:75 SP:F9
B1D7  00        BRK                             A:60 X:07 Y:00 P:75 SP:F9
B1D8  00        BRK                             A:60 X:07 Y:00 P:75 SP:F9
B1D9  00        BRK                             A:60 X:07 Y:00 P:75 SP:F9
B1DA  00        BRK                             A:60 X:07 Y:00 P:75 SP:F9
B1DB  00        BRK                             A:60 X:07 Y:00 P:75 SP:F9
B1DC  00        BRK                             A:60 X:07 Y:00 P:75 SP:F9
B1DD  00        BRK                             A:60 X:07 Y:00 P:75 SP:F9
B1DE  00        BRK                             A:60 X:07 Y:00 P:75 SP:F9
B1DF  00        BRK                             A:60 X:07 Y:00 P:75 SP:F9
B1E0  00        BRK                             A:60 X:07 Y:00 P:75 SP:F9
B1E1  00        BRK                             A:60 X:07 Y:00 P:75 SP:F9
B1E2  00        BRK                             A:60 X:07 Y:00 P:75 SP:F9
B1E3  00        BRK                             A:60 X:07 Y:00 P:75 SP:F9
B1E4  00        BRK                             A:60 X:07 Y:00 P:75 SP:F9
B1E5  00        BRK                             A:60 X:07 Y:00 P:75 SP:F9
B1E6  00        BRK                             A:60 X:07 Y:00 P:75 SP:F9
B1E7  00        BRK                             A:60 X:07 Y:00 P:75 SP:F9
B1E8  00        BRK                             A:60 X:07 Y:00 P:75 SP:F9
B1E9  00        BRK                             A:60 X:07 Y:00 P:75 SP:F9
B1EA  00        BRK                             A:60 X:07 Y:00 P:75 SP:F9
B1EB  00        BRK                             A:60 X:07 Y:00 P:75 SP:F9
B1EC  00        BRK                             A:60 X:07 Y:00 P:75 SP:F9
B1ED  00        BRK                             A:60 X:07 Y:00 P:75 SP:F9
B1EE  00        BRK                             A:60 X:07 Y:00 P:75 SP:F9
B1EF  00        BRK                             A:60 X:07 Y:00 P:75 SP:F9
B1F0  00        BRK                             A:60 X:07 Y:00 P:75 SP:F9
B1F1  00        BRK                             A:60 X:07 Y:00 P:75 SP:F9
B1F2  00        BRK                             A:60 X:07 Y:00 P:75 SP:F9
B1F3  00        BRK                             A:60 X:07 Y:00 P:75 SP:F9
B1F4  00        BRK                             A:60 X:07 Y:00 P:75 SP:F9
B1F5  00        BRK                             A:60 X:07 Y:00 P:75 SP:F9
B1F6  00        BRK                             A:60 X:07 Y:00 P:75 SP:F9
B1F7  00        BRK                             A:60 X:07 Y:00 P:75 SP:F9
B1F8  00        BRK                             A:60 X:07 Y:00 P:75 SP:F9
B1F9  00        BRK                             A:60 X:07 Y:00 P:75 SP:F9
B1FA  00        BRK                             A:60 X:07 Y:00 P:75 SP:F9
B1FB  00        BRK                             A:60 X:07 Y:00 P:75 SP:F9
B1FC  00        BRK                             A:60 X:07 Y:00 P:75 SP:F9
B1FD  00        BRK                             A:60 X:07 Y:00 P:75 SP:F9
B1FE  00        BRK                             A:60 X:07 Y:00 P:75 SP:F9
B1FF  00        BRK                             A:60 X:07 Y:00 P:75 SP:F9
B200  00        BRK                             A:60 X:07 Y:00 P:75 SP:F9
B201  00        BRK                             A:60 X:07 Y:00 P:75 SP:F9
B202  00        BRK                             A:60 X:07 Y:00 P:75 SP:F9
B203  00        BRK                             A:60 X:07 Y:00 P:75 SP:F9
B204  00        BRK                             A:60 X:07 Y:00 P:75 SP:F9
B205  00        BRK                             A:60 X:07 Y:00 P:75 SP:F9
B206  00        BRK                             A:60 X:07 Y:00 P:75 SP:F9
B207  00        BRK                             A:60 X:07 Y:00 P:75 SP:F9
B208  00        BRK                             A:60 X:07 Y:00 P:75 SP:F9
B209  00        BRK                             A:60 X:07 Y:00 P:75 SP:F9
B20A  00        BRK                             A:60 X:07 Y:00 P:75 SP:F9
B20B  00        BRK                             A:60 X:07 Y:00 P:75 SP:F9
B20C  00        BRK                             A:60 X:07 Y:00 P:75 SP:F9
B20D  00        BRK                             A:60 X:07 Y:00 P:75 SP:F9
B20E  00        BRK                             A:60 X:07 Y:00 P:75 SP:F9
B20F  00        BRK                             A:60 X:07 Y:00 P:75 SP:F9
B210  00        BRK                             A:60 X:07 Y:00 P:75 SP:F9
B211  00        BRK                             A:60 X:07 Y:00 P:75 SP:F9
B212  00        BRK                             A:60 X:07 Y:00 P:75 SP:F9
B213  00        BRK                             A:60 X:07 Y:00 P:75 SP:F9
B214  00        BRK                             A:60 X:07 Y:00 P:75 SP:F9
B215  00        BRK                             A:60 X:07 Y:00 P:75 SP:F9
B216  00        BRK                             A:60 X:07 Y:00 P:75 SP:F9
B217  00        BRK                             A:60 X:07 Y:00 P:75 SP:F9
B218  00        BRK                             A:60 X:07 Y:00 P:75 SP:F9
B219  00        BRK                             A:60 X:07 Y:00 P:75 SP:F9
B21A  00        BRK                             A:60 X:07 Y:00 P:75 SP:F9
B21B  00        BRK                             A:60 X:07 Y:00 P:75 SP:F9
B21C  00        BRK                             A:60 X:07 Y:00 P:75 SP:F9
B21D  00        BRK                             A:60 X:07 Y:00 P:75 SP:F9
B21E  00        BRK                             A:60 X:07 Y:00 P:75 SP:F9
B21F  00        BRK                             A:60 X:07 Y:00 P:75 SP:F9
B220  00        BRK                             A:60 X:07 Y:00 P:75 SP:F9
B221  00        BRK                             A:60 X:07 Y:00 P:75 SP:F9
B222  00        BRK                             A:60 X:07 Y:00 P:75 SP:F9
B223  00        BRK                             A:60 X:07 Y:00 P:75 SP:F9
B224  00        BRK                             A:60 X:07 Y:00 P:75 SP:F9
B225  00        BRK                             A:60 X:07 Y:00 P:75 SP:F9
B226  00        BRK                             A:60 X:07 Y:00 P:75 SP:F9
B227  00        BRK                             A:60 X:07 Y:00 P:75 SP:F9
B228  00        BRK                             A:60 X:07 Y:00 P:75 SP:F9
B229  00        BRK                             A:60 X:07 Y:00 P:75 SP:F9
B22A  00        BRK                             A:60 X:07 Y:00 P:75 SP:F9
B22B  00        BRK                             A:60 X:07 Y:00 P:75 SP:F9
B22C  00        BRK                             A:60 X:07 Y:00 P:75 SP:F9
B22D  00        BRK                             A:60 X:07 Y:00 P:75 SP:F9
B22E  00        BRK                             A:60 X:07 Y:00 P:75 SP:F9
B22F  00        BRK                             A:60 X:07 Y:00 P:75 SP:F9
B230  00        BRK                             A:60 X:07 Y:00 P:75 SP:F9
B231  00        BRK                             A:60 X:07 Y:00 P:75 SP:F9
B232  00        BRK                             A:60 X:07 Y:00 P:75 SP:F9
B233  00        BRK                             A:60 X:07 Y:00 P:75 SP:F9
B234  00        BRK                             A:60 X:07 Y:00 P:75 SP:F9
B235  00        BRK                             A:60 X:07 Y:00 P:75 SP:F9
B236  00        BRK                             A:60 X:07 Y:00 P:75 SP:F9
B237  00        BRK                             A:60 X:07 Y:00 P:75 SP:F9
B238  00        BRK                             A:60 X:07 Y:00 P:75 SP:F9
B239  00        BRK                             A:60 X:07 Y:00 P:75 SP:F9
B23A  00        BRK                             A:60 X:07 Y:00 P:75 SP:F9
B23B  00        BRK                             A:60 X:07 Y:00 P:75 SP:F9
B23C  00        BRK                             A:60 X:07 Y:00 P:75 SP:F9
B23D  00        BRK                             A:60 X:07 Y:00 P:75 SP:F9
B23E  00        BRK                             A:60 X:07 Y:00 P:75 SP:F9
B23F  00        BRK                             A:60 X:07 Y:00 P:75 SP:F9
B240  00        BRK                             A:60 X:07 Y:00 P:75 SP:F9
B241  00        BRK                             A:60 X:07 Y:00 P:75 SP:F9
B242  00        BRK                             A:60 X:07 Y:00 P:75 SP:F9
B243  00        BRK                             A:60 X:07 Y:00 P:75 SP:F9
B244  00        BRK                             A:60 X:07 Y:00 P:75 SP:F9
B245  00        BRK                             A:60 X:07 Y:00 P:75 SP:F9
B246  00        BRK                             A:60 X:07 Y:00 P:75 SP:F9
B247  00        BRK                             A:60 X:07 Y:00 P:75 SP:F9
B248  00        BRK                             A:60 X:07 Y:00 P:75 SP:F9
B249  00        BRK                             A:60 X:07 Y:00 P:75 SP:F9
B24A  00        BRK                             A:60 X:07 Y:00 P:75 SP:F9
B24B  00        BRK                             A:60 X:07 Y:00 P:75 SP:F9
B24C  00        BRK                             A:60 X:07 Y:00 P:75 SP:F9
B24D  00        BRK                             A:60 X:07 Y:00 P:75 SP:F9
B24E  00        BRK                             A:60 X:07 Y:00 P:75 SP:F9
B24F  00        BRK                             A:60 X:07 Y:00 P:75 SP:F9
B250  00        BRK                             A:60 X:07 Y:00 P:75 SP:F9
B251  00        BRK                             A:60 X:07 Y:00 P:75 SP:F9
B252  00        BRK                             A:60 X:07 Y:00 P:75 SP:F9
B253  00        BRK                             A:60 X:07 Y:00 P:75 SP:F9
B254  00        BRK                             A:60 X:07 Y:00 P:75 SP:F9
B255  00        BRK                             A:60 X:07 Y:00 P:75 SP:F9
B256  00        BRK                             A:60 X:07 Y:00 P:75 SP:F9
B257  00        BRK                             A:60 X:07 Y:00 P:75 SP:F9
B258  00        BRK                             A:60 X:07 Y:00 P:75 SP:F9
B259  00        BRK                             A:60 X:07 Y:00 P:75 SP:F9
B25A  00        BRK                             A:60 X:07 Y:00 P:75 SP:F9
B25B  00        BRK                             A:60 X:07 Y:00 P:75 SP:F9
B25C  00        BRK                             A:60 X:07 Y:00 P:75 SP:F9
B25D  00        BRK                             A:60 X:07 Y:00 P:75 SP:F9
B25E  00        BRK                             A:60 X:07 Y:00 P:75 SP:F9
B25F  00        BRK                             A:60 X:07 Y:00 P:75 SP:F9
B260  00        BRK                             A:60 X:07 Y:00 P:75 SP:F9
B261  00        BRK                             A:60 X:07 Y:00 P:75 SP:F9
B262  00        BRK                             A:60 X:07 Y:00 P:75 SP:F9
B263  00        BRK                             A:60 X:07 Y:00 P:75 SP:F9
B264  00        BRK                             A:60 X:07 Y:00 P:75 SP:F9
B265  00        BRK                             A:60 X:07 Y:00 P:75 SP:F9
B266  00        BRK                             A:60 X:07 Y:00 P:75 SP:F9
B267  00        BRK                             A:60 X:07 Y:00 P:75 SP:F9
B268  00        BRK                             A:60 X:07 Y:00 P:75 SP:F9
B269  00        BRK                             A:60 X:07 Y:00 P:75 SP:F9
B26A  00        BRK                             A:60 X:07 Y:00 P:75 SP:F9
B26B  00        BRK                             A:60 X:07 Y:00 P:75 SP:F9
B26C  00        BRK                             A:60 X:07 Y:00 P:75 SP:F9
B26D  00        BRK                             A:60 X:07 Y:00 P:75 SP:F9
B26E  00        BRK                             A:60 X:07 Y:00 P:75 SP:F9
B26F  00        BRK                             A:60 X:07 Y:00 P:75 SP:F9
B270  00        BRK                             A:60 X:07 Y:00 P:75 SP:F9
B271  00        BRK                             A:60 X:07 Y:00 P:75 SP:F9
B272  00        BRK                             A:60 X:07 Y:00 P:75 SP:F9
B273  00        BRK                             A:60 X:07 Y:00 P:75 SP:F9
B274  00        BRK                             A:60 X:07 Y:00 P:75 SP:F9
B275  00        BRK                             A:60 X:07 Y:00 P:75 SP:F9
B276  00        BRK                             A:60 X:07 Y:00 P:75 SP:F9
B277  00        BRK                             A:60 X:07 Y:00 P:75 SP:F9
B278  00        BRK                             A:60 X:07 Y:00 P:75 SP:F9
B279  00        BRK                             A:60 X:07 Y:00 P:75 SP:F9
B27A  00        BRK                             A:60 X:07 Y:00 P:75 SP:F9
B27B  00        BRK                             A:60 X:07 Y:00 P:75 SP:F9
B27C  00        BRK                             A:60 X:07 Y:00 P:75 SP:F9
B27D  00        BRK                             A:60 X:07 Y:00 P:75 SP:F9
B27E  00        BRK                             A:60 X:07 Y:00 P:75 SP:F9
B27F  00        BRK                             A:60 X:07 Y:00 P:75 SP:F9
B280  00        BRK                             A:60 X:07 Y:00 P:75 SP:F9
B281  00        BRK                             A:60 X:07 Y:00 P:75 SP:F9
B282  00        BRK                             A:60 X:07 Y:00 P:75 SP:F9
B283  00        BRK                             A:60 X:07 Y:00 P:75 SP:F9
B284  00        BRK                             A:60 X:07 Y:00 P:75 SP:F9
B285  00        BRK                             A:60 X:07 Y:00 P:75 SP:F9
B286  00        BRK                             A:60 X:07 Y:00 P:75 SP:F9
B287  00        BRK                             A:60 X:07 Y:00 P:75 SP:F9
B288  00        BRK                             A:60 X:07 Y:00 P:75 SP:F9
B289  00        BRK                             A:60 X:07 Y:00 P:75 SP:F9
B28A  00        BRK                             A:60 X:07 Y:00 P:75 SP:F9
B28B  00        BRK                             A:60 X:07 Y:00 P:75 SP:F9
B28C  00        BRK                             A:60 X:07 Y:00 P:75 SP:F9
B28D  00        BRK                             A:60 X:07 Y:00 P:75 SP:F9
B28E  00        BRK                             A:60 X:07 Y:00 P:75 SP:F9
B28F  00        BRK                             A:60 X:07 Y:00 P:75 SP:F9
B290  00        BRK                             A:60 X:07 Y:00 P:75 SP:F9
B291  00        BRK                             A:60 X:07 Y:00 P:75 SP:F9
B292  00        BRK                             A:60 X:07 Y:00 P:75 SP:F9
B293  00        BRK                             A:60 X:07 Y:00 P:75 SP:F9
B294  00        BRK                             A:60 X:07 Y:00 P:75 SP:F9
B295  00        BRK                             A:60 X:07 Y:00 P:75 SP:F9
B296  00        BRK                             A:60 X:07 Y:00 P:75 SP:F9
B297  00        BRK                             A:60 X:07 Y:00 P:75 SP:F9
B298  00        BRK                             A:60 X:07 Y:00 P:75 SP:F9
B299  00        BRK                             A:60 X:07 Y:00 P:75 SP:F9
B29A  00        BRK                             A:60 X:07 Y:00 P:75 SP:F9
B29B  00        BRK                             A:60 X:07 Y:00 P:75 SP:F9
B29C  00        BRK                             A:60 X:07 Y:00 P:75 SP:F9
B29D  00        BRK                             A:60 X:07 Y:00 P:75 SP:F9
B29E  00        BRK                             A:60 X:07 Y:00 P:75 SP:F9
B29F  00        BRK                             A:60 X:07 Y:00 P:75 SP:F9
B2A0  00        BRK                             A:60 X:07 Y:00 P:75 SP:F9
B2A1  00        BRK                             A:60 X:07 Y:00 P:75 SP:F9
B2A2  00        BRK                             A:60 X:07 Y:00 P:75 SP:F9
B2A3  00        BRK                             A:60 X:07 Y:00 P:75 SP:F9
B2A4  00        BRK                             A:60 X:07 Y:00 P:75 SP:F9
B2A5  00        BRK                             A:60 X:07 Y:00 P:75 SP:F9
B2A6  00        BRK                             A:60 X:07 Y:00 P:75 SP:F9
B2A7  00        BRK                             A:60 X:07 Y:00 P:75 SP:F9
B2A8  00        BRK                             A:60 X:07 Y:00 P:75 SP:F9
B2A9  00        BRK                             A:60 X:07 Y:00 P:75 SP:F9
B2AA  00        BRK                             A:60 X:07 Y:00 P:75 SP:F9
B2AB  00        BRK                             A:60 X:07 Y:00 P:75 SP:F9
B2AC  00        BRK                             A:60 X:07 Y:00 P:75 SP:F9
B2AD  00        BRK                             A:60 X:07 Y:00 P:75 SP:F9
B2AE  00        BRK                             A:60 X:07 Y:00 P:75 SP:F9
B2AF  00        BRK                             A:60 X:07 Y:00 P:75 SP:F9
B2B0  00        BRK                             A:60 X:07 Y:00 P:75 SP:F9
B2B1  00        BRK                             A:60 X:07 Y:00 P:75 SP:F9
B2B2  00        BRK                             A:60 X:07 Y:00 P:75 SP:F9
B2B3  00        BRK                             A:60 X:07 Y:00 P:75 SP:F9
B2B4  00        BRK                             A:60 X:07 Y:00 P:75 SP:F9
B2B5  00        BRK                             A:60 X:07 Y:00 P:75 SP:F9
B2B6  00        BRK                             A:60 X:07 Y:00 P:75 SP:F9
B2B7  00        BRK                             A:60 X:07 Y:00 P:75 SP:F9
B2B8  00        BRK                             A:60 X:07 Y:00 P:75 SP:F9
B2B9  00        BRK                             A:60 X:07 Y:00 P:75 SP:F9
B2BA  00        BRK                             A:60 X:07 Y:00 P:75 SP:F9
B2BB  00        BRK                             A:60 X:07 Y:00 P:75 SP:F9
B2BC  00        BRK                             A:60 X:07 Y:00 P:75 SP:F9
B2BD  00        BRK                             A:60 X:07 Y:00 P:75 SP:F9
B2BE  00        BRK                             A:60 X:07 Y:00 P:75 SP:F9
B2BF  00        BRK                             A:60 X:07 Y:00 P:75 SP:F9
B2C0  00        BRK                             A:60 X:07 Y:00 P:75 SP:F9
B2C1  00        BRK                             A:60 X:07 Y:00 P:75 SP:F9
B2C2  00        BRK                             A:60 X:07 Y:00 P:75 SP:F9
B2C3  00        BRK                             A:60 X:07 Y:00 P:75 SP:F9
B2C4  00        BRK                             A:60 X:07 Y:00 P:75 SP:F9
B2C5  00        BRK                             A:60 X:07 Y:00 P:75 SP:F9
B2C6  00        BRK                             A:60 X:07 Y:00 P:75 SP:F9
B2C7  00        BRK                             A:60 X:07 Y:00 P:75 SP:F9
B2C8  00        BRK                             A:60 X:07 Y:00 P:75 SP:F9
B2C9  00        BRK                             A:60 X:07 Y:00 P:75 SP:F9
B2CA  00        BRK                             A:60 X:07 Y:00 P:75 SP:F9
B2CB  00        BRK                             A:60 X:07 Y:00 P:75 SP:F9
B2CC  00        BRK                             A:60 X:07 Y:00 P:75 SP:F9
B2CD  00        BRK                             A:60 X:07 Y:00 P:75 SP:F9
B2CE  00        BRK                             A:60 X:07 Y:00 P:75 SP:F9
B2CF  00        BRK                             A:60 X:07 Y:00 P:75 SP:F9
B2D0  00        BRK                             A:60 X:07 Y:00 P:75 SP:F9
B2D1  00        BRK                             A:60 X:07 Y:00 P:75 SP:F9
B2D2  00        BRK                             A:60 X:07 Y:00 P:75 SP:F9
B2D3  00        BRK                             A:60 X:07 Y:00 P:75 SP:F9
B2D4  00        BRK                             A:60 X:07 Y:00 P:75 SP:F9
B2D5  00        BRK                             A:60 X:07 Y:00 P:75 SP:F9
B2D6  00        BRK                             A:60 X:07 Y:00 P:75 SP:F9
B2D7  00        BRK                             A:60 X:07 Y:00 P:75 SP:F9
B2D8  00        BRK                             A:60 X:07 Y:00 P:75 SP:F9
B2D9  00        BRK                             A:60 X:07 Y:00 P:75 SP:F9
B2DA  00        BRK                             A:60 X:07 Y:00 P:75 SP:F9
B2DB  00        BRK                             A:60 X:07 Y:00 P:75 SP:F9
B2DC  00        BRK                             A:60 X:07 Y:00 P:75 SP:F9
B2DD  00        BRK                             A:60 X:07 Y:00 P:75 SP:F9
B2DE  00        BRK                             A:60 X:07 Y:00 P:75 SP:F9
B2DF  00        BRK                             A:60 X:07 Y:00 P:75 SP:F9
B2E0  00        BRK                             A:60 X:07 Y:00 P:75 SP:F9
B2E1  00        BRK                             A:60 X:07 Y:00 P:75 SP:F9
B2E2  00        BRK                             A:60 X:07 Y:00 P:75 SP:F9
B2E3  00        BRK                             A:60 X:07 Y:00 P:75 SP:F9
B2E4  00        BRK                             A:60 X:07 Y:00 P:75 SP:F9
B2E5  00        BRK                             A:60 X:07 Y:00 P:75 SP:F9
B2E6  00        BRK                             A:60 X:07 Y:00 P:75 SP:F9
B2E7  00        BRK                             A:60 X:07 Y:00 P:75 SP:F9
B2E8  00        BRK                             A:60 X:07 Y:00 P:75 SP:F9
B2E9  00        BRK                             A:60 X:07 Y:00 P:75 SP:F9
B2EA  00        BRK                             A:60 X:07 Y:00 P:75 SP:F9
B2EB  00        BRK                             A:60 X:07 Y:00 P:75 SP:F9
B2EC  00        BRK                             A:60 X:07 Y:00 P:75 SP:F9
B2ED  00        BRK                             A:60 X:07 Y:00 P:75 SP:F9
B2EE  00        BRK                             A:60 X:07 Y:00 P:75 SP:F9
B2EF  00        BRK                             A:60 X:07 Y:00 P:75 SP:F9
B2F0  00        BRK                             A:60 X:07 Y:00 P:75 SP:F9
B2F1  00        BRK                             A:60 X:07 Y:00 P:75 SP:F9
B2F2  00        BRK                             A:60 X:07 Y:00 P:75 SP:F9
B2F3  00        BRK                             A:60 X:07 Y:00 P:75 SP:F9
B2F4  00        BRK                             A:60 X:07 Y:00 P:75 SP:F9
B2F5  00        BRK                             A:60 X:07 Y:00 P:75 SP:F9
B2F6  00        BRK                             A:60 X:07 Y:00 P:75 SP:F9
B2F7  00        BRK                             A:60 X:07 Y:00 P:75 SP:F9
B2F8  00        BRK                             A:60 X:07 Y:00 P:75 SP:F9
B2F9  00        BRK                             A:60 X:07 Y:00 P:75 SP:F9
B2FA  00        BRK                             A:60 X:07 Y:00 P:75 SP:F9
B2FB  00        BRK                             A:60 X:07 Y:00 P:75 SP:F9
B2FC  00        BRK                             A:60 X:07 Y:00 P:75 SP:F9
B2FD  00        BRK                             A:60 X:07 Y:00 P:75 SP:F9
B2FE  00        BRK                             A:60 X:07 Y:00 P:75 SP:F9
B2FF  00        BRK                             A:60 X:07 Y:00 P:75 SP:F9
B300  00        BRK                             A:60 X:07 Y:00 P:75 SP:F9
B301  00        BRK                             A:60 X:07 Y:00 P:75 SP:F9
B302  00        BRK                             A:60 X:07 Y:00 P:75 SP:F9
B303  00        BRK                             A:60 X:07 Y:00 P:75 SP:F9
B304  00        BRK                             A:60 X:07 Y:00 P:75 SP:F9
B305  00        BRK                             A:60 X:07 Y:00 P:75 SP:F9
B306  00        BRK                             A:60 X:07 Y:00 P:75 SP:F9
B307  00        BRK                             A:60 X:07 Y:00 P:75 SP:F9
B308  00        BRK                             A:60 X:07 Y:00 P:75 SP:F9
B309  00        BRK                             A:60 X:07 Y:00 P:75 SP:F9
B30A  00        BRK                             A:60 X:07 Y:00 P:75 SP:F9
B30B  00        BRK                             A:60 X:07 Y:00 P:75 SP:F9
B30C  00        BRK                             A:60 X:07 Y:00 P:75 SP:F9
B30D  00        BRK                             A:60 X:07 Y:00 P:75 SP:F9
B30E  00        BRK                             A:60 X:07 Y:00 P:75 SP:F9
B30F  00        BRK                             A:60 X:07 Y:00 P:75 SP:F9
B310  00        BRK                             A:60 X:07 Y:00 P:75 SP:F9
B311  00        BRK                             A:60 X:07 Y:00 P:75 SP:F9
B312  00        BRK                             A:60 X:07 Y:00 P:75 SP:F9
B313  00        BRK                             A:60 X:07 Y:00 P:75 SP:F9
B314  00        BRK                             A:60 X:07 Y:00 P:75 SP:F9
B315  00        BRK                             A:60 X:07 Y:00 P:75 SP:F9
B316  00        BRK                             A:60 X:07 Y:00 P:75 SP:F9
B317  00        BRK                             A:60 X:07 Y:00 P:75 SP:F9
B318  00        BRK                             A:60 X:07 Y:00 P:75 SP:F9
B319  00        BRK                             A:60 X:07 Y:00 P:75 SP:F9
B31A  00        BRK                             A:60 X:07 Y:00 P:75 SP:F9
B31B  00        BRK                             A:60 X:07 Y:00 P:75 SP:F9
B31C  00        BRK                             A:60 X:07 Y:00 P:75 SP:F9
B31D  00        BRK                             A:60 X:07 Y:00 P:75 SP:F9
B31E  00        BRK                             A:60 X:07 Y:00 P:75 SP:F9
B31F  00        BRK                             A:60 X:07 Y:00 P:75 SP:F9
B320  00        BRK                             A:60 X:07 Y:00 P:75 SP:F9
B321  00        BRK                             A:60 X:07 Y:00 P:75 SP:F9
B322  00        BRK                             A:60 X:07 Y:00 P:75 SP:F9
B323  00        BRK                             A:60 X:07 Y:00 P:75 SP:F9
B324  00        BRK                             A:60 X:07 Y:00 P:75 SP:F9
B325  00        BRK                             A:60 X:07 Y:00 P:75 SP:F9
B326  00        BRK                             A:60 X:07 Y:00 P:75 SP:F9
B327  00        BRK                             A:60 X:07 Y:00 P:75 SP:F9
B328  00        BRK                             A:60 X:07 Y:00 P:75 SP:F9
B329  00        BRK                             A:60 X:07 Y:00 P:75 SP:F9
B32A  00        BRK                             A:60 X:07 Y:00 P:75 SP:F9
B32B  00        BRK                             A:60 X:07 Y:00 P:75 SP:F9
B32C  00        BRK                             A:60 X:07 Y:00 P:75 SP:F9
B32D  00        BRK                             A:60 X:07 Y:00 P:75 SP:F9
B32E  00        BRK                             A:60 X:07 Y:00 P:75 SP:F9
B32F  00        BRK                             A:60 X:07 Y:00 P:75 SP:F9
B330  00        BRK                             A:60 X:07 Y:00 P:75 SP:F9
B331  00        BRK                             A:60 X:07 Y:00 P:75 SP:F9
B332  00        BRK                             A:60 X:07 Y:00 P:75 SP:F9
B333  00        BRK                             A:60 X:07 Y:00 P:75 SP:F9
B334  00        BRK                             A:60 X:07 Y:00 P:75 SP:F9
B335  00        BRK                             A:60 X:07 Y:00 P:75 SP:F9
B336  00        BRK                             A:60 X:07 Y:00 P:75 SP:F9
B337  00        BRK                             A:60 X:07 Y:00 P:75 SP:F9
B338  00        BRK                             A:60 X:07 Y:00 P:75 SP:F9
B339  00        BRK                             A:60 X:07 Y:00 P:75 SP:F9
B33A  00        BRK                             A:60 X:07 Y:00 P:75 SP:F9
B33B  00        BRK                             A:60 X:07 Y:00 P:75 SP:F9
B33C  00        BRK                             A:60 X:07 Y:00 P:75 SP:F9
B33D  00        BRK                             A:60 X:07 Y:00 P:75 SP:F9
B33E  00        BRK                             A:60 X:07 Y:00 P:75 SP:F9
B33F  00        BRK                             A:60 X:07 Y:00 P:75 SP:F9
B340  00        BRK                             A:60 X:07 Y:00 P:75 SP:F9
B341  00        BRK                             A:60 X:07 Y:00 P:75 SP:F9
B342  00        BRK                             A:60 X:07 Y:00 P:75 SP:F9
B343  00        BRK                             A:60 X:07 Y:00 P:75 SP:F9
B344  00        BRK                             A:60 X:07 Y:00 P:75 SP:F9
B345  00        BRK                             A:60 X:07 Y:00 P:75 SP:F9
B346  00        BRK                             A:60 X:07 Y:00 P:75 SP:F9
B347  00        BRK                             A:60 X:07 Y:00 P:75 SP:F9
B348  00        BRK                             A:60 X:07 Y:00 P:75 SP:F9
B349  00        BRK                             A:60 X:07 Y:00 P:75 SP:F9
B34A  00        BRK                             A:60 X:07 Y:00 P:75 SP:F9
B34B  00        BRK                             A:60 X:07 Y:00 P:75 SP:F9
B34C  00        BRK                             A:60 X:07 Y:00 P:75 SP:F9
B34D  00        BRK                             A:60 X:07 Y:00 P:75 SP:F9
B34E  00        BRK                             A:60 X:07 Y:00 P:75 SP:F9
B34F  00        BRK                             A:60 X:07 Y:00 P:75 SP:F9
B350  00        BRK                             A:60 X:07 Y:00 P:75 SP:F9
B351  00        BRK                             A:60 X:07 Y:00 P:75 SP:F9
B352  00        BRK                             A:60 X:07 Y:00 P:75 SP:F9
B353  00        BRK                             A:60 X:07 Y:00 P:75 SP:F9
B354  00        BRK                             A:60 X:07 Y:00 P:75 SP:F9
B355  00        BRK                             A:60 X:07 Y:00 P:75 SP:F9
B356  00        BRK                             A:60 X:07 Y:00 P:75 SP:F9
B357  00        BRK                             A:60 X:07 Y:00 P:75 SP:F9
B358  00        BRK                             A:60 X:07 Y:00 P:75 SP:F9
B359  00        BRK                             A:60 X:07 Y:00 P:75 SP:F9
B35A  00        BRK                             A:60 X:07 Y:00 P:75 SP:F9
B35B  00        BRK                             A:60 X:07 Y:00 P:75 SP:F9
B35C  00        BRK                             A:60 X:07 Y:00 P:75 SP:F9
B35D  00        BRK                             A:60 X:07 Y:00 P:75 SP:F9
B35E  00        BRK                             A:60 X:07 Y:00 P:75 SP:F9
B35F  00        BRK                             A:60 X:07 Y:00 P:75 SP:F9
B360  00        BRK                             A:60 X:07 Y:00 P:75 SP:F9
B361  00        BRK                             A:60 X:07 Y:00 P:75 SP:F9
B362  00        BRK                             A:60 X:07 Y:00 P:75 SP:F9
B363  00        BRK                             A:60 X:07 Y:00 P:75 SP:F9
B364  00        BRK                             A:60 X:07 Y:00 P:75 SP:F9
B365  00        BRK                             A:60 X:07 Y:00 P:75 SP:F9
B366  00        BRK                             A:60 X:07 Y:00 P:75 SP:F9
B367  00        BRK                             A:60 X:07 Y:00 P:75 SP:F9
B368  00        BRK                             A:60 X:07 Y:00 P:75 SP:F9
B369  00        BRK                             A:60 X:07 Y:00 P:75 SP:F9
B36A  00        BRK                             A:60 X:07 Y:00 P:75 SP:F9
B36B  00        BRK                             A:60 X:07 Y:00 P:75 SP:F9
B36C  00        BRK                             A:60 X:07 Y:00 P:75 SP:F9
B36D  00        BRK                             A:60 X:07 Y:00 P:75 SP:F9
B36E  00        BRK                             A:60 X:07 Y:00 P:75 SP:F9
B36F  00        BRK                             A:60 X:07 Y:00 P:75 SP:F9
B370  00        BRK                             A:60 X:07 Y:00 P:75 SP:F9
B371  00        BRK                             A:60 X:07 Y:00 P:75 SP:F9
B372  00        BRK                             A:60 X:07 Y:00 P:75 SP:F9
B373  00        BRK                             A:60 X:07 Y:00 P:75 SP:F9
B374  00        BRK                             A:60 X:07 Y:00 P:75 SP:F9
B375  00        BRK                             A:60 X:07 Y:00 P:75 SP:F9
B376  00        BRK                             A:60 X:07 Y:00 P:75 SP:F9
B377  00        BRK                             A:60 X:07 Y:00 P:75 SP:F9
B378  00        BRK                             A:60 X:07 Y:00 P:75 SP:F9
B379  00        BRK                             A:60 X:07 Y:00 P:75 SP:F9
B37A  00        BRK                             A:60 X:07 Y:00 P:75 SP:F9
B37B  00        BRK                             A:60 X:07 Y:00 P:75 SP:F9
B37C  00        BRK                             A:60 X:07 Y:00 P:75 SP:F9
B37D  00        BRK                             A:60 X:07 Y:00 P:75 SP:F9
B37E  00        BRK                             A:60 X:07 Y:00 P:75 SP:F9
B37F  00        BRK                             A:60 X:07 Y:00 P:75 SP:F9
B380  00        BRK                             A:60 X:07 Y:00 P:75 SP:F9
B381  00        BRK                             A:60 X:07 Y:00 P:75 SP:F9
B382  00        BRK                             A:60 X:07 Y:00 P:75 SP:F9
B383  00        BRK                             A:60 X:07 Y:00 P:75 SP:F9
B384  00        BRK                             A:60 X:07 Y:00 P:75 SP:F9
B385  00        BRK                             A:60 X:07 Y:00 P:75 SP:F9
B386  00        BRK                             A:60 X:07 Y:00 P:75 SP:F9
B387  00        BRK                             A:60 X:07 Y:00 P:75 SP:F9
B388  00        BRK                             A:60 X:07 Y:00 P:75 SP:F9
B389  00        BRK                             A:60 X:07 Y:00 P:75 SP:F9
B38A  00        BRK                             A:60 X:07 Y:00 P:75 SP:F9
B38B  00        BRK                             A:60 X:07 Y:00 P:75 SP:F9
B38C  00        BRK                             A:60 X:07 Y:00 P:75 SP:F9
B38D  00        BRK                             A:60 X:07 Y:00 P:75 SP:F9
B38E  00        BRK                             A:60 X:07 Y:00 P:75 SP:F9
B38F  00        BRK                             A:60 X:07 Y:00 P:75 SP:F9
B390  00        BRK                             A:60 X:07 Y:00 P:75 SP:F9
B391  00        BRK                             A:60 X:07 Y:00 P:75 SP:F9
B392  00        BRK                             A:60 X:07 Y:00 P:75 SP:F9
B393  00        BRK                             A:60 X:07 Y:00 P:75 SP:F9
B394  00        BRK                             A:60 X:07 Y:00 P:75 SP:F9
B395  00        BRK                             A:60 X:07 Y:00 P:75 SP:F9
B396  00        BRK                             A:60 X:07 Y:00 P:75 SP:F9
B397  00        BRK                             A:60 X:07 Y:00 P:75 SP:F9
B398  00        BRK                             A:60 X:07 Y:00 P:75 SP:F9
B399  00        BRK                             A:60 X:07 Y:00 P:75 SP:F9
B39A  00        BRK                             A:60 X:07 Y:00 P:75 SP:F9
B39B  00        BRK                             A:60 X:07 Y:00 P:75 SP:F9
B39C  00        BRK                             A:60 X:07 Y:00 P:75 SP:F9
B39D  00        BRK                             A:60 X:07 Y:00 P:75 SP:F9
B39E  00        BRK                             A:60 X:07 Y:00 P:75 SP:F9
B39F  00        BRK                             A:60 X:07 Y:00 P:75 SP:F9
B3A0  00        BRK                             A:60 X:07 Y:00 P:75 SP:F9
B3A1  00        BRK                             A:60 X:07 Y:00 P:75 SP:F9
B3A2  00        BRK                             A:60 X:07 Y:00 P:75 SP:F9
B3A3  00        BRK                             A:60 X:07 Y:00 P:75 SP:F9
B3A4  00        BRK                             A:60 X:07 Y:00 P:75 SP:F9
B3A5  00        BRK                             A:60 X:07 Y:00 P:75 SP:F9
B3A6  00        BRK                             A:60 X:07 Y:00 P:75 SP:F9
B3A7  00        BRK                             A:60 X:07 Y:00 P:75 SP:F9
B3A8  00        BRK                             A:60 X:07 Y:00 P:75 SP:F9
B3A9  00        BRK                             A:60 X:07 Y:00 P:75 SP:F9
B3AA  00        BRK                             A:60 X:07 Y:00 P:75 SP:F9
B3AB  00        BRK                             A:60 X:07 Y:00 P:75 SP:F9
B3AC  00        BRK                             A:60 X:07 Y:00 P:75 SP:F9
B3AD  00        BRK                             A:60 X:07 Y:00 P:75 SP:F9
B3AE  00        BRK                             A:60 X:07 Y:00 P:75 SP:F9
B3AF  00        BRK                             A:60 X:07 Y:00 P:75 SP:F9
B3B0  00        BRK                             A:60 X:07 Y:00 P:75 SP:F9
B3B1  00        BRK                             A:60 X:07 Y:00 P:75 SP:F9
B3B2  00        BRK                             A:60 X:07 Y:00 P:75 SP:F9
B3B3  00        BRK                             A:60 X:07 Y:00 P:75 SP:F9
B3B4  00        BRK                             A:60 X:07 Y:00 P:75 SP:F9
B3B5  00        BRK                             A:60 X:07 Y:00 P:75 SP:F9
B3B6  00        BRK                             A:60 X:07 Y:00 P:75 SP:F9
B3B7  00        BRK                             A:60 X:07 Y:00 P:75 SP:F9
B3B8  00        BRK                             A:60 X:07 Y:00 P:75 SP:F9
B3B9  00        BRK                             A:60 X:07 Y:00 P:75 SP:F9
B3BA  00        BRK                             A:60 X:07 Y:00 P:75 SP:F9
B3BB  00        BRK                             A:60 X:07 Y:00 P:75 SP:F9
B3BC  00        BRK                             A:60 X:07 Y:00 P:75 SP:F9
B3BD  00        BRK                             A:60 X:07 Y:00 P:75 SP:F9
B3BE  00        BRK                             A:60 X:07 Y:00 P:75 SP:F9
B3BF  00        BRK                             A:60 X:07 Y:00 P:75 SP:F9
B3C0  00        BRK                             A:60 X:07 Y:00 P:75 SP:F9
B3C1  00        BRK                             A:60 X:07 Y:00 P:75 SP:F9
B3C2  00        BRK                             A:60 X:07 Y:00 P:75 SP:F9
B3C3  00        BRK                             A:60 X:07 Y:00 P:75 SP:F9
B3C4  00        BRK                             A:60 X:07 Y:00 P:75 SP:F9
B3C5  00        BRK                             A:60 X:07 Y:00 P:75 SP:F9
B3C6  00        BRK                             A:60 X:07 Y:00 P:75 SP:F9
B3C7  00        BRK                             A:60 X:07 Y:00 P:75 SP:F9
B3C8  00        BRK                             A:60 X:07 Y:00 P:75 SP:F9
B3C9  00        BRK                             A:60 X:07 Y:00 P:75 SP:F9
B3CA  00        BRK                             A:60 X:07 Y:00 P:75 SP:F9
B3CB  00        BRK                             A:60 X:07 Y:00 P:75 SP:F9
B3CC  00        BRK                             A:60 X:07 Y:00 P:75 SP:F9
B3CD  00        BRK                             A:60 X:07 Y:00 P:75 SP:F9
B3CE  00        BRK                             A:60 X:07 Y:00 P:75 SP:F9
B3CF  00        BRK                             A:60 X:07 Y:00 P:75 SP:F9
B3D0  00        BRK                             A:60 X:07 Y:00 P:75 SP:F9
B3D1  00        BRK                             A:60 X:07 Y:00 P:75 SP:F9
B3D2  00        BRK                             A:60 X:07 Y:00 P:75 SP:F9
B3D3  00        BRK                             A:60 X:07 Y:00 P:75 SP:F9
B3D4  00        BRK                             A:60 X:07 Y:00 P:75 SP:F9
B3D5  00        BRK                             A:60 X:07 Y:00 P:75 SP:F9
B3D6  00        BRK                             A:60 X:07 Y:00 P:75 SP:F9
B3D7  00        BRK                             A:60 X:07 Y:00 P:75 SP:F9
B3D8  00        BRK                             A:60 X:07 Y:00 P:75 SP:F9
B3D9  00        BRK                             A:60 X:07 Y:00 P:75 SP:F9
B3DA  00        BRK                             A:60 X:07 Y:00 P:75 SP:F9
B3DB  00        BRK                             A:60 X:07 Y:00 P:75 SP:F9
B3DC  00        BRK                             A:60 X:07 Y:00 P:75 SP:F9
B3DD  00        BRK                             A:60 X:07 Y:00 P:75 SP:F9
B3DE  00        BRK                             A:60 X:07 Y:00 P:75 SP:F9
B3DF  00        BRK                             A:60 X:07 Y:00 P:75 SP:F9
B3E0  00        BRK                             A:60 X:07 Y:00 P:75 SP:F9
B3E1  00        BRK                             A:60 X:07 Y:00 P:75 SP:F9
B3E2  00        BRK                             A:60 X:07 Y:00 P:75 SP:F9
B3E3  00        BRK                             A:60 X:07 Y:00 P:75 SP:F9
B3E4  00        BRK                             A:60 X:07 Y:00 P:75 SP:F9
B3E5  00        BRK                             A:60 X:07 Y:00 P:75 SP:F9
B3E6  00        BRK                             A:60 X:07 Y:00 P:75 SP:F9
B3E7  00        BRK                             A:60 X:07 Y:00 P:75 SP:F9
B3E8  00        BRK                             A:60 X:07 Y:00 P:75 SP:F9
B3E9  00        BRK                             A:60 X:07 Y:00 P:75 SP:F9
B3EA  00        BRK                             A:60 X:07 Y:00 P:75 SP:F9
B3EB  00        BRK                             A:60 X:07 Y:00 P:75 SP:F9
B3EC  00        BRK                             A:60 X:07 Y:00 P:75 SP:F9
B3ED  00        BRK                             A:60 X:07 Y:00 P:75 SP:F9
B3EE  00        BRK                             A:60 X:07 Y:00 P:75 SP:F9
B3EF  00        BRK                             A:60 X:07 Y:00 P:75 SP:F9
B3F0  00        BRK                             A:60 X:07 Y:00 P:75 SP:F9
B3F1  00        BRK                             A:60 X:07 Y:00 P:75 SP:F9
B3F2  00        BRK                             A:60 X:07 Y:00 P:75 SP:F9
B3F3  00        BRK                             A:60 X:07 Y:00 P:75 SP:F9
B3F4  00        BRK                             A:60 X:07 Y:00 P:75 SP:F9
B3F5  00        BRK                             A:60 X:07 Y:00 P:75 SP:F9
B3F6  00        BRK                             A:60 X:07 Y:00 P:75 SP:F9
B3F7  00        BRK                             A:60 X:07 Y:00 P:75 SP:F9
B3F8  00        BRK                             A:60 X:07 Y:00 P:75 SP:F9
B3F9  00        BRK                             A:60 X:07 Y:00 P:75 SP:F9
B3FA  00        BRK                             A:60 X:07 Y:00 P:75 SP:F9
B3FB  00        BRK                             A:60 X:07 Y:00 P:75 SP:F9
B3FC  00        BRK                             A:60 X:07 Y:00 P:75 SP:F9
B3FD  00        BRK                             A:60 X:07 Y:00 P:75 SP:F9
B3FE  00        BRK                             A:60 X:07 Y:00 P:75 SP:F9
B3FF  00        BRK                             A:60 X:07 Y:00 P:75 SP:F9
B400  00        BRK                             A:60 X:07 Y:00 P:75 SP:F9
B401  00        BRK                             A:60 X:07 Y:00 P:75 SP:F9
B402  00        BRK                             A:60 X:07 Y:00 P:75 SP:F9
B403  00        BRK                             A:60 X:07 Y:00 P:75 SP:F9
B404  00        BRK                             A:60 X:07 Y:00 P:75 SP:F9
B405  00        BRK                             A:60 X:07 Y:00 P:75 SP:F9
B406  00        BRK                             A:60 X:07 Y:00 P:75 SP:F9
B407  00        BRK                             A:60 X:07 Y:00 P:75 SP:F9
B408  00        BRK                             A:60 X:07 Y:00 P:75 SP:F9
B409  00        BRK                             A:60 X:07 Y:00 P:75 SP:F9
B40A  00        BRK                             A:60 X:07 Y:00 P:75 SP:F9
B40B  00        BRK                             A:60 X:07 Y:00 P:75 SP:F9
B40C  00        BRK                             A:60 X:07 Y:00 P:75 SP:F9
B40D  00        BRK                             A:60 X:07 Y:00 P:75 SP:F9
B40E  00        BRK                             A:60 X:07 Y:00 P:75 SP:F9
B40F  00        BRK                             A:60 X:07 Y:00 P:75 SP:F9
B410  00        BRK                             A:60 X:07 Y:00 P:75 SP:F9
B411  00        BRK                             A:60 X:07 Y:00 P:75 SP:F9
B412  00        BRK                             A:60 X:07 Y:00 P:75 SP:F9
B413  00        BRK                             A:60 X:07 Y:00 P:75 SP:F9
B414  00        BRK                             A:60 X:07 Y:00 P:75 SP:F9
B415  00        BRK                             A:60 X:07 Y:00 P:75 SP:F9
B416  00        BRK                             A:60 X:07 Y:00 P:75 SP:F9
B417  00        BRK                             A:60 X:07 Y:00 P:75 SP:F9
B418  00        BRK                             A:60 X:07 Y:00 P:75 SP:F9
B419  00        BRK                             A:60 X:07 Y:00 P:75 SP:F9
B41A  00        BRK                             A:60 X:07 Y:00 P:75 SP:F9
B41B  00        BRK                             A:60 X:07 Y:00 P:75 SP:F9
B41C  00        BRK                             A:60 X:07 Y:00 P:75 SP:F9
B41D  00        BRK                             A:60 X:07 Y:00 P:75 SP:F9
B41E  00        BRK                             A:60 X:07 Y:00 P:75 SP:F9
B41F  00        BRK                             A:60 X:07 Y:00 P:75 SP:F9
B420  00        BRK                             A:60 X:07 Y:00 P:75 SP:F9
B421  00        BRK                             A:60 X:07 Y:00 P:75 SP:F9
B422  00        BRK                             A:60 X:07 Y:00 P:75 SP:F9
B423  00        BRK                             A:60 X:07 Y:00 P:75 SP:F9
B424  00        BRK                             A:60 X:07 Y:00 P:75 SP:F9
B425  00        BRK                             A:60 X:07 Y:00 P:75 SP:F9
B426  00        BRK                             A:60 X:07 Y:00 P:75 SP:F9
B427  00        BRK                             A:60 X:07 Y:00 P:75 SP:F9
B428  00        BRK                             A:60 X:07 Y:00 P:75 SP:F9
B429  00        BRK                             A:60 X:07 Y:00 P:75 SP:F9
B42A  00        BRK                             A:60 X:07 Y:00 P:75 SP:F9
B42B  00        BRK                             A:60 X:07 Y:00 P:75 SP:F9
B42C  00        BRK                             A:60 X:07 Y:00 P:75 SP:F9
B42D  00        BRK                             A:60 X:07 Y:00 P:75 SP:F9
B42E  00        BRK                             A:60 X:07 Y:00 P:75 SP:F9
B42F  00        BRK                             A:60 X:07 Y:00 P:75 SP:F9
B430  00        BRK                             A:60 X:07 Y:00 P:75 SP:F9
B431  00        BRK                             A:60 X:07 Y:00 P:75 SP:F9
B432  00        BRK                             A:60 X:07 Y:00 P:75 SP:F9
B433  00        BRK                             A:60 X:07 Y:00 P:75 SP:F9
B434  00        BRK                             A:60 X:07 Y:00 P:75 SP:F9
B435  00        BRK                             A:60 X:07 Y:00 P:75 SP:F9
B436  00        BRK                             A:60 X:07 Y:00 P:75 SP:F9
B437  00        BRK                             A:60 X:07 Y:00 P:75 SP:F9
B438  00        BRK                             A:60 X:07 Y:00 P:75 SP:F9
B439  00        BRK                             A:60 X:07 Y:00 P:75 SP:F9
B43A  00        BRK                             A:60 X:07 Y:00 P:75 SP:F9
B43B  00        BRK                             A:60 X:07 Y:00 P:75 SP:F9
B43C  00        BRK                             A:60 X:07 Y:00 P:75 SP:F9
B43D  00        BRK                             A:60 X:07 Y:00 P:75 SP:F9
B43E  00        BRK                             A:60 X:07 Y:00 P:75 SP:F9
B43F  00        BRK                             A:60 X:07 Y:00 P:75 SP:F9
B440  00        BRK                             A:60 X:07 Y:00 P:75 SP:F9
B441  00        BRK                             A:60 X:07 Y:00 P:75 SP:F9
B442  00        BRK                             A:60 X:07 Y:00 P:75 SP:F9
B443  00        BRK                             A:60 X:07 Y:00 P:75 SP:F9
B444  00        BRK                             A:60 X:07 Y:00 P:75 SP:F9
B445  00        BRK                             A:60 X:07 Y:00 P:75 SP:F9
B446  00        BRK                             A:60 X:07 Y:00 P:75 SP:F9
B447  00        BRK                             A:60 X:07 Y:00 P:75 SP:F9
B448  00        BRK                             A:60 X:07 Y:00 P:75 SP:F9
B449  00        BRK                             A:60 X:07 Y:00 P:75 SP:F9
B44A  00        BRK                             A:60 X:07 Y:00 P:75 SP:F9
B44B  00        BRK                             A:60 X:07 Y:00 P:75 SP:F9
B44C  00        BRK                             A:60 X:07 Y:00 P:75 SP:F9
B44D  00        BRK                             A:60 X:07 Y:00 P:75 SP:F9
B44E  00        BRK                             A:60 X:07 Y:00 P:75 SP:F9
B44F  00        BRK                             A:60 X:07 Y:00 P:75 SP:F9
B450  00        BRK                             A:60 X:07 Y:00 P:75 SP:F9
B451  00        BRK                             A:60 X:07 Y:00 P:75 SP:F9
B452  00        BRK                             A:60 X:07 Y:00 P:75 SP:F9
B453  00        BRK                             A:60 X:07 Y:00 P:75 SP:F9
B454  00        BRK                             A:60 X:07 Y:00 P:75 SP:F9
B455  00        BRK                             A:60 X:07 Y:00 P:75 SP:F9
B456  00        BRK                             A:60 X:07 Y:00 P:75 SP:F9
B457  00        BRK                             A:60 X:07 Y:00 P:75 SP:F9
B458  00        BRK                             A:60 X:07 Y:00 P:75 SP:F9
B459  00        BRK                             A:60 X:07 Y:00 P:75 SP:F9
B45A  00        BRK                             A:60 X:07 Y:00 P:75 SP:F9
B45B  00        BRK                             A:60 X:07 Y:00 P:75 SP:F9
B45C  00        BRK                             A:60 X:07 Y:00 P:75 SP:F9
B45D  00        BRK                             A:60 X:07 Y:00 P:75 SP:F9
B45E  00        BRK                             A:60 X:07 Y:00 P:75 SP:F9
B45F  00        BRK                             A:60 X:07 Y:00 P:75 SP:F9
B460  00        BRK                             A:60 X:07 Y:00 P:75 SP:F9
B461  00        BRK                             A:60 X:07 Y:00 P:75 SP:F9
B462  00        BRK                             A:60 X:07 Y:00 P:75 SP:F9
B463  00        BRK                             A:60 X:07 Y:00 P:75 SP:F9
B464  00        BRK                             A:60 X:07 Y:00 P:75 SP:F9
B465  00        BRK                             A:60 X:07 Y:00 P:75 SP:F9
B466  00        BRK                             A:60 X:07 Y:00 P:75 SP:F9
B467  00        BRK                             A:60 X:07 Y:00 P:75 SP:F9
B468  00        BRK                             A:60 X:07 Y:00 P:75 SP:F9
B469  00        BRK                             A:60 X:07 Y:00 P:75 SP:F9
B46A  00        BRK                             A:60 X:07 Y:00 P:75 SP:F9
B46B  00        BRK                             A:60 X:07 Y:00 P:75 SP:F9
B46C  00        BRK                             A:60 X:07 Y:00 P:75 SP:F9
B46D  00        BRK                             A:60 X:07 Y:00 P:75 SP:F9
B46E  00        BRK                             A:60 X:07 Y:00 P:75 SP:F9
B46F  00        BRK                             A:60 X:07 Y:00 P:75 SP:F9
B470  00        BRK                             A:60 X:07 Y:00 P:75 SP:F9
B471  00        BRK                             A:60 X:07 Y:00 P:75 SP:F9
B472  00        BRK                             A:60 X:07 Y:00 P:75 SP:F9
B473  00        BRK                             A:60 X:07 Y:00 P:75 SP:F9
B474  00        BRK                             A:60 X:07 Y:00 P:75 SP:F9
B475  00        BRK                             A:60 X:07 Y:00 P:75 SP:F9
B476  00        BRK                             A:60 X:07 Y:00 P:75 SP:F9
B477  00        BRK                             A:60 X:07 Y:00 P:75 SP:F9
B478  00        BRK                             A:60 X:07 Y:00 P:75 SP:F9
B479  00        BRK                             A:60 X:07 Y:00 P:75 SP:F9
B47A  00        BRK                             A:60 X:07 Y:00 P:75 SP:F9
B47B  00        BRK                             A:60 X:07 Y:00 P:75 SP:F9
B47C  00        BRK                             A:60 X:07 Y:00 P:75 SP:F9
B47D  00        BRK                             A:60 X:07 Y:00 P:75 SP:F9
B47E  00        BRK                             A:60 X:07 Y:00 P:75 SP:F9
B47F  00        BRK                             A:60 X:07 Y:00 P:75 SP:F9
B480  00        BRK                             A:60 X:07 Y:00 P:75 SP:F9
B481  00        BRK                             A:60 X:07 Y:00 P:75 SP:F9
B482  00        BRK                             A:60 X:07 Y:00 P:75 SP:F9
B483  00        BRK                             A:60 X:07 Y:00 P:75 SP:F9
B484  00        BRK                             A:60 X:07 Y:00 P:75 SP:F9
B485  00        BRK                             A:60 X:07 Y:00 P:75 SP:F9
B486  00        BRK                             A:60 X:07 Y:00 P:75 SP:F9
B487  00        BRK                             A:60 X:07 Y:00 P:75 SP:F9
B488  00        BRK                             A:60 X:07 Y:00 P:75 SP:F9
B489  00        BRK                             A:60 X:07 Y:00 P:75 SP:F9
B48A  00        BRK                             A:60 X:07 Y:00 P:75 SP:F9
B48B  00        BRK                             A:60 X:07 Y:00 P:75 SP:F9
B48C  00        BRK                             A:60 X:07 Y:00 P:75 SP:F9
B48D  00        BRK                             A:60 X:07 Y:00 P:75 SP:F9
B48E  00        BRK                             A:60 X:07 Y:00 P:75 SP:F9
B48F  00        BRK                             A:60 X:07 Y:00 P:75 SP:F9
B490  00        BRK                             A:60 X:07 Y:00 P:75 SP:F9
B491  00        BRK                             A:60 X:07 Y:00 P:75 SP:F9
B492  00        BRK                             A:60 X:07 Y:00 P:75 SP:F9
B493  00        BRK                             A:60 X:07 Y:00 P:75 SP:F9
B494  00        BRK                             A:60 X:07 Y:00 P:75 SP:F9
B495  00        BRK                             A:60 X:07 Y:00 P:75 SP:F9
B496  00        BRK                             A:60 X:07 Y:00 P:75 SP:F9
B497  00        BRK                             A:60 X:07 Y:00 P:75 SP:F9
B498  00        BRK                             A:60 X:07 Y:00 P:75 SP:F9
B499  00        BRK                             A:60 X:07 Y:00 P:75 SP:F9
B49A  00        BRK                             A:60 X:07 Y:00 P:75 SP:F9
B49B  00        BRK                             A:60 X:07 Y:00 P:75 SP:F9
B49C  00        BRK                             A:60 X:07 Y:00 P:75 SP:F9
B49D  00        BRK                             A:60 X:07 Y:00 P:75 SP:F9
B49E  00        BRK                             A:60 X:07 Y:00 P:75 SP:F9
B49F  00        BRK                             A:60 X:07 Y:00 P:75 SP:F9
B4A0  00        BRK                             A:60 X:07 Y:00 P:75 SP:F9
B4A1  00        BRK                             A:60 X:07 Y:00 P:75 SP:F9
B4A2  00        BRK                             A:60 X:07 Y:00 P:75 SP:F9
B4A3  00        BRK                             A:60 X:07 Y:00 P:75 SP:F9
B4A4  00        BRK                             A:60 X:07 Y:00 P:75 SP:F9
B4A5  00        BRK                             A:60 X:07 Y:00 P:75 SP:F9
B4A6  00        BRK                             A:60 X:07 Y:00 P:75 SP:F9
B4A7  00        BRK                             A:60 X:07 Y:00 P:75 SP:F9
B4A8  00        BRK                             A:60 X:07 Y:00 P:75 SP:F9
B4A9  00        BRK                             A:60 X:07 Y:00 P:75 SP:F9
B4AA  00        BRK                             A:60 X:07 Y:00 P:75 SP:F9
B4AB  00        BRK                             A:60 X:07 Y:00 P:75 SP:F9
B4AC  00        BRK                             A:60 X:07 Y:00 P:75 SP:F9
B4AD  00        BRK                             A:60 X:07 Y:00 P:75 SP:F9
B4AE  00        BRK                             A:60 X:07 Y:00 P:75 SP:F9
B4AF  00        BRK                             A:60 X:07 Y:00 P:75 SP:F9
B4B0  00        BRK                             A:60 X:07 Y:00 P:75 SP:F9
B4B1  00        BRK                             A:60 X:07 Y:00 P:75 SP:F9
B4B2  00        BRK                             A:60 X:07 Y:00 P:75 SP:F9
B4B3  00        BRK                             A:60 X:07 Y:00 P:75 SP:F9
B4B4  00        BRK                             A:60 X:07 Y:00 P:75 SP:F9
B4B5  00        BRK                             A:60 X:07 Y:00 P:75 SP:F9
B4B6  00        BRK                             A:60 X:07 Y:00 P:75 SP:F9
B4B7  00        BRK                             A:60 X:07 Y:00 P:75 SP:F9
B4B8  00        BRK                             A:60 X:07 Y:00 P:75 SP:F9
B4B9  00        BRK                             A:60 X:07 Y:00 P:75 SP:F9
B4BA  00        BRK                             A:60 X:07 Y:00 P:75 SP:F9
B4BB  00        BRK                             A:60 X:07 Y:00 P:75 SP:F9
B4BC  00        BRK                             A:60 X:07 Y:00 P:75 SP:F9
B4BD  00        BRK                             A:60 X:07 Y:00 P:75 SP:F9
B4BE  00        BRK                             A:60 X:07 Y:00 P:75 SP:F9
B4BF  00        BRK                             A:60 X:07 Y:00 P:75 SP:F9
B4C0  00        BRK                             A:60 X:07 Y:00 P:75 SP:F9
B4C1  00        BRK                             A:60 X:07 Y:00 P:75 SP:F9
B4C2  00        BRK                             A:60 X:07 Y:00 P:75 SP:F9
B4C3  00        BRK                             A:60 X:07 Y:00 P:75 SP:F9
B4C4  00        BRK                             A:60 X:07 Y:00 P:75 SP:F9
B4C5  00        BRK                             A:60 X:07 Y:00 P:75 SP:F9
B4C6  00        BRK                             A:60 X:07 Y:00 P:75 SP:F9
B4C7  00        BRK                             A:60 X:07 Y:00 P:75 SP:F9
B4C8  00        BRK                             A:60 X:07 Y:00 P:75 SP:F9
B4C9  00        BRK                             A:60 X:07 Y:00 P:75 SP:F9
B4CA  00        BRK                             A:60 X:07 Y:00 P:75 SP:F9
B4CB  00        BRK                             A:60 X:07 Y:00 P:75 SP:F9
B4CC  00        BRK                             A:60 X:07 Y:00 P:75 SP:F9
B4CD  00        BRK                             A:60 X:07 Y:00 P:75 SP:F9
B4CE  00        BRK                             A:60 X:07 Y:00 P:75 SP:F9
B4CF  00        BRK                             A:60 X:07 Y:00 P:75 SP:F9
B4D0  00        BRK                             A:60 X:07 Y:00 P:75 SP:F9
B4D1  00        BRK                             A:60 X:07 Y:00 P:75 SP:F9
B4D2  00        BRK                             A:60 X:07 Y:00 P:75 SP:F9
B4D3  00        BRK                             A:60 X:07 Y:00 P:75 SP:F9
B4D4  00        BRK                             A:60 X:07 Y:00 P:75 SP:F9
B4D5  00        BRK                             A:60 X:07 Y:00 P:75 SP:F9
B4D6  00        BRK                             A:60 X:07 Y:00 P:75 SP:F9
B4D7  00        BRK                             A:60 X:07 Y:00 P:75 SP:F9
B4D8  00        BRK                             A:60 X:07 Y:00 P:75 SP:F9
B4D9  00        BRK                             A:60 X:07 Y:00 P:75 SP:F9
B4DA  00        BRK                             A:60 X:07 Y:00 P:75 SP:F9
B4DB  00        BRK                             A:60 X:07 Y:00 P:75 SP:F9
B4DC  00        BRK                             A:60 X:07 Y:00 P:75 SP:F9
B4DD  00        BRK                             A:60 X:07 Y:00 P:75 SP:F9
B4DE  00        BRK                             A:60 X:07 Y:00 P:75 SP:F9
B4DF  00        BRK                             A:60 X:07 Y:00 P:75 SP:F9
B4E0  00        BRK                             A:60 X:07 Y:00 P:75 SP:F9
B4E1  00        BRK                             A:60 X:07 Y:00 P:75 SP:F9
B4E2  00        BRK                             A:60 X:07 Y:00 P:75 SP:F9
B4E3  00        BRK                             A:60 X:07 Y:00 P:75 SP:F9
B4E4  00        BRK                             A:60 X:07 Y:00 P:75 SP:F9
B4E5  00        BRK                             A:60 X:07 Y:00 P:75 SP:F9
B4E6  00        BRK                             A:60 X:07 Y:00 P:75 SP:F9
B4E7  00        BRK                             A:60 X:07 Y:00 P:75 SP:F9
B4E8  00        BRK                             A:60 X:07 Y:00 P:75 SP:F9
B4E9  00        BRK                             A:60 X:07 Y:00 P:75 SP:F9
B4EA  00        BRK                             A:60 X:07 Y:00 P:75 SP:F9
B4EB  00        BRK                             A:60 X:07 Y:00 P:75 SP:F9
B4EC  00        BRK                             A:60 X:07 Y:00 P:75 SP:F9
B4ED  00        BRK                             A:60 X:07 Y:00 P:75 SP:F9
B4EE  00        BRK                             A:60 X:07 Y:00 P:75 SP:F9
B4EF  00        BRK                             A:60 X:07 Y:00 P:75 SP:F9
B4F0  00        BRK                             A:60 X:07 Y:00 P:75 SP:F9
B4F1  00        BRK                             A:60 X:07 Y:00 P:75 SP:F9
B4F2  00        BRK                             A:60 X:07 Y:00 P:75 SP:F9
B4F3  00        BRK                             A:60 X:07 Y:00 P:75 SP:F9
B4F4  00        BRK                             A:60 X:07 Y:00 P:75 SP:F9
B4F5  00        BRK                             A:60 X:07 Y:00 P:75 SP:F9
B4F6  00        BRK                             A:60 X:07 Y:00 P:75 SP:F9
B4F7  00        BRK                             A:60 X:07 Y:00 P:75 SP:F9
B4F8  00        BRK                             A:60 X:07 Y:00 P:75 SP:F9
B4F9  00        BRK                             A:60 X:07 Y:00 P:75 SP:F9
B4FA  00        BRK                             A:60 X:07 Y:00 P:75 SP:F9
B4FB  00        BRK                             A:60 X:07 Y:00 P:75 SP:F9
B4FC  00        BRK                             A:60 X:07 Y:00 P:75 SP:F9
B4FD  00        BRK                             A:60 X:07 Y:00 P:75 SP:F9
B4FE  00        BRK                             A:60 X:07 Y:00 P:75 SP:F9
B4FF  00        BRK                             A:60 X:07 Y:00 P:75 SP:F9
B500  00        BRK                             A:60 X:07 Y:00 P:75 SP:F9
B501  00        BRK                             A:60 X:07 Y:00 P:75 SP:F9
B502  00        BRK                             A:60 X:07 Y:00 P:75 SP:F9
B503  00        BRK                             A:60 X:07 Y:00 P:75 SP:F9
B504  00        BRK                             A:60 X:07 Y:00 P:75 SP:F9
B505  00        BRK                             A:60 X:07 Y:00 P:75 SP:F9
B506  00        BRK                             A:60 X:07 Y:00 P:75 SP:F9
B507  00        BRK                             A:60 X:07 Y:00 P:75 SP:F9
B508  00        BRK                             A:60 X:07 Y:00 P:75 SP:F9
B509  00        BRK                             A:60 X:07 Y:00 P:75 SP:F9
B50A  00        BRK                             A:60 X:07 Y:00 P:75 SP:F9
B50B  00        BRK                             A:60 X:07 Y:00 P:75 SP:F9
B50C  00        BRK                             A:60 X:07 Y:00 P:75 SP:F9
B50D  00        BRK                             A:60 X:07 Y:00 P:75 SP:F9
B50E  00        BRK                             A:60 X:07 Y:00 P:75 SP:F9
B50F  00        BRK                             A:60 X:07 Y:00 P:75 SP:F9
B510  00        BRK                             A:60 X:07 Y:00 P:75 SP:F9
B511  00        BRK                             A:60 X:07 Y:00 P:75 SP:F9
B512  00        BRK                             A:60 X:07 Y:00 P:75 SP:F9
B513  00        BRK                             A:60 X:07 Y:00 P:75 SP:F9
B514  00        BRK                             A:60 X:07 Y:00 P:75 SP:F9
B515  00        BRK                             A:60 X:07 Y:00 P:75 SP:F9
B516  00        BRK                             A:60 X:07 Y:00 P:75 SP:F9
B517  00        BRK                             A:60 X:07 Y:00 P:75 SP:F9
B518  00        BRK                             A:60 X:07 Y:00 P:75 SP:F9
B519  00        BRK                             A:60 X:07 Y:00 P:75 SP:F9
B51A  00        BRK                             A:60 X:07 Y:00 P:75 SP:F9
B51B  00        BRK                             A:60 X:07 Y:00 P:75 SP:F9
B51C  00        BRK                             A:60 X:07 Y:00 P:75 SP:F9
B51D  00        BRK                             A:60 X:07 Y:00 P:75 SP:F9
B51E  00        BRK                             A:60 X:07 Y:00 P:75 SP:F9
B51F  00        BRK                             A:60 X:07 Y:00 P:75 SP:F9
B520  00        BRK                             A:60 X:07 Y:00 P:75 SP:F9
B521  00        BRK                             A:60 X:07 Y:00 P:75 SP:F9
B522  00        BRK                             A:60 X:07 Y:00 P:75 SP:F9
B523  00        BRK                             A:60 X:07 Y:00 P:75 SP:F9
B524  00        BRK                             A:60 X:07 Y:00 P:75 SP:F9
B525  00        BRK                             A:60 X:07 Y:00 P:75 SP:F9
B526  00        BRK                             A:60 X:07 Y:00 P:75 SP:F9
B527  00        BRK                             A:60 X:07 Y:00 P:75 SP:F9
B528  00        BRK                             A:60 X:07 Y:00 P:75 SP:F9
B529  00        BRK                             A:60 X:07 Y:00 P:75 SP:F9
B52A  00        BRK                             A:60 X:07 Y:00 P:75 SP:F9
B52B  00        BRK                             A:60 X:07 Y:00 P:75 SP:F9
B52C  00        BRK                             A:60 X:07 Y:00 P:75 SP:F9
B52D  00        BRK                             A:60 X:07 Y:00 P:75 SP:F9
B52E  00        BRK                             A:60 X:07 Y:00 P:75 SP:F9
B52F  00        BRK                             A:60 X:07 Y:00 P:75 SP:F9
B530  00        BRK                             A:60 X:07 Y:00 P:75 SP:F9
B531  00        BRK                             A:60 X:07 Y:00 P:75 SP:F9
B532  00        BRK                             A:60 X:07 Y:00 P:75 SP:F9
B533  00        BRK                             A:60 X:07 Y:00 P:75 SP:F9
B534  00        BRK                             A:60 X:07 Y:00 P:75 SP:F9
B535  00        BRK                             A:60 X:07 Y:00 P:75 SP:F9
B536  00        BRK                             A:60 X:07 Y:00 P:75 SP:F9
B537  00        BRK                             A:60 X:07 Y:00 P:75 SP:F9
B538  00        BRK                             A:60 X:07 Y:00 P:75 SP:F9
B539  00        BRK                             A:60 X:07 Y:00 P:75 SP:F9
B53A  00        BRK                             A:60 X:07 Y:00 P:75 SP:F9
B53B  00        BRK                             A:60 X:07 Y:00 P:75 SP:F9
B53C  00        BRK                             A:60 X:07 Y:00 P:75 SP:F9
B53D  00        BRK                             A:60 X:07 Y:00 P:75 SP:F9
B53E  00        BRK                             A:60 X:07 Y:00 P:75 SP:F9
B53F  00        BRK                             A:60 X:07 Y:00 P:75 SP:F9
B540  00        BRK                             A:60 X:07 Y:00 P:75 SP:F9
B541  00        BRK                             A:60 X:07 Y:00 P:75 SP:F9
B542  00        BRK                             A:60 X:07 Y:00 P:75 SP:F9
B543  00        BRK                             A:60 X:07 Y:00 P:75 SP:F9
B544  00        BRK                             A:60 X:07 Y:00 P:75 SP:F9
B545  00        BRK                             A:60 X:07 Y:00 P:75 SP:F9
B546  00        BRK                             A:60 X:07 Y:00 P:75 SP:F9
B547  00        BRK                             A:60 X:07 Y:00 P:75 SP:F9
B548  00        BRK                             A:60 X:07 Y:00 P:75 SP:F9
B549  00        BRK                             A:60 X:07 Y:00 P:75 SP:F9
B54A  00        BRK                             A:60 X:07 Y:00 P:75 SP:F9
B54B  00        BRK                             A:60 X:07 Y:00 P:75 SP:F9
B54C  00        BRK                             A:60 X:07 Y:00 P:75 SP:F9
B54D  00        BRK                             A:60 X:07 Y:00 P:75 SP:F9
B54E  00        BRK                             A:60 X:07 Y:00 P:75 SP:F9
B54F  00        BRK                             A:60 X:07 Y:00 P:75 SP:F9
B550  00        BRK                             A:60 X:07 Y:00 P:75 SP:F9
B551  00        BRK                             A:60 X:07 Y:00 P:75 SP:F9
B552  00        BRK                             A:60 X:07 Y:00 P:75 SP:F9
B553  00        BRK                             A:60 X:07 Y:00 P:75 SP:F9
B554  00        BRK                             A:60 X:07 Y:00 P:75 SP:F9
B555  00        BRK                             A:60 X:07 Y:00 P:75 SP:F9
B556  00        BRK                             A:60 X:07 Y:00 P:75 SP:F9
B557  00        BRK                             A:60 X:07 Y:00 P:75 SP:F9
B558  00        BRK                             A:60 X:07 Y:00 P:75 SP:F9
B559  00        BRK                             A:60 X:07 Y:00 P:75 SP:F9
B55A  00        BRK                             A:60 X:07 Y:00 P:75 SP:F9
B55B  00        BRK                             A:60 X:07 Y:00 P:75 SP:F9
B55C  00        BRK                             A:60 X:07 Y:00 P:75 SP:F9
B55D  00        BRK                             A:60 X:07 Y:00 P:75 SP:F9
B55E  00        BRK                             A:60 X:07 Y:00 P:75 SP:F9
B55F  00        BRK                             A:60 X:07 Y:00 P:75 SP:F9
B560  00        BRK                             A:60 X:07 Y:00 P:75 SP:F9
B561  00        BRK                             A:60 X:07 Y:00 P:75 SP:F9
B562  00        BRK                             A:60 X:07 Y:00 P:75 SP:F9
B563  00        BRK                             A:60 X:07 Y:00 P:75 SP:F9
B564  00        BRK                             A:60 X:07 Y:00 P:75 SP:F9
B565  00        BRK                             A:60 X:07 Y:00 P:75 SP:F9
B566  00        BRK                             A:60 X:07 Y:00 P:75 SP:F9
B567  00        BRK                             A:60 X:07 Y:00 P:75 SP:F9
B568  00        BRK                             A:60 X:07 Y:00 P:75 SP:F9
B569  00        BRK                             A:60 X:07 Y:00 P:75 SP:F9
B56A  00        BRK                             A:60 X:07 Y:00 P:75 SP:F9
B56B  00        BRK                             A:60 X:07 Y:00 P:75 SP:F9
B56C  00        BRK                             A:60 X:07 Y:00 P:75 SP:F9
B56D  00        BRK                             A:60 X:07 Y:00 P:75 SP:F9
B56E  00        BRK                             A:60 X:07 Y:00 P:75 SP:F9
B56F  00        BRK                             A:60 X:07 Y:00 P:75 SP:F9
B570  00        BRK                             A:60 X:07 Y:00 P:75 SP:F9
B571  00        BRK                             A:60 X:07 Y:00 P:75 SP:F9
B572  00        BRK                             A:60 X:07 Y:00 P:75 SP:F9
B573  00        BRK                             A:60 X:07 Y:00 P:75 SP:F9
B574  00        BRK                             A:60 X:07 Y:00 P:75 SP:F9
B575  00        BRK                             A:60 X:07 Y:00 P:75 SP:F9
B576  00        BRK                             A:60 X:07 Y:00 P:75 SP:F9
B577  00        BRK                             A:60 X:07 Y:00 P:75 SP:F9
B578  00        BRK                             A:60 X:07 Y:00 P:75 SP:F9
B579  00        BRK                             A:60 X:07 Y:00 P:75 SP:F9
B57A  00        BRK                             A:60 X:07 Y:00 P:75 SP:F9
B57B  00        BRK                             A:60 X:07 Y:00 P:75 SP:F9
B57C  00        BRK                             A:60 X:07 Y:00 P:75 SP:F9
B57D  00        BRK                             A:60 X:07 Y:00 P:75 SP:F9
B57E  00        BRK                             A:60 X:07 Y:00 P:75 SP:F9
B57F  00        BRK                             A:60 X:07 Y:00 P:75 SP:F9
B580  00        BRK                             A:60 X:07 Y:00 P:75 SP:F9
B581  00        BRK                             A:60 X:07 Y:00 P:75 SP:F9
B582  00        BRK                             A:60 X:07 Y:00 P:75 SP:F9
B583  00        BRK                             A:60 X:07 Y:00 P:75 SP:F9
B584  00        BRK                             A:60 X:07 Y:00 P:75 SP:F9
B585  00        BRK                             A:60 X:07 Y:00 P:75 SP:F9
B586  00        BRK                             A:60 X:07 Y:00 P:75 SP:F9
B587  00        BRK                             A:60 X:07 Y:00 P:75 SP:F9
B588  00        BRK                             A:60 X:07 Y:00 P:75 SP:F9
B589  00        BRK                             A:60 X:07 Y:00 P:75 SP:F9
B58A  00        BRK                             A:60 X:07 Y:00 P:75 SP:F9
B58B  00        BRK                             A:60 X:07 Y:00 P:75 SP:F9
B58C  00        BRK                             A:60 X:07 Y:00 P:75 SP:F9
B58D  00        BRK                             A:60 X:07 Y:00 P:75 SP:F9
B58E  00        BRK                             A:60 X:07 Y:00 P:75 SP:F9
B58F  00        BRK                             A:60 X:07 Y:00 P:75 SP:F9
B590  00        BRK                             A:60 X:07 Y:00 P:75 SP:F9
B591  00        BRK                             A:60 X:07 Y:00 P:75 SP:F9
B592  00        BRK                             A:60 X:07 Y:00 P:75 SP:F9
B593  00        BRK                             A:60 X:07 Y:00 P:75 SP:F9
B594  00        BRK                             A:60 X:07 Y:00 P:75 SP:F9
B595  00        BRK                             A:60 X:07 Y:00 P:75 SP:F9
B596  00        BRK                             A:60 X:07 Y:00 P:75 SP:F9
B597  00        BRK                             A:60 X:07 Y:00 P:75 SP:F9
B598  00        BRK                             A:60 X:07 Y:00 P:75 SP:F9
B599  00        BRK                             A:60 X:07 Y:00 P:75 SP:F9
B59A  00        BRK                             A:60 X:07 Y:00 P:75 SP:F9
B59B  00        BRK                             A:60 X:07 Y:00 P:75 SP:F9
B59C  00        BRK                             A:60 X:07 Y:00 P:75 SP:F9
B59D  00        BRK                             A:60 X:07 Y:00 P:75 SP:F9
B59E  00        BRK                             A:60 X:07 Y:00 P:75 SP:F9
B59F  00        BRK                             A:60 X:07 Y:00 P:75 SP:F9
B5A0  00        BRK                             A:60 X:07 Y:00 P:75 SP:F9
B5A1  00        BRK                             A:60 X:07 Y:00 P:75 SP:F9
B5A2  00        BRK                             A:60 X:07 Y:00 P:75 SP:F9
B5A3  00        BRK                             A:60 X:07 Y:00 P:75 SP:F9
B5A4  00        BRK                             A:60 X:07 Y:00 P:75 SP:F9
B5A5  00        BRK                             A:60 X:07 Y:00 P:75 SP:F9
B5A6  00        BRK                             A:60 X:07 Y:00 P:75 SP:F9
B5A7  00        BRK                             A:60 X:07 Y:00 P:75 SP:F9
B5A8  00        BRK                             A:60 X:07 Y:00 P:75 SP:F9
B5A9  00        BRK                             A:60 X:07 Y:00 P:75 SP:F9
B5AA  00        BRK                             A:60 X:07 Y:00 P:75 SP:F9
B5AB  00        BRK                             A:60 X:07 Y:00 P:75 SP:F9
B5AC  00        BRK                             A:60 X:07 Y:00 P:75 SP:F9
B5AD  00        BRK                             A:60 X:07 Y:00 P:75 SP:F9
B5AE  00        BRK                             A:60 X:07 Y:00 P:75 SP:F9
B5AF  00        BRK                             A:60 X:07 Y:00 P:75 SP:F9
B5B0  00        BRK                             A:60 X:07 Y:00 P:75 SP:F9
B5B1  00        BRK                             A:60 X:07 Y:00 P:75 SP:F9
B5B2  00        BRK                             A:60 X:07 Y:00 P:75 SP:F9
B5B3  00        BRK                             A:60 X:07 Y:00 P:75 SP:F9
B5B4  00        BRK                             A:60 X:07 Y:00 P:75 SP:F9
B5B5  00        BRK                             A:60 X:07 Y:00 P:75 SP:F9
B5B6  00        BRK                             A:60 X:07 Y:00 P:75 SP:F9
B5B7  00        BRK                             A:60 X:07 Y:00 P:75 SP:F9
B5B8  00        BRK                             A:60 X:07 Y:00 P:75 SP:F9
B5B9  00        BRK                             A:60 X:07 Y:00 P:75 SP:F9
B5BA  00        BRK                             A:60 X:07 Y:00 P:75 SP:F9
B5BB  00        BRK                             A:60 X:07 Y:00 P:75 SP:F9
B5BC  00        BRK                             A:60 X:07 Y:00 P:75 SP:F9
B5BD  00        BRK                             A:60 X:07 Y:00 P:75 SP:F9
B5BE  00        BRK                             A:60 X:07 Y:00 P:75 SP:F9
B5BF  00        BRK                             A:60 X:07 Y:00 P:75 SP:F9
B5C0  00        BRK                             A:60 X:07 Y:00 P:75 SP:F9
B5C1  00        BRK                             A:60 X:07 Y:00 P:75 SP:F9
B5C2  00        BRK                             A:60 X:07 Y:00 P:75 SP:F9
B5C3  00        BRK                             A:60 X:07 Y:00 P:75 SP:F9
B5C4  00        BRK                             A:60 X:07 Y:00 P:75 SP:F9
B5C5  00        BRK                             A:60 X:07 Y:00 P:75 SP:F9
B5C6  00        BRK                             A:60 X:07 Y:00 P:75 SP:F9
B5C7  00        BRK                             A:60 X:07 Y:00 P:75 SP:F9
B5C8  00        BRK                             A:60 X:07 Y:00 P:75 SP:F9
B5C9  00        BRK                             A:60 X:07 Y:00 P:75 SP:F9
B5CA  00        BRK                             A:60 X:07 Y:00 P:75 SP:F9
B5CB  00        BRK                             A:60 X:07 Y:00 P:75 SP:F9
B5CC  00        BRK                             A:60 X:07 Y:00 P:75 SP:F9
B5CD  00        BRK                             A:60 X:07 Y:00 P:75 SP:F9
B5CE  00        BRK                             A:60 X:07 Y:00 P:75 SP:F9
B5CF  00        BRK                             A:60 X:07 Y:00 P:75 SP:F9
B5D0  00        BRK                             A:60 X:07 Y:00 P:75 SP:F9
B5D1  00        BRK                             A:60 X:07 Y:00 P:75 SP:F9
B5D2  00        BRK                             A:60 X:07 Y:00 P:75 SP:F9
B5D3  00        BRK                             A:60 X:07 Y:00 P:75 SP:F9
B5D4  00        BRK                             A:60 X:07 Y:00 P:75 SP:F9
B5D5  00        BRK                             A:60 X:07 Y:00 P:75 SP:F9
B5D6  00        BRK                             A:60 X:07 Y:00 P:75 SP:F9
B5D7  00        BRK                             A:60 X:07 Y:00 P:75 SP:F9
B5D8  00        BRK                             A:60 X:07 Y:00 P:75 SP:F9
B5D9  00        BRK                             A:60 X:07 Y:00 P:75 SP:F9
B5DA  00        BRK                             A:60 X:07 Y:00 P:75 SP:F9
B5DB  00        BRK                             A:60 X:07 Y:00 P:75 SP:F9
B5DC  00        BRK                             A:60 X:07 Y:00 P:75 SP:F9
B5DD  00        BRK                             A:60 X:07 Y:00 P:75 SP:F9
B5DE  00        BRK                             A:60 X:07 Y:00 P:75 SP:F9
B5DF  00        BRK                             A:60 X:07 Y:00 P:75 SP:F9
B5E0  00        BRK                             A:60 X:07 Y:00 P:75 SP:F9
B5E1  00        BRK                             A:60 X:07 Y:00 P:75 SP:F9
B5E2  00        BRK                             A:60 X:07 Y:00 P:75 SP:F9
B5E3  00        BRK                             A:60 X:07 Y:00 P:75 SP:F9
B5E4  00        BRK                             A:60 X:07 Y:00 P:75 SP:F9
B5E5  00        BRK                             A:60 X:07 Y:00 P:75 SP:F9
B5E6  00        BRK                             A:60 X:07 Y:00 P:75 SP:F9
B5E7  00        BRK                             A:60 X:07 Y:00 P:75 SP:F9
B5E8  00        BRK                             A:60 X:07 Y:00 P:75 SP:F9
B5E9  00        BRK                             A:60 X:07 Y:00 P:75 SP:F9
B5EA  00        BRK                             A:60 X:07 Y:00 P:75 SP:F9
B5EB  00        BRK                             A:60 X:07 Y:00 P:75 SP:F9
B5EC  00        BRK                             A:60 X:07 Y:00 P:75 SP:F9
B5ED  00        BRK                             A:60 X:07 Y:00 P:75 SP:F9
B5EE  00        BRK                             A:60 X:07 Y:00 P:75 SP:F9
B5EF  00        BRK                             A:60 X:07 Y:00 P:75 SP:F9
B5F0  00        BRK                             A:60 X:07 Y:00 P:75 SP:F9
B5F1  00        BRK                             A:60 X:07 Y:00 P:75 SP:F9
B5F2  00        BRK                             A:60 X:07 Y:00 P:75 SP:F9
B5F3  00        BRK                             A:60 X:07 Y:00 P:75 SP:F9
B5F4  00        BRK                             A:60 X:07 Y:00 P:75 SP:F9
B5F5  00        BRK                             A:60 X:07 Y:00 P:75 SP:F9
B5F6  00        BRK                             A:60 X:07 Y:00 P:75 SP:F9
B5F7  00        BRK                             A:60 X:07 Y:00 P:75 SP:F9
B5F8  00        BRK                             A:60 X:07 Y:00 P:75 SP:F9
B5F9  00        BRK                             A:60 X:07 Y:00 P:75 SP:F9
B5FA  00        BRK                             A:60 X:07 Y:00 P:75 SP:F9
B5FB  00        BRK                             A:60 X:07 Y:00 P:75 SP:F9
B5FC  00        BRK                             A:60 X:07 Y:00 P:75 SP:F9
B5FD  00        BRK                             A:60 X:07 Y:00 P:75 SP:F9
B5FE  00        BRK                             A:60 X:07 Y:00 P:75 SP:F9
B5FF  00        BRK                             A:60 X:07 Y:00 P:75 SP:F9
B600  00        BRK                             A:60 X:07 Y:00 P:75 SP:F9
B601  00        BRK                             A:60 X:07 Y:00 P:75 SP:F9
B602  00        BRK                             A:60 X:07 Y:00 P:75 SP:F9
B603  00        BRK                             A:60 X:07 Y:00 P:75 SP:F9
B604  00        BRK                             A:60 X:07 Y:00 P:75 SP:F9
B605  00        BRK                             A:60 X:07 Y:00 P:75 SP:F9
B606  00        BRK                             A:60 X:07 Y:00 P:75 SP:F9
B607  00        BRK                             A:60 X:07 Y:00 P:75 SP:F9
B608  00        BRK                             A:60 X:07 Y:00 P:75 SP:F9
B609  00        BRK                             A:60 X:07 Y:00 P:75 SP:F9
B60A  00        BRK                             A:60 X:07 Y:00 P:75 SP:F9
B60B  00        BRK                             A:60 X:07 Y:00 P:75 SP:F9
B60C  00        BRK                             A:60 X:07 Y:00 P:75 SP:F9
B60D  00        BRK                             A:60 X:07 Y:00 P:75 SP:F9
B60E  00        BRK                             A:60 X:07 Y:00 P:75 SP:F9
B60F  00        BRK                             A:60 X:07 Y:00 P:75 SP:F9
B610  00        BRK                             A:60 X:07 Y:00 P:75 SP:F9
B611  00        BRK                             A:60 X:07 Y:00 P:75 SP:F9
B612  00        BRK                             A:60 X:07 Y:00 P:75 SP:F9
B613  00        BRK                             A:60 X:07 Y:00 P:75 SP:F9
B614  00        BRK                             A:60 X:07 Y:00 P:75 SP:F9
B615  00        BRK                             A:60 X:07 Y:00 P:75 SP:F9
B616  00        BRK                             A:60 X:07 Y:00 P:75 SP:F9
B617  00        BRK                             A:60 X:07 Y:00 P:75 SP:F9
B618  00        BRK                             A:60 X:07 Y:00 P:75 SP:F9
B619  00        BRK                             A:60 X:07 Y:00 P:75 SP:F9
B61A  00        BRK                             A:60 X:07 Y:00 P:75 SP:F9
B61B  00        BRK                             A:60 X:07 Y:00 P:75 SP:F9
B61C  00        BRK                             A:60 X:07 Y:00 P:75 SP:F9
B61D  00        BRK                             A:60 X:07 Y:00 P:75 SP:F9
B61E  00        BRK                             A:60 X:07 Y:00 P:75 SP:F9
B61F  00        BRK                             A:60 X:07 Y:00 P:75 SP:F9
B620  00        BRK                             A:60 X:07 Y:00 P:75 SP:F9
B621  00        BRK                             A:60 X:07 Y:00 P:75 SP:F9
B622  00        BRK                             A:60 X:07 Y:00 P:75 SP:F9
B623  00        BRK                             A:60 X:07 Y:00 P:75 SP:F9
B624  00        BRK                             A:60 X:07 Y:00 P:75 SP:F9
B625  00        BRK                             A:60 X:07 Y:00 P:75 SP:F9
B626  00        BRK                             A:60 X:07 Y:00 P:75 SP:F9
B627  00        BRK                             A:60 X:07 Y:00 P:75 SP:F9
B628  00        BRK                             A:60 X:07 Y:00 P:75 SP:F9
B629  00        BRK                             A:60 X:07 Y:00 P:75 SP:F9
B62A  00        BRK                             A:60 X:07 Y:00 P:75 SP:F9
B62B  00        BRK                             A:60 X:07 Y:00 P:75 SP:F9
B62C  00        BRK                             A:60 X:07 Y:00 P:75 SP:F9
B62D  00        BRK                             A:60 X:07 Y:00 P:75 SP:F9
B62E  00        BRK                             A:60 X:07 Y:00 P:75 SP:F9
B62F  00        BRK                             A:60 X:07 Y:00 P:75 SP:F9
B630  00        BRK                             A:60 X:07 Y:00 P:75 SP:F9
B631  00        BRK                             A:60 X:07 Y:00 P:75 SP:F9
B632  00        BRK                             A:60 X:07 Y:00 P:75 SP:F9
B633  00        BRK                             A:60 X:07 Y:00 P:75 SP:F9
B634  00        BRK                             A:60 X:07 Y:00 P:75 SP:F9
B635  00        BRK                             A:60 X:07 Y:00 P:75 SP:F9
B636  00        BRK                             A:60 X:07 Y:00 P:75 SP:F9
B637  00        BRK                             A:60 X:07 Y:00 P:75 SP:F9
B638  00        BRK                             A:60 X:07 Y:00 P:75 SP:F9
B639  00        BRK                             A:60 X:07 Y:00 P:75 SP:F9
B63A  00        BRK                             A:60 X:07 Y:00 P:75 SP:F9
B63B  00        BRK                             A:60 X:07 Y:00 P:75 SP:F9
B63C  00        BRK                             A:60 X:07 Y:00 P:75 SP:F9
B63D  00        BRK                             A:60 X:07 Y:00 P:75 SP:F9
B63E  00        BRK                             A:60 X:07 Y:00 P:75 SP:F9
B63F  00        BRK                             A:60 X:07 Y:00 P:75 SP:F9
B640  00        BRK                             A:60 X:07 Y:00 P:75 SP:F9
B641  00        BRK                             A:60 X:07 Y:00 P:75 SP:F9
B642  00        BRK                             A:60 X:07 Y:00 P:75 SP:F9
B643  00        BRK                             A:60 X:07 Y:00 P:75 SP:F9
B644  00        BRK                             A:60 X:07 Y:00 P:75 SP:F9
B645  00        BRK                             A:60 X:07 Y:00 P:75 SP:F9
B646  00        BRK                             A:60 X:07 Y:00 P:75 SP:F9
B647  00        BRK                             A:60 X:07 Y:00 P:75 SP:F9
B648  00        BRK                             A:60 X:07 Y:00 P:75 SP:F9
B649  00        BRK                             A:60 X:07 Y:00 P:75 SP:F9
B64A  00        BRK                             A:60 X:07 Y:00 P:75 SP:F9
B64B  00        BRK                             A:60 X:07 Y:00 P:75 SP:F9
B64C  00        BRK                             A:60 X:07 Y:00 P:75 SP:F9
B64D  00        BRK                             A:60 X:07 Y:00 P:75 SP:F9
B64E  00        BRK                             A:60 X:07 Y:00 P:75 SP:F9
B64F  00        BRK                             A:60 X:07 Y:00 P:75 SP:F9
B650  00        BRK                             A:60 X:07 Y:00 P:75 SP:F9
B651  00        BRK                             A:60 X:07 Y:00 P:75 SP:F9
B652  00        BRK                             A:60 X:07 Y:00 P:75 SP:F9
B653  00        BRK                             A:60 X:07 Y:00 P:75 SP:F9
B654  00        BRK                             A:60 X:07 Y:00 P:75 SP:F9
B655  00        BRK                             A:60 X:07 Y:00 P:75 SP:F9
B656  00        BRK                             A:60 X:07 Y:00 P:75 SP:F9
B657  00        BRK                             A:60 X:07 Y:00 P:75 SP:F9
B658  00        BRK                             A:60 X:07 Y:00 P:75 SP:F9
B659  00        BRK                             A:60 X:07 Y:00 P:75 SP:F9
B65A  00        BRK                             A:60 X:07 Y:00 P:75 SP:F9
B65B  00        BRK                             A:60 X:07 Y:00 P:75 SP:F9
B65C  00        BRK                             A:60 X:07 Y:00 P:75 SP:F9
B65D  00        BRK                             A:60 X:07 Y:00 P:75 SP:F9
B65E  00        BRK                             A:60 X:07 Y:00 P:75 SP:F9
B65F  00        BRK                             A:60 X:07 Y:00 P:75 SP:F9
B660  00        BRK                             A:60 X:07 Y:00 P:75 SP:F9
B661  00        BRK                             A:60 X:07 Y:00 P:75 SP:F9
B662  00        BRK                             A:60 X:07 Y:00 P:75 SP:F9
B663  00        BRK                             A:60 X:07 Y:00 P:75 SP:F9
B664  00        BRK                             A:60 X:07 Y:00 P:75 SP:F9
B665  00        BRK                             A:60 X:07 Y:00 P:75 SP:F9
B666  00        BRK                             A:60 X:07 Y:00 P:75 SP:F9
B667  00        BRK                             A:60 X:07 Y:00 P:75 SP:F9
B668  00        BRK                             A:60 X:07 Y:00 P:75 SP:F9
B669  00        BRK                             A:60 X:07 Y:00 P:75 SP:F9
B66A  00        BRK                             A:60 X:07 Y:00 P:75 SP:F9
B66B  00        BRK                             A:60 X:07 Y:00 P:75 SP:F9
B66C  00        BRK                             A:60 X:07 Y:00 P:75 SP:F9
B66D  00        BRK                             A:60 X:07 Y:00 P:75 SP:F9
B66E  00        BRK                             A:60 X:07 Y:00 P:75 SP:F9
B66F  00        BRK                             A:60 X:07 Y:00 P:75 SP:F9
B670  00        BRK                             A:60 X:07 Y:00 P:75 SP:F9
B671  00        BRK                             A:60 X:07 Y:00 P:75 SP:F9
B672  00        BRK                             A:60 X:07 Y:00 P:75 SP:F9
B673  00        BRK                             A:60 X:07 Y:00 P:75 SP:F9
B674  00        BRK                             A:60 X:07 Y:00 P:75 SP:F9
B675  00        BRK                             A:60 X:07 Y:00 P:75 SP:F9
B676  00        BRK                             A:60 X:07 Y:00 P:75 SP:F9
B677  00        BRK                             A:60 X:07 Y:00 P:75 SP:F9
B678  00        BRK                             A:60 X:07 Y:00 P:75 SP:F9
B679  00        BRK                             A:60 X:07 Y:00 P:75 SP:F9
B67A  00        BRK                             A:60 X:07 Y:00 P:75 SP:F9
B67B  00        BRK                             A:60 X:07 Y:00 P:75 SP:F9
B67C  00        BRK                             A:60 X:07 Y:00 P:75 SP:F9
B67D  00        BRK                             A:60 X:07 Y:00 P:75 SP:F9
B67E  00        BRK                             A:60 X:07 Y:00 P:75 SP:F9
B67F  00        BRK                             A:60 X:07 Y:00 P:75 SP:F9
B680  00        BRK                             A:60 X:07 Y:00 P:75 SP:F9
B681  00        BRK                             A:60 X:07 Y:00 P:75 SP:F9
B682  00        BRK                             A:60 X:07 Y:00 P:75 SP:F9
B683  00        BRK                             A:60 X:07 Y:00 P:75 SP:F9
B684  00        BRK                             A:60 X:07 Y:00 P:75 SP:F9
B685  00        BRK                             A:60 X:07 Y:00 P:75 SP:F9
B686  00        BRK                             A:60 X:07 Y:00 P:75 SP:F9
B687  00        BRK                             A:60 X:07 Y:00 P:75 SP:F9
B688  00        BRK                             A:60 X:07 Y:00 P:75 SP:F9
B689  00        BRK                             A:60 X:07 Y:00 P:75 SP:F9
B68A  00        BRK                             A:60 X:07 Y:00 P:75 SP:F9
B68B  00        BRK                             A:60 X:07 Y:00 P:75 SP:F9
B68C  00        BRK                             A:60 X:07 Y:00 P:75 SP:F9
B68D  00        BRK                             A:60 X:07 Y:00 P:75 SP:F9
B68E  00        BRK                             A:60 X:07 Y:00 P:75 SP:F9
B68F  00        BRK                             A:60 X:07 Y:00 P:75 SP:F9
B690  00        BRK                             A:60 X:07 Y:00 P:75 SP:F9
B691  00        BRK                             A:60 X:07 Y:00 P:75 SP:F9
B692  00        BRK                             A:60 X:07 Y:00 P:75 SP:F9
B693  00        BRK                             A:60 X:07 Y:00 P:75 SP:F9
B694  00        BRK                             A:60 X:07 Y:00 P:75 SP:F9
B695  00        BRK                             A:60 X:07 Y:00 P:75 SP:F9
B696  00        BRK                             A:60 X:07 Y:00 P:75 SP:F9
B697  00        BRK                             A:60 X:07 Y:00 P:75 SP:F9
B698  00        BRK                             A:60 X:07 Y:00 P:75 SP:F9
B699  00        BRK                             A:60 X:07 Y:00 P:75 SP:F9
B69A  00        BRK                             A:60 X:07 Y:00 P:75 SP:F9
B69B  00        BRK                             A:60 X:07 Y:00 P:75 SP:F9
B69C  00        BRK                             A:60 X:07 Y:00 P:75 SP:F9
B69D  00        BRK                             A:60 X:07 Y:00 P:75 SP:F9
B69E  00        BRK                             A:60 X:07 Y:00 P:75 SP:F9
B69F  00        BRK                             A:60 X:07 Y:00 P:75 SP:F9
B6A0  00        BRK                             A:60 X:07 Y:00 P:75 SP:F9
B6A1  00        BRK                             A:60 X:07 Y:00 P:75 SP:F9
B6A2  00        BRK                             A:60 X:07 Y:00 P:75 SP:F9
B6A3  00        BRK                             A:60 X:07 Y:00 P:75 SP:F9
B6A4  00        BRK                             A:60 X:07 Y:00 P:75 SP:F9
B6A5  00        BRK                             A:60 X:07 Y:00 P:75 SP:F9
B6A6  00        BRK                             A:60 X:07 Y:00 P:75 SP:F9
B6A7  00        BRK                             A:60 X:07 Y:00 P:75 SP:F9
B6A8  00        BRK                             A:60 X:07 Y:00 P:75 SP:F9
B6A9  00        BRK                             A:60 X:07 Y:00 P:75 SP:F9
B6AA  00        BRK                             A:60 X:07 Y:00 P:75 SP:F9
B6AB  00        BRK                             A:60 X:07 Y:00 P:75 SP:F9
B6AC  00        BRK                             A:60 X:07 Y:00 P:75 SP:F9
B6AD  00        BRK                             A:60 X:07 Y:00 P:75 SP:F9
B6AE  00        BRK                             A:60 X:07 Y:00 P:75 SP:F9
B6AF  00        BRK                             A:60 X:07 Y:00 P:75 SP:F9
B6B0  00        BRK                             A:60 X:07 Y:00 P:75 SP:F9
B6B1  00        BRK                             A:60 X:07 Y:00 P:75 SP:F9
B6B2  00        BRK                             A:60 X:07 Y:00 P:75 SP:F9
B6B3  00        BRK                             A:60 X:07 Y:00 P:75 SP:F9
B6B4  00        BRK                             A:60 X:07 Y:00 P:75 SP:F9
B6B5  00        BRK                             A:60 X:07 Y:00 P:75 SP:F9
B6B6  00        BRK                             A:60 X:07 Y:00 P:75 SP:F9
B6B7  00        BRK                             A:60 X:07 Y:00 P:75 SP:F9
B6B8  00        BRK                             A:60 X:07 Y:00 P:75 SP:F9
B6B9  00        BRK                             A:60 X:07 Y:00 P:75 SP:F9
B6BA  00        BRK                             A:60 X:07 Y:00 P:75 SP:F9
B6BB  00        BRK                             A:60 X:07 Y:00 P:75 SP:F9
B6BC  00        BRK                             A:60 X:07 Y:00 P:75 SP:F9
B6BD  00        BRK                             A:60 X:07 Y:00 P:75 SP:F9
B6BE  00        BRK                             A:60 X:07 Y:00 P:75 SP:F9
B6BF  00        BRK                             A:60 X:07 Y:00 P:75 SP:F9
B6C0  00        BRK                             A:60 X:07 Y:00 P:75 SP:F9
B6C1  00        BRK                             A:60 X:07 Y:00 P:75 SP:F9
B6C2  00        BRK                             A:60 X:07 Y:00 P:75 SP:F9
B6C3  00        BRK                             A:60 X:07 Y:00 P:75 SP:F9
B6C4  00        BRK                             A:60 X:07 Y:00 P:75 SP:F9
B6C5  00        BRK                             A:60 X:07 Y:00 P:75 SP:F9
B6C6  00        BRK                             A:60 X:07 Y:00 P:75 SP:F9
B6C7  00        BRK                             A:60 X:07 Y:00 P:75 SP:F9
B6C8  00        BRK                             A:60 X:07 Y:00 P:75 SP:F9
B6C9  00        BRK                             A:60 X:07 Y:00 P:75 SP:F9
B6CA  00        BRK                             A:60 X:07 Y:00 P:75 SP:F9
B6CB  00        BRK                             A:60 X:07 Y:00 P:75 SP:F9
B6CC  00        BRK                             A:60 X:07 Y:00 P:75 SP:F9
B6CD  00        BRK                             A:60 X:07 Y:00 P:75 SP:F9
B6CE  00        BRK                             A:60 X:07 Y:00 P:75 SP:F9
B6CF  00        BRK                             A:60 X:07 Y:00 P:75 SP:F9
B6D0  00        BRK                             A:60 X:07 Y:00 P:75 SP:F9
B6D1  00        BRK                             A:60 X:07 Y:00 P:75 SP:F9
B6D2  00        BRK                             A:60 X:07 Y:00 P:75 SP:F9
B6D3  00        BRK                             A:60 X:07 Y:00 P:75 SP:F9
B6D4  00        BRK                             A:60 X:07 Y:00 P:75 SP:F9
B6D5  00        BRK                             A:60 X:07 Y:00 P:75 SP:F9
B6D6  00        BRK                             A:60 X:07 Y:00 P:75 SP:F9
B6D7  00        BRK                             A:60 X:07 Y:00 P:75 SP:F9
B6D8  00        BRK                             A:60 X:07 Y:00 P:75 SP:F9
B6D9  00        BRK                             A:60 X:07 Y:00 P:75 SP:F9
B6DA  00        BRK                             A:60 X:07 Y:00 P:75 SP:F9
B6DB  00        BRK                             A:60 X:07 Y:00 P:75 SP:F9
B6DC  00        BRK                             A:60 X:07 Y:00 P:75 SP:F9
B6DD  00        BRK                             A:60 X:07 Y:00 P:75 SP:F9
B6DE  00        BRK                             A:60 X:07 Y:00 P:75 SP:F9
B6DF  00        BRK                             A:60 X:07 Y:00 P:75 SP:F9
B6E0  00        BRK                             A:60 X:07 Y:00 P:75 SP:F9
B6E1  00        BRK                             A:60 X:07 Y:00 P:75 SP:F9
B6E2  00        BRK                             A:60 X:07 Y:00 P:75 SP:F9
B6E3  00        BRK                             A:60 X:07 Y:00 P:75 SP:F9
B6E4  00        BRK                             A:60 X:07 Y:00 P:75 SP:F9
B6E5  00        BRK                             A:60 X:07 Y:00 P:75 SP:F9
B6E6  00        BRK                             A:60 X:07 Y:00 P:75 SP:F9
B6E7  00        BRK                             A:60 X:07 Y:00 P:75 SP:F9
B6E8  00        BRK                             A:60 X:07 Y:00 P:75 SP:F9
B6E9  00        BRK                             A:60 X:07 Y:00 P:75 SP:F9
B6EA  00        BRK                             A:60 X:07 Y:00 P:75 SP:F9
B6EB  00        BRK                             A:60 X:07 Y:00 P:75 SP:F9
B6EC  00        BRK                             A:60 X:07 Y:00 P:75 SP:F9
B6ED  00        BRK                             A:60 X:07 Y:00 P:75 SP:F9
B6EE  00        BRK                             A:60 X:07 Y:00 P:75 SP:F9
B6EF  00        BRK                             A:60 X:07 Y:00 P:75 SP:F9
B6F0  00        BRK                             A:60 X:07 Y:00 P:75 SP:F9
B6F1  00        BRK                             A:60 X:07 Y:00 P:75 SP:F9
B6F2  00        BRK                             A:60 X:07 Y:00 P:75 SP:F9
B6F3  00        BRK                             A:60 X:07 Y:00 P:75 SP:F9
B6F4  00        BRK                             A:60 X:07 Y:00 P:75 SP:F9
B6F5  00        BRK                             A:60 X:07 Y:00 P:75 SP:F9
B6F6  00        BRK                             A:60 X:07 Y:00 P:75 SP:F9
B6F7  00        BRK                             A:60 X:07 Y:00 P:75 SP:F9
B6F8  00        BRK                             A:60 X:07 Y:00 P:75 SP:F9
B6F9  00        BRK                             A:60 X:07 Y:00 P:75 SP:F9
B6FA  00        BRK                             A:60 X:07 Y:00 P:75 SP:F9
B6FB  00        BRK                             A:60 X:07 Y:00 P:75 SP:F9
B6FC  00        BRK                             A:60 X:07 Y:00 P:75 SP:F9
B6FD  00        BRK                             A:60 X:07 Y:00 P:75 SP:F9
B6FE  00        BRK                             A:60 X:07 Y:00 P:75 SP:F9
B6FF  00        BRK                             A:60 X:07 Y:00 P:75 SP:F9
B700  00        BRK                             A:60 X:07 Y:00 P:75 SP:F9
B701  00        BRK                             A:60 X:07 Y:00 P:75 SP:F9
B702  00        BRK                             A:60 X:07 Y:00 P:75 SP:F9
B703  00        BRK                             A:60 X:07 Y:00 P:75 SP:F9
B704  00        BRK                             A:60 X:07 Y:00 P:75 SP:F9
B705  00        BRK                             A:60 X:07 Y:00 P:75 SP:F9
B706  00        BRK                             A:60 X:07 Y:00 P:75 SP:F9
B707  00        BRK                             A:60 X:07 Y:00 P:75 SP:F9
B708  00        BRK                             A:60 X:07 Y:00 P:75 SP:F9
B709  00        BRK                             A:60 X:07 Y:00 P:75 SP:F9
B70A  00        BRK                             A:60 X:07 Y:00 P:75 SP:F9
B70B  00        BRK                             A:60 X:07 Y:00 P:75 SP:F9
B70C  00        BRK                             A:60 X:07 Y:00 P:75 SP:F9
B70D  00        BRK                             A:60 X:07 Y:00 P:75 SP:F9
B70E  00        BRK                             A:60 X:07 Y:00 P:75 SP:F9
B70F  00        BRK                             A:60 X:07 Y:00 P:75 SP:F9
B710  00        BRK                             A:60 X:07 Y:00 P:75 SP:F9
B711  00        BRK                             A:60 X:07 Y:00 P:75 SP:F9
B712  00        BRK                             A:60 X:07 Y:00 P:75 SP:F9
B713  00        BRK                             A:60 X:07 Y:00 P:75 SP:F9
B714  00        BRK                             A:60 X:07 Y:00 P:75 SP:F9
B715  00        BRK                             A:60 X:07 Y:00 P:75 SP:F9
B716  00        BRK                             A:60 X:07 Y:00 P:75 SP:F9
B717  00        BRK                             A:60 X:07 Y:00 P:75 SP:F9
B718  00        BRK                             A:60 X:07 Y:00 P:75 SP:F9
B719  00        BRK                             A:60 X:07 Y:00 P:75 SP:F9
B71A  00        BRK                             A:60 X:07 Y:00 P:75 SP:F9
B71B  00        BRK                             A:60 X:07 Y:00 P:75 SP:F9
B71C  00        BRK                             A:60 X:07 Y:00 P:75 SP:F9
B71D  00        BRK                             A:60 X:07 Y:00 P:75 SP:F9
B71E  00        BRK                             A:60 X:07 Y:00 P:75 SP:F9
B71F  00        BRK                             A:60 X:07 Y:00 P:75 SP:F9
B720  00        BRK                             A:60 X:07 Y:00 P:75 SP:F9
B721  00        BRK                             A:60 X:07 Y:00 P:75 SP:F9
B722  00        BRK                             A:60 X:07 Y:00 P:75 SP:F9
B723  00        BRK                             A:60 X:07 Y:00 P:75 SP:F9
B724  00        BRK                             A:60 X:07 Y:00 P:75 SP:F9
B725  00        BRK                             A:60 X:07 Y:00 P:75 SP:F9
B726  00        BRK                             A:60 X:07 Y:00 P:75 SP:F9
B727  00        BRK                             A:60 X:07 Y:00 P:75 SP:F9
B728  00        BRK                             A:60 X:07 Y:00 P:75 SP:F9
B729  00        BRK                             A:60 X:07 Y:00 P:75 SP:F9
B72A  00        BRK                             A:60 X:07 Y:00 P:75 SP:F9
B72B  00        BRK                             A:60 X:07 Y:00 P:75 SP:F9
B72C  00        BRK                             A:60 X:07 Y:00 P:75 SP:F9
B72D  00        BRK                             A:60 X:07 Y:00 P:75 SP:F9
B72E  00        BRK                             A:60 X:07 Y:00 P:75 SP:F9
B72F  00        BRK                             A:60 X:07 Y:00 P:75 SP:F9
B730  00        BRK                             A:60 X:07 Y:00 P:75 SP:F9
B731  00        BRK                             A:60 X:07 Y:00 P:75 SP:F9
B732  00        BRK                             A:60 X:07 Y:00 P:75 SP:F9
B733  00        BRK                             A:60 X:07 Y:00 P:75 SP:F9
B734  00        BRK                             A:60 X:07 Y:00 P:75 SP:F9
B735  00        BRK                             A:60 X:07 Y:00 P:75 SP:F9
B736  00        BRK                             A:60 X:07 Y:00 P:75 SP:F9
B737  00        BRK                             A:60 X:07 Y:00 P:75 SP:F9
B738  00        BRK                             A:60 X:07 Y:00 P:75 SP:F9
B739  00        BRK                             A:60 X:07 Y:00 P:75 SP:F9
B73A  00        BRK                             A:60 X:07 Y:00 P:75 SP:F9
B73B  00        BRK                             A:60 X:07 Y:00 P:75 SP:F9
B73C  00        BRK                             A:60 X:07 Y:00 P:75 SP:F9
B73D  00        BRK                             A:60 X:07 Y:00 P:75 SP:F9
B73E  00        BRK                             A:60 X:07 Y:00 P:75 SP:F9
B73F  00        BRK                             A:60 X:07 Y:00 P:75 SP:F9
B740  00        BRK                             A:60 X:07 Y:00 P:75 SP:F9
B741  00        BRK                             A:60 X:07 Y:00 P:75 SP:F9
B742  00        BRK                             A:60 X:07 Y:00 P:75 SP:F9
B743  00        BRK                             A:60 X:07 Y:00 P:75 SP:F9
B744  00        BRK                             A:60 X:07 Y:00 P:75 SP:F9
B745  00        BRK                             A:60 X:07 Y:00 P:75 SP:F9
B746  00        BRK                             A:60 X:07 Y:00 P:75 SP:F9
B747  00        BRK                             A:60 X:07 Y:00 P:75 SP:F9
B748  00        BRK                             A:60 X:07 Y:00 P:75 SP:F9
B749  00        BRK                             A:60 X:07 Y:00 P:75 SP:F9
B74A  00        BRK                             A:60 X:07 Y:00 P:75 SP:F9
B74B  00        BRK                             A:60 X:07 Y:00 P:75 SP:F9
B74C  00        BRK                             A:60 X:07 Y:00 P:75 SP:F9
B74D  00        BRK                             A:60 X:07 Y:00 P:75 SP:F9
B74E  00        BRK                             A:60 X:07 Y:00 P:75 SP:F9
B74F  00        BRK                             A:60 X:07 Y:00 P:75 SP:F9
B750  00        BRK                             A:60 X:07 Y:00 P:75 SP:F9
B751  00        BRK                             A:60 X:07 Y:00 P:75 SP:F9
B752  00        BRK                             A:60 X:07 Y:00 P:75 SP:F9
B753  00        BRK                             A:60 X:07 Y:00 P:75 SP:F9
B754  00        BRK                             A:60 X:07 Y:00 P:75 SP:F9
B755  00        BRK                             A:60 X:07 Y:00 P:75 SP:F9
B756  00        BRK                             A:60 X:07 Y:00 P:75 SP:F9
B757  00        BRK                             A:60 X:07 Y:00 P:75 SP:F9
B758  00        BRK                             A:60 X:07 Y:00 P:75 SP:F9
B759  00        BRK                             A:60 X:07 Y:00 P:75 SP:F9
B75A  00        BRK                             A:60 X:07 Y:00 P:75 SP:F9
B75B  00        BRK                             A:60 X:07 Y:00 P:75 SP:F9
B75C  00        BRK                             A:60 X:07 Y:00 P:75 SP:F9
B75D  00        BRK                             A:60 X:07 Y:00 P:75 SP:F9
B75E  00        BRK                             A:60 X:07 Y:00 P:75 SP:F9
B75F  00        BRK                             A:60 X:07 Y:00 P:75 SP:F9
B760  00        BRK                             A:60 X:07 Y:00 P:75 SP:F9
B761  00        BRK                             A:60 X:07 Y:00 P:75 SP:F9
B762  00        BRK                             A:60 X:07 Y:00 P:75 SP:F9
B763  00        BRK                             A:60 X:07 Y:00 P:75 SP:F9
B764  00        BRK                             A:60 X:07 Y:00 P:75 SP:F9
B765  00        BRK                             A:60 X:07 Y:00 P:75 SP:F9
B766  00        BRK                             A:60 X:07 Y:00 P:75 SP:F9
B767  00        BRK                             A:60 X:07 Y:00 P:75 SP:F9
B768  00        BRK                             A:60 X:07 Y:00 P:75 SP:F9
B769  00        BRK                             A:60 X:07 Y:00 P:75 SP:F9
B76A  00        BRK                             A:60 X:07 Y:00 P:75 SP:F9
B76B  00        BRK                             A:60 X:07 Y:00 P:75 SP:F9
B76C  00        BRK                             A:60 X:07 Y:00 P:75 SP:F9
B76D  00        BRK                             A:60 X:07 Y:00 P:75 SP:F9
B76E  00        BRK                             A:60 X:07 Y:00 P:75 SP:F9
B76F  00        BRK                             A:60 X:07 Y:00 P:75 SP:F9
B770  00        BRK                             A:60 X:07 Y:00 P:75 SP:F9
B771  00        BRK                             A:60 X:07 Y:00 P:75 SP:F9
B772  00        BRK                             A:60 X:07 Y:00 P:75 SP:F9
B773  00        BRK                             A:60 X:07 Y:00 P:75 SP:F9
B774  00        BRK                             A:60 X:07 Y:00 P:75 SP:F9
B775  00        BRK                             A:60 X:07 Y:00 P:75 SP:F9
B776  00        BRK                             A:60 X:07 Y:00 P:75 SP:F9
B777  00        BRK                             A:60 X:07 Y:00 P:75 SP:F9
B778  00        BRK                             A:60 X:07 Y:00 P:75 SP:F9
B779  00        BRK                             A:60 X:07 Y:00 P:75 SP:F9
B77A  00        BRK                             A:60 X:07 Y:00 P:75 SP:F9
B77B  00        BRK                             A:60 X:07 Y:00 P:75 SP:F9
B77C  00        BRK                             A:60 X:07 Y:00 P:75 SP:F9
B77D  00        BRK                             A:60 X:07 Y:00 P:75 SP:F9
B77E  00        BRK                             A:60 X:07 Y:00 P:75 SP:F9
B77F  00        BRK                             A:60 X:07 Y:00 P:75 SP:F9
B780  00        BRK                             A:60 X:07 Y:00 P:75 SP:F9
B781  00        BRK                             A:60 X:07 Y:00 P:75 SP:F9
B782  00        BRK                             A:60 X:07 Y:00 P:75 SP:F9
B783  00        BRK                             A:60 X:07 Y:00 P:75 SP:F9
B784  00        BRK                             A:60 X:07 Y:00 P:75 SP:F9
B785  00        BRK                             A:60 X:07 Y:00 P:75 SP:F9
B786  00        BRK                             A:60 X:07 Y:00 P:75 SP:F9
B787  00        BRK                             A:60 X:07 Y:00 P:75 SP:F9
B788  00        BRK                             A:60 X:07 Y:00 P:75 SP:F9
B789  00        BRK                             A:60 X:07 Y:00 P:75 SP:F9
B78A  00        BRK                             A:60 X:07 Y:00 P:75 SP:F9
B78B  00        BRK                             A:60 X:07 Y:00 P:75 SP:F9
B78C  00        BRK                             A:60 X:07 Y:00 P:75 SP:F9
B78D  00        BRK                             A:60 X:07 Y:00 P:75 SP:F9
B78E  00        BRK                             A:60 X:07 Y:00 P:75 SP:F9
B78F  00        BRK                             A:60 X:07 Y:00 P:75 SP:F9
B790  00        BRK                             A:60 X:07 Y:00 P:75 SP:F9
B791  00        BRK                             A:60 X:07 Y:00 P:75 SP:F9
B792  00        BRK                             A:60 X:07 Y:00 P:75 SP:F9
B793  00        BRK                             A:60 X:07 Y:00 P:75 SP:F9
B794  00        BRK                             A:60 X:07 Y:00 P:75 SP:F9
B795  00        BRK                             A:60 X:07 Y:00 P:75 SP:F9
B796  00        BRK                             A:60 X:07 Y:00 P:75 SP:F9
B797  00        BRK                             A:60 X:07 Y:00 P:75 SP:F9
B798  00        BRK                             A:60 X:07 Y:00 P:75 SP:F9
B799  00        BRK                             A:60 X:07 Y:00 P:75 SP:F9
B79A  00        BRK                             A:60 X:07 Y:00 P:75 SP:F9
B79B  00        BRK                             A:60 X:07 Y:00 P:75 SP:F9
B79C  00        BRK                             A:60 X:07 Y:00 P:75 SP:F9
B79D  00        BRK                             A:60 X:07 Y:00 P:75 SP:F9
B79E  00        BRK                             A:60 X:07 Y:00 P:75 SP:F9
B79F  00        BRK                             A:60 X:07 Y:00 P:75 SP:F9
B7A0  00        BRK                             A:60 X:07 Y:00 P:75 SP:F9
B7A1  00        BRK                             A:60 X:07 Y:00 P:75 SP:F9
B7A2  00        BRK                             A:60 X:07 Y:00 P:75 SP:F9
B7A3  00        BRK                             A:60 X:07 Y:00 P:75 SP:F9
B7A4  00        BRK                             A:60 X:07 Y:00 P:75 SP:F9
B7A5  00        BRK                             A:60 X:07 Y:00 P:75 SP:F9
B7A6  00        BRK                             A:60 X:07 Y:00 P:75 SP:F9
B7A7  00        BRK                             A:60 X:07 Y:00 P:75 SP:F9
B7A8  00        BRK                             A:60 X:07 Y:00 P:75 SP:F9
B7A9  00        BRK                             A:60 X:07 Y:00 P:75 SP:F9
B7AA  00        BRK                             A:60 X:07 Y:00 P:75 SP:F9
B7AB  00        BRK                             A:60 X:07 Y:00 P:75 SP:F9
B7AC  00        BRK                             A:60 X:07 Y:00 P:75 SP:F9
B7AD  00        BRK                             A:60 X:07 Y:00 P:75 SP:F9
B7AE  00        BRK                             A:60 X:07 Y:00 P:75 SP:F9
B7AF  00        BRK                             A:60 X:07 Y:00 P:75 SP:F9
B7B0  00        BRK                             A:60 X:07 Y:00 P:75 SP:F9
B7B1  00        BRK                             A:60 X:07 Y:00 P:75 SP:F9
B7B2  00        BRK                             A:60 X:07 Y:00 P:75 SP:F9
B7B3  00        BRK                             A:60 X:07 Y:00 P:75 SP:F9
B7B4  00        BRK                             A:60 X:07 Y:00 P:75 SP:F9
B7B5  00        BRK                             A:60 X:07 Y:00 P:75 SP:F9
B7B6  00        BRK                             A:60 X:07 Y:00 P:75 SP:F9
B7B7  00        BRK                             A:60 X:07 Y:00 P:75 SP:F9
B7B8  00        BRK                             A:60 X:07 Y:00 P:75 SP:F9
B7B9  00        BRK                             A:60 X:07 Y:00 P:75 SP:F9
B7BA  00        BRK                             A:60 X:07 Y:00 P:75 SP:F9
B7BB  00        BRK                             A:60 X:07 Y:00 P:75 SP:F9
B7BC  00        BRK                             A:60 X:07 Y:00 P:75 SP:F9
B7BD  00        BRK                             A:60 X:07 Y:00 P:75 SP:F9
B7BE  00        BRK                             A:60 X:07 Y:00 P:75 SP:F9
B7BF  00        BRK                             A:60 X:07 Y:00 P:75 SP:F9
B7C0  00        BRK                             A:60 X:07 Y:00 P:75 SP:F9
B7C1  00        BRK                             A:60 X:07 Y:00 P:75 SP:F9
B7C2  00        BRK                             A:60 X:07 Y:00 P:75 SP:F9
B7C3  00        BRK                             A:60 X:07 Y:00 P:75 SP:F9
B7C4  00        BRK                             A:60 X:07 Y:00 P:75 SP:F9
B7C5  00        BRK                             A:60 X:07 Y:00 P:75 SP:F9
B7C6  00        BRK                             A:60 X:07 Y:00 P:75 SP:F9
B7C7  00        BRK                             A:60 X:07 Y:00 P:75 SP:F9
B7C8  00        BRK                             A:60 X:07 Y:00 P:75 SP:F9
B7C9  00        BRK                             A:60 X:07 Y:00 P:75 SP:F9
B7CA  00        BRK                             A:60 X:07 Y:00 P:75 SP:F9
B7CB  00        BRK                             A:60 X:07 Y:00 P:75 SP:F9
B7CC  00        BRK                             A:60 X:07 Y:00 P:75 SP:F9
B7CD  00        BRK                             A:60 X:07 Y:00 P:75 SP:F9
B7CE  00        BRK                             A:60 X:07 Y:00 P:75 SP:F9
B7CF  00        BRK                             A:60 X:07 Y:00 P:75 SP:F9
B7D0  00        BRK                             A:60 X:07 Y:00 P:75 SP:F9
B7D1  00        BRK                             A:60 X:07 Y:00 P:75 SP:F9
B7D2  00        BRK                             A:60 X:07 Y:00 P:75 SP:F9
B7D3  00        BRK                             A:60 X:07 Y:00 P:75 SP:F9
B7D4  00        BRK                             A:60 X:07 Y:00 P:75 SP:F9
B7D5  00        BRK                             A:60 X:07 Y:00 P:75 SP:F9
B7D6  00        BRK                             A:60 X:07 Y:00 P:75 SP:F9
B7D7  00        BRK                             A:60 X:07 Y:00 P:75 SP:F9
B7D8  00        BRK                             A:60 X:07 Y:00 P:75 SP:F9
B7D9  00        BRK                             A:60 X:07 Y:00 P:75 SP:F9
B7DA  00        BRK                             A:60 X:07 Y:00 P:75 SP:F9
B7DB  00        BRK                             A:60 X:07 Y:00 P:75 SP:F9
B7DC  00        BRK                             A:60 X:07 Y:00 P:75 SP:F9
B7DD  00        BRK                             A:60 X:07 Y:00 P:75 SP:F9
B7DE  00        BRK                             A:60 X:07 Y:00 P:75 SP:F9
B7DF  00        BRK                             A:60 X:07 Y:00 P:75 SP:F9
B7E0  00        BRK                             A:60 X:07 Y:00 P:75 SP:F9
B7E1  00        BRK                             A:60 X:07 Y:00 P:75 SP:F9
B7E2  00        BRK                             A:60 X:07 Y:00 P:75 SP:F9
B7E3  00        BRK                             A:60 X:07 Y:00 P:75 SP:F9
B7E4  00        BRK                             A:60 X:07 Y:00 P:75 SP:F9
B7E5  00        BRK                             A:60 X:07 Y:00 P:75 SP:F9
B7E6  00        BRK                             A:60 X:07 Y:00 P:75 SP:F9
B7E7  00        BRK                             A:60 X:07 Y:00 P:75 SP:F9
B7E8  00        BRK                             A:60 X:07 Y:00 P:75 SP:F9
B7E9  00        BRK                             A:60 X:07 Y:00 P:75 SP:F9
B7EA  00        BRK                             A:60 X:07 Y:00 P:75 SP:F9
B7EB  00        BRK                             A:60 X:07 Y:00 P:75 SP:F9
B7EC  00        BRK                             A:60 X:07 Y:00 P:75 SP:F9
B7ED  00        BRK                             A:60 X:07 Y:00 P:75 SP:F9
B7EE  00        BRK                             A:60 X:07 Y:00 P:75 SP:F9
B7EF  00        BRK                             A:60 X:07 Y:00 P:75 SP:F9
B7F0  00        BRK                             A:60 X:07 Y:00 P:75 SP:F9
B7F1  00        BRK                             A:60 X:07 Y:00 P:75 SP:F9
B7F2  00        BRK                             A:60 X:07 Y:00 P:75 SP:F9
B7F3  00        BRK                             A:60 X:07 Y:00 P:75 SP:F9
B7F4  00        BRK                             A:60 X:07 Y:00 P:75 SP:F9
B7F5  00        BRK                             A:60 X:07 Y:00 P:75 SP:F9
B7F6  00        BRK                             A:60 X:07 Y:00 P:75 SP:F9
B7F7  00        BRK                             A:60 X:07 Y:00 P:75 SP:F9
B7F8  00        BRK                             A:60 X:07 Y:00 P:75 SP:F9
B7F9  00        BRK                             A:60 X:07 Y:00 P:75 SP:F9
B7FA  00        BRK                             A:60 X:07 Y:00 P:75 SP:F9
B7FB  00        BRK                             A:60 X:07 Y:00 P:75 SP:F9
B7FC  00        BRK                             A:60 X:07 Y:00 P:75 SP:F9
B7FD  00        BRK                             A:60 X:07 Y:00 P:75 SP:F9
B7FE  00        BRK                             A:60 X:07 Y:00 P:75 SP:F9
B7FF  00        BRK                             A:60 X:07 Y:00 P:75 SP:F9
B800  00        BRK                             A:60 X:07 Y:00 P:75 SP:F9
B801  00        BRK                             A:60 X:07 Y:00 P:75 SP:F9
B802  00        BRK                             A:60 X:07 Y:00 P:75 SP:F9
B803  00        BRK                             A:60 X:07 Y:00 P:75 SP:F9
B804  00        BRK                             A:60 X:07 Y:00 P:75 SP:F9
B805  00        BRK                             A:60 X:07 Y:00 P:75 SP:F9
B806  00        BRK                             A:60 X:07 Y:00 P:75 SP:F9
B807  00        BRK                             A:60 X:07 Y:00 P:75 SP:F9
B808  00        BRK                             A:60 X:07 Y:00 P:75 SP:F9
B809  00        BRK                             A:60 X:07 Y:00 P:75 SP:F9
B80A  00        BRK                             A:60 X:07 Y:00 P:75 SP:F9
B80B  00        BRK                             A:60 X:07 Y:00 P:75 SP:F9
B80C  00        BRK                             A:60 X:07 Y:00 P:75 SP:F9
B80D  00        BRK                             A:60 X:07 Y:00 P:75 SP:F9
B80E  00        BRK                             A:60 X:07 Y:00 P:75 SP:F9
B80F  00        BRK                             A:60 X:07 Y:00 P:75 SP:F9
B810  00        BRK                             A:60 X:07 Y:00 P:75 SP:F9
B811  00        BRK                             A:60 X:07 Y:00 P:75 SP:F9
B812  00        BRK                             A:60 X:07 Y:00 P:75 SP:F9
B813  00        BRK                             A:60 X:07 Y:00 P:75 SP:F9
B814  00        BRK                             A:60 X:07 Y:00 P:75 SP:F9
B815  00        BRK                             A:60 X:07 Y:00 P:75 SP:F9
B816  00        BRK                             A:60 X:07 Y:00 P:75 SP:F9
B817  00        BRK                             A:60 X:07 Y:00 P:75 SP:F9
B818  00        BRK                             A:60 X:07 Y:00 P:75 SP:F9
B819  00        BRK                             A:60 X:07 Y:00 P:75 SP:F9
B81A  00        BRK                             A:60 X:07 Y:00 P:75 SP:F9
B81B  00        BRK                             A:60 X:07 Y:00 P:75 SP:F9
B81C  00        BRK                             A:60 X:07 Y:00 P:75 SP:F9
B81D  00        BRK                             A:60 X:07 Y:00 P:75 SP:F9
B81E  00        BRK                             A:60 X:07 Y:00 P:75 SP:F9
B81F  00        BRK                             A:60 X:07 Y:00 P:75 SP:F9
B820  00        BRK                             A:60 X:07 Y:00 P:75 SP:F9
B821  00        BRK                             A:60 X:07 Y:00 P:75 SP:F9
B822  00        BRK                             A:60 X:07 Y:00 P:75 SP:F9
B823  00        BRK                             A:60 X:07 Y:00 P:75 SP:F9
B824  00        BRK                             A:60 X:07 Y:00 P:75 SP:F9
B825  00        BRK                             A:60 X:07 Y:00 P:75 SP:F9
B826  00        BRK                             A:60 X:07 Y:00 P:75 SP:F9
B827  00        BRK                             A:60 X:07 Y:00 P:75 SP:F9
B828  00        BRK                             A:60 X:07 Y:00 P:75 SP:F9
B829  00        BRK                             A:60 X:07 Y:00 P:75 SP:F9
B82A  00        BRK                             A:60 X:07 Y:00 P:75 SP:F9
B82B  00        BRK                             A:60 X:07 Y:00 P:75 SP:F9
B82C  00        BRK                             A:60 X:07 Y:00 P:75 SP:F9
B82D  00        BRK                             A:60 X:07 Y:00 P:75 SP:F9
B82E  00        BRK                             A:60 X:07 Y:00 P:75 SP:F9
B82F  00        BRK                             A:60 X:07 Y:00 P:75 SP:F9
B830  00        BRK                             A:60 X:07 Y:00 P:75 SP:F9
B831  00        BRK                             A:60 X:07 Y:00 P:75 SP:F9
B832  00        BRK                             A:60 X:07 Y:00 P:75 SP:F9
B833  00        BRK                             A:60 X:07 Y:00 P:75 SP:F9
B834  00        BRK                             A:60 X:07 Y:00 P:75 SP:F9
B835  00        BRK                             A:60 X:07 Y:00 P:75 SP:F9
B836  00        BRK                             A:60 X:07 Y:00 P:75 SP:F9
B837  00        BRK                             A:60 X:07 Y:00 P:75 SP:F9
B838  00        BRK                             A:60 X:07 Y:00 P:75 SP:F9
B839  00        BRK                             A:60 X:07 Y:00 P:75 SP:F9
B83A  00        BRK                             A:60 X:07 Y:00 P:75 SP:F9
B83B  00        BRK                             A:60 X:07 Y:00 P:75 SP:F9
B83C  00        BRK                             A:60 X:07 Y:00 P:75 SP:F9
B83D  00        BRK                             A:60 X:07 Y:00 P:75 SP:F9
B83E  00        BRK                             A:60 X:07 Y:00 P:75 SP:F9
B83F  00        BRK                             A:60 X:07 Y:00 P:75 SP:F9
B840  00        BRK                             A:60 X:07 Y:00 P:75 SP:F9
B841  00        BRK                             A:60 X:07 Y:00 P:75 SP:F9
B842  00        BRK                             A:60 X:07 Y:00 P:75 SP:F9
B843  00        BRK                             A:60 X:07 Y:00 P:75 SP:F9
B844  00        BRK                             A:60 X:07 Y:00 P:75 SP:F9
B845  00        BRK                             A:60 X:07 Y:00 P:75 SP:F9
B846  00        BRK                             A:60 X:07 Y:00 P:75 SP:F9
B847  00        BRK                             A:60 X:07 Y:00 P:75 SP:F9
B848  00        BRK                             A:60 X:07 Y:00 P:75 SP:F9
B849  00        BRK                             A:60 X:07 Y:00 P:75 SP:F9
B84A  00        BRK                             A:60 X:07 Y:00 P:75 SP:F9
B84B  00        BRK                             A:60 X:07 Y:00 P:75 SP:F9
B84C  00        BRK                             A:60 X:07 Y:00 P:75 SP:F9
B84D  00        BRK                             A:60 X:07 Y:00 P:75 SP:F9
B84E  00        BRK                             A:60 X:07 Y:00 P:75 SP:F9
B84F  00        BRK                             A:60 X:07 Y:00 P:75 SP:F9
B850  00        BRK                             A:60 X:07 Y:00 P:75 SP:F9
B851  00        BRK                             A:60 X:07 Y:00 P:75 SP:F9
B852  00        BRK                             A:60 X:07 Y:00 P:75 SP:F9
B853  00        BRK                             A:60 X:07 Y:00 P:75 SP:F9
B854  00        BRK                             A:60 X:07 Y:00 P:75 SP:F9
B855  00        BRK                             A:60 X:07 Y:00 P:75 SP:F9
B856  00        BRK                             A:60 X:07 Y:00 P:75 SP:F9
B857  00        BRK                             A:60 X:07 Y:00 P:75 SP:F9
B858  00        BRK                             A:60 X:07 Y:00 P:75 SP:F9
B859  00        BRK                             A:60 X:07 Y:00 P:75 SP:F9
B85A  00        BRK                             A:60 X:07 Y:00 P:75 SP:F9
B85B  00        BRK                             A:60 X:07 Y:00 P:75 SP:F9
B85C  00        BRK                             A:60 X:07 Y:00 P:75 SP:F9
B85D  00        BRK                             A:60 X:07 Y:00 P:75 SP:F9
B85E  00        BRK                             A:60 X:07 Y:00 P:75 SP:F9
B85F  00        BRK                             A:60 X:07 Y:00 P:75 SP:F9
B860  00        BRK                             A:60 X:07 Y:00 P:75 SP:F9
B861  00        BRK                             A:60 X:07 Y:00 P:75 SP:F9
B862  00        BRK                             A:60 X:07 Y:00 P:75 SP:F9
B863  00        BRK                             A:60 X:07 Y:00 P:75 SP:F9
B864  00        BRK                             A:60 X:07 Y:00 P:75 SP:F9
B865  00        BRK                             A:60 X:07 Y:00 P:75 SP:F9
B866  00        BRK                             A:60 X:07 Y:00 P:75 SP:F9
B867  00        BRK                             A:60 X:07 Y:00 P:75 SP:F9
B868  00        BRK                             A:60 X:07 Y:00 P:75 SP:F9
B869  00        BRK                             A:60 X:07 Y:00 P:75 SP:F9
B86A  00        BRK                             A:60 X:07 Y:00 P:75 SP:F9
B86B  00        BRK                             A:60 X:07 Y:00 P:75 SP:F9
B86C  00        BRK                             A:60 X:07 Y:00 P:75 SP:F9
B86D  00        BRK                             A:60 X:07 Y:00 P:75 SP:F9
B86E  00        BRK                             A:60 X:07 Y:00 P:75 SP:F9
B86F  00        BRK                             A:60 X:07 Y:00 P:75 SP:F9
B870  00        BRK                             A:60 X:07 Y:00 P:75 SP:F9
B871  00        BRK                             A:60 X:07 Y:00 P:75 SP:F9
B872  00        BRK                             A:60 X:07 Y:00 P:75 SP:F9
B873  00        BRK                             A:60 X:07 Y:00 P:75 SP:F9
B874  00        BRK                             A:60 X:07 Y:00 P:75 SP:F9
B875  00        BRK                             A:60 X:07 Y:00 P:75 SP:F9
B876  00        BRK                             A:60 X:07 Y:00 P:75 SP:F9
B877  00        BRK                             A:60 X:07 Y:00 P:75 SP:F9
B878  00        BRK                             A:60 X:07 Y:00 P:75 SP:F9
B879  00        BRK                             A:60 X:07 Y:00 P:75 SP:F9
B87A  00        BRK                             A:60 X:07 Y:00 P:75 SP:F9
B87B  00        BRK                             A:60 X:07 Y:00 P:75 SP:F9
B87C  00        BRK                             A:60 X:07 Y:00 P:75 SP:F9
B87D  00        BRK                             A:60 X:07 Y:00 P:75 SP:F9
B87E  00        BRK                             A:60 X:07 Y:00 P:75 SP:F9
B87F  00        BRK                             A:60 X:07 Y:00 P:75 SP:F9
B880  00        BRK                             A:60 X:07 Y:00 P:75 SP:F9
B881  00        BRK                             A:60 X:07 Y:00 P:75 SP:F9
B882  00        BRK                             A:60 X:07 Y:00 P:75 SP:F9
B883  00        BRK                             A:60 X:07 Y:00 P:75 SP:F9
B884  00        BRK                             A:60 X:07 Y:00 P:75 SP:F9
B885  00        BRK                             A:60 X:07 Y:00 P:75 SP:F9
B886  00        BRK                             A:60 X:07 Y:00 P:75 SP:F9
B887  00        BRK                             A:60 X:07 Y:00 P:75 SP:F9
B888  00        BRK                             A:60 X:07 Y:00 P:75 SP:F9
B889  00        BRK                             A:60 X:07 Y:00 P:75 SP:F9
B88A  00        BRK                             A:60 X:07 Y:00 P:75 SP:F9
B88B  00        BRK                             A:60 X:07 Y:00 P:75 SP:F9
B88C  00        BRK                             A:60 X:07 Y:00 P:75 SP:F9
B88D  00        BRK                             A:60 X:07 Y:00 P:75 SP:F9
B88E  00        BRK                             A:60 X:07 Y:00 P:75 SP:F9
B88F  00        BRK                             A:60 X:07 Y:00 P:75 SP:F9
B890  00        BRK                             A:60 X:07 Y:00 P:75 SP:F9
B891  00        BRK                             A:60 X:07 Y:00 P:75 SP:F9
B892  00        BRK                             A:60 X:07 Y:00 P:75 SP:F9
B893  00        BRK                             A:60 X:07 Y:00 P:75 SP:F9
B894  00        BRK                             A:60 X:07 Y:00 P:75 SP:F9
B895  00        BRK                             A:60 X:07 Y:00 P:75 SP:F9
B896  00        BRK                             A:60 X:07 Y:00 P:75 SP:F9
B897  00        BRK                             A:60 X:07 Y:00 P:75 SP:F9
B898  00        BRK                             A:60 X:07 Y:00 P:75 SP:F9
B899  00        BRK                             A:60 X:07 Y:00 P:75 SP:F9
B89A  00        BRK                             A:60 X:07 Y:00 P:75 SP:F9
B89B  00        BRK                             A:60 X:07 Y:00 P:75 SP:F9
B89C  00        BRK                             A:60 X:07 Y:00 P:75 SP:F9
B89D  00        BRK                             A:60 X:07 Y:00 P:75 SP:F9
B89E  00        BRK                             A:60 X:07 Y:00 P:75 SP:F9
B89F  00        BRK                             A:60 X:07 Y:00 P:75 SP:F9
B8A0  00        BRK                             A:60 X:07 Y:00 P:75 SP:F9
B8A1  00        BRK                             A:60 X:07 Y:00 P:75 SP:F9
B8A2  00        BRK                             A:60 X:07 Y:00 P:75 SP:F9
B8A3  00        BRK                             A:60 X:07 Y:00 P:75 SP:F9
B8A4  00        BRK                             A:60 X:07 Y:00 P:75 SP:F9
B8A5  00        BRK                             A:60 X:07 Y:00 P:75 SP:F9
B8A6  00        BRK                             A:60 X:07 Y:00 P:75 SP:F9
B8A7  00        BRK                             A:60 X:07 Y:00 P:75 SP:F9
B8A8  00        BRK                             A:60 X:07 Y:00 P:75 SP:F9
B8A9  00        BRK                             A:60 X:07 Y:00 P:75 SP:F9
B8AA  00        BRK                             A:60 X:07 Y:00 P:75 SP:F9
B8AB  00        BRK                             A:60 X:07 Y:00 P:75 SP:F9
B8AC  00        BRK                             A:60 X:07 Y:00 P:75 SP:F9
B8AD  00        BRK                             A:60 X:07 Y:00 P:75 SP:F9
B8AE  00        BRK                             A:60 X:07 Y:00 P:75 SP:F9
B8AF  00        BRK                             A:60 X:07 Y:00 P:75 SP:F9
B8B0  00        BRK                             A:60 X:07 Y:00 P:75 SP:F9
B8B1  00        BRK                             A:60 X:07 Y:00 P:75 SP:F9
B8B2  00        BRK                             A:60 X:07 Y:00 P:75 SP:F9
B8B3  00        BRK                             A:60 X:07 Y:00 P:75 SP:F9
B8B4  00        BRK                             A:60 X:07 Y:00 P:75 SP:F9
B8B5  00        BRK                             A:60 X:07 Y:00 P:75 SP:F9
B8B6  00        BRK                             A:60 X:07 Y:00 P:75 SP:F9
B8B7  00        BRK                             A:60 X:07 Y:00 P:75 SP:F9
B8B8  00        BRK                             A:60 X:07 Y:00 P:75 SP:F9
B8B9  00        BRK                             A:60 X:07 Y:00 P:75 SP:F9
B8BA  00        BRK                             A:60 X:07 Y:00 P:75 SP:F9
B8BB  00        BRK                             A:60 X:07 Y:00 P:75 SP:F9
B8BC  00        BRK                             A:60 X:07 Y:00 P:75 SP:F9
B8BD  00        BRK                             A:60 X:07 Y:00 P:75 SP:F9
B8BE  00        BRK                             A:60 X:07 Y:00 P:75 SP:F9
B8BF  00        BRK                             A:60 X:07 Y:00 P:75 SP:F9
B8C0  00        BRK                             A:60 X:07 Y:00 P:75 SP:F9
B8C1  00        BRK                             A:60 X:07 Y:00 P:75 SP:F9
B8C2  00        BRK                             A:60 X:07 Y:00 P:75 SP:F9
B8C3  00        BRK                             A:60 X:07 Y:00 P:75 SP:F9
B8C4  00        BRK                             A:60 X:07 Y:00 P:75 SP:F9
B8C5  00        BRK                             A:60 X:07 Y:00 P:75 SP:F9
B8C6  00        BRK                             A:60 X:07 Y:00 P:75 SP:F9
B8C7  00        BRK                             A:60 X:07 Y:00 P:75 SP:F9
B8C8  00        BRK                             A:60 X:07 Y:00 P:75 SP:F9
B8C9  00        BRK                             A:60 X:07 Y:00 P:75 SP:F9
B8CA  00        BRK                             A:60 X:07 Y:00 P:75 SP:F9
B8CB  00        BRK                             A:60 X:07 Y:00 P:75 SP:F9
B8CC  00        BRK                             A:60 X:07 Y:00 P:75 SP:F9
B8CD  00        BRK                             A:60 X:07 Y:00 P:75 SP:F9
B8CE  00        BRK                             A:60 X:07 Y:00 P:75 SP:F9
B8CF  00        BRK                             A:60 X:07 Y:00 P:75 SP:F9
B8D0  00        BRK                             A:60 X:07 Y:00 P:75 SP:F9
B8D1  00        BRK                             A:60 X:07 Y:00 P:75 SP:F9
B8D2  00        BRK                             A:60 X:07 Y:00 P:75 SP:F9
B8D3  00        BRK                             A:60 X:07 Y:00 P:75 SP:F9
B8D4  00        BRK                             A:60 X:07 Y:00 P:75 SP:F9
B8D5  00        BRK                             A:60 X:07 Y:00 P:75 SP:F9
B8D6  00        BRK                             A:60 X:07 Y:00 P:75 SP:F9
B8D7  00        BRK                             A:60 X:07 Y:00 P:75 SP:F9
B8D8  00        BRK                             A:60 X:07 Y:00 P:75 SP:F9
B8D9  00        BRK                             A:60 X:07 Y:00 P:75 SP:F9
B8DA  00        BRK                             A:60 X:07 Y:00 P:75 SP:F9
B8DB  00        BRK                             A:60 X:07 Y:00 P:75 SP:F9
B8DC  00        BRK                             A:60 X:07 Y:00 P:75 SP:F9
B8DD  00        BRK                             A:60 X:07 Y:00 P:75 SP:F9
B8DE  00        BRK                             A:60 X:07 Y:00 P:75 SP:F9
B8DF  00        BRK                             A:60 X:07 Y:00 P:75 SP:F9
B8E0  00        BRK                             A:60 X:07 Y:00 P:75 SP:F9
B8E1  00        BRK                             A:60 X:07 Y:00 P:75 SP:F9
B8E2  00        BRK                             A:60 X:07 Y:00 P:75 SP:F9
B8E3  00        BRK                             A:60 X:07 Y:00 P:75 SP:F9
B8E4  00        BRK                             A:60 X:07 Y:00 P:75 SP:F9
B8E5  00        BRK                             A:60 X:07 Y:00 P:75 SP:F9
B8E6  00        BRK                             A:60 X:07 Y:00 P:75 SP:F9
B8E7  00        BRK                             A:60 X:07 Y:00 P:75 SP:F9
B8E8  00        BRK                             A:60 X:07 Y:00 P:75 SP:F9
B8E9  00        BRK                             A:60 X:07 Y:00 P:75 SP:F9
B8EA  00        BRK                             A:60 X:07 Y:00 P:75 SP:F9
B8EB  00        BRK                             A:60 X:07 Y:00 P:75 SP:F9
B8EC  00        BRK                             A:60 X:07 Y:00 P:75 SP:F9
B8ED  00        BRK                             A:60 X:07 Y:00 P:75 SP:F9
B8EE  00        BRK                             A:60 X:07 Y:00 P:75 SP:F9
B8EF  00        BRK                             A:60 X:07 Y:00 P:75 SP:F9
B8F0  00        BRK                             A:60 X:07 Y:00 P:75 SP:F9
B8F1  00        BRK                             A:60 X:07 Y:00 P:75 SP:F9
B8F2  00        BRK                             A:60 X:07 Y:00 P:75 SP:F9
B8F3  00        BRK                             A:60 X:07 Y:00 P:75 SP:F9
B8F4  00        BRK                             A:60 X:07 Y:00 P:75 SP:F9
B8F5  00        BRK                             A:60 X:07 Y:00 P:75 SP:F9
B8F6  00        BRK                             A:60 X:07 Y:00 P:75 SP:F9
B8F7  00        BRK                             A:60 X:07 Y:00 P:75 SP:F9
B8F8  00        BRK                             A:60 X:07 Y:00 P:75 SP:F9
B8F9  00        BRK                             A:60 X:07 Y:00 P:75 SP:F9
B8FA  00        BRK                             A:60 X:07 Y:00 P:75 SP:F9
B8FB  00        BRK                             A:60 X:07 Y:00 P:75 SP:F9
B8FC  00        BRK                             A:60 X:07 Y:00 P:75 SP:F9
B8FD  00        BRK                             A:60 X:07 Y:00 P:75 SP:F9
B8FE  00        BRK                             A:60 X:07 Y:00 P:75 SP:F9
B8FF  00        BRK                             A:60 X:07 Y:00 P:75 SP:F9
B900  00        BRK                             A:60 X:07 Y:00 P:75 SP:F9
B901  00        BRK                             A:60 X:07 Y:00 P:75 SP:F9
B902  00        BRK                             A:60 X:07 Y:00 P:75 SP:F9
B903  00        BRK                             A:60 X:07 Y:00 P:75 SP:F9
B904  00        BRK                             A:60 X:07 Y:00 P:75 SP:F9
B905  00        BRK                             A:60 X:07 Y:00 P:75 SP:F9
B906  00        BRK                             A:60 X:07 Y:00 P:75 SP:F9
B907  00        BRK                             A:60 X:07 Y:00 P:75 SP:F9
B908  00        BRK                             A:60 X:07 Y:00 P:75 SP:F9
B909  00        BRK                             A:60 X:07 Y:00 P:75 SP:F9
B90A  00        BRK                             A:60 X:07 Y:00 P:75 SP:F9
B90B  00        BRK                             A:60 X:07 Y:00 P:75 SP:F9
B90C  00        BRK                             A:60 X:07 Y:00 P:75 SP:F9
B90D  00        BRK                             A:60 X:07 Y:00 P:75 SP:F9
B90E  00        BRK                             A:60 X:07 Y:00 P:75 SP:F9
B90F  00        BRK                             A:60 X:07 Y:00 P:75 SP:F9
B910  00        BRK                             A:60 X:07 Y:00 P:75 SP:F9
B911  00        BRK                             A:60 X:07 Y:00 P:75 SP:F9
B912  00        BRK                             A:60 X:07 Y:00 P:75 SP:F9
B913  00        BRK                             A:60 X:07 Y:00 P:75 SP:F9
B914  00        BRK                             A:60 X:07 Y:00 P:75 SP:F9
B915  00        BRK                             A:60 X:07 Y:00 P:75 SP:F9
B916  00        BRK                             A:60 X:07 Y:00 P:75 SP:F9
B917  00        BRK                             A:60 X:07 Y:00 P:75 SP:F9
B918  00        BRK                             A:60 X:07 Y:00 P:75 SP:F9
B919  00        BRK                             A:60 X:07 Y:00 P:75 SP:F9
B91A  00        BRK                             A:60 X:07 Y:00 P:75 SP:F9
B91B  00        BRK                             A:60 X:07 Y:00 P:75 SP:F9
B91C  00        BRK                             A:60 X:07 Y:00 P:75 SP:F9
B91D  00        BRK                             A:60 X:07 Y:00 P:75 SP:F9
B91E  00        BRK                             A:60 X:07 Y:00 P:75 SP:F9
B91F  00        BRK                             A:60 X:07 Y:00 P:75 SP:F9
B920  00        BRK                             A:60 X:07 Y:00 P:75 SP:F9
B921  00        BRK                             A:60 X:07 Y:00 P:75 SP:F9
B922  00        BRK                             A:60 X:07 Y:00 P:75 SP:F9
B923  00        BRK                             A:60 X:07 Y:00 P:75 SP:F9
B924  00        BRK                             A:60 X:07 Y:00 P:75 SP:F9
B925  00        BRK                             A:60 X:07 Y:00 P:75 SP:F9
B926  00        BRK                             A:60 X:07 Y:00 P:75 SP:F9
B927  00        BRK                             A:60 X:07 Y:00 P:75 SP:F9
B928  00        BRK                             A:60 X:07 Y:00 P:75 SP:F9
B929  00        BRK                             A:60 X:07 Y:00 P:75 SP:F9
B92A  00        BRK                             A:60 X:07 Y:00 P:75 SP:F9
B92B  00        BRK                             A:60 X:07 Y:00 P:75 SP:F9
B92C  00        BRK                             A:60 X:07 Y:00 P:75 SP:F9
B92D  00        BRK                             A:60 X:07 Y:00 P:75 SP:F9
B92E  00        BRK                             A:60 X:07 Y:00 P:75 SP:F9
B92F  00        BRK                             A:60 X:07 Y:00 P:75 SP:F9
B930  00        BRK                             A:60 X:07 Y:00 P:75 SP:F9
B931  00        BRK                             A:60 X:07 Y:00 P:75 SP:F9
B932  00        BRK                             A:60 X:07 Y:00 P:75 SP:F9
B933  00        BRK                             A:60 X:07 Y:00 P:75 SP:F9
B934  00        BRK                             A:60 X:07 Y:00 P:75 SP:F9
B935  00        BRK                             A:60 X:07 Y:00 P:75 SP:F9
B936  00        BRK                             A:60 X:07 Y:00 P:75 SP:F9
B937  00        BRK                             A:60 X:07 Y:00 P:75 SP:F9
B938  00        BRK                             A:60 X:07 Y:00 P:75 SP:F9
B939  00        BRK                             A:60 X:07 Y:00 P:75 SP:F9
B93A  00        BRK                             A:60 X:07 Y:00 P:75 SP:F9
B93B  00        BRK                             A:60 X:07 Y:00 P:75 SP:F9
B93C  00        BRK                             A:60 X:07 Y:00 P:75 SP:F9
B93D  00        BRK                             A:60 X:07 Y:00 P:75 SP:F9
B93E  00        BRK                             A:60 X:07 Y:00 P:75 SP:F9
B93F  00        BRK                             A:60 X:07 Y:00 P:75 SP:F9
B940  00        BRK                             A:60 X:07 Y:00 P:75 SP:F9
B941  00        BRK                             A:60 X:07 Y:00 P:75 SP:F9
B942  00        BRK                             A:60 X:07 Y:00 P:75 SP:F9
B943  00        BRK                             A:60 X:07 Y:00 P:75 SP:F9
B944  00        BRK                             A:60 X:07 Y:00 P:75 SP:F9
B945  00        BRK                             A:60 X:07 Y:00 P:75 SP:F9
B946  00        BRK                             A:60 X:07 Y:00 P:75 SP:F9
B947  00        BRK                             A:60 X:07 Y:00 P:75 SP:F9
B948  00        BRK                             A:60 X:07 Y:00 P:75 SP:F9
B949  00        BRK                             A:60 X:07 Y:00 P:75 SP:F9
B94A  00        BRK                             A:60 X:07 Y:00 P:75 SP:F9
B94B  00        BRK                             A:60 X:07 Y:00 P:75 SP:F9
B94C  00        BRK                             A:60 X:07 Y:00 P:75 SP:F9
B94D  00        BRK                             A:60 X:07 Y:00 P:75 SP:F9
B94E  00        BRK                             A:60 X:07 Y:00 P:75 SP:F9
B94F  00        BRK                             A:60 X:07 Y:00 P:75 SP:F9
B950  00        BRK                             A:60 X:07 Y:00 P:75 SP:F9
B951  00        BRK                             A:60 X:07 Y:00 P:75 SP:F9
B952  00        BRK                             A:60 X:07 Y:00 P:75 SP:F9
B953  00        BRK                             A:60 X:07 Y:00 P:75 SP:F9
B954  00        BRK                             A:60 X:07 Y:00 P:75 SP:F9
B955  00        BRK                             A:60 X:07 Y:00 P:75 SP:F9
B956  00        BRK                             A:60 X:07 Y:00 P:75 SP:F9
B957  00        BRK                             A:60 X:07 Y:00 P:75 SP:F9
B958  00        BRK                             A:60 X:07 Y:00 P:75 SP:F9
B959  00        BRK                             A:60 X:07 Y:00 P:75 SP:F9
B95A  00        BRK                             A:60 X:07 Y:00 P:75 SP:F9
B95B  00        BRK                             A:60 X:07 Y:00 P:75 SP:F9
B95C  00        BRK                             A:60 X:07 Y:00 P:75 SP:F9
B95D  00        BRK                             A:60 X:07 Y:00 P:75 SP:F9
B95E  00        BRK                             A:60 X:07 Y:00 P:75 SP:F9
B95F  00        BRK                             A:60 X:07 Y:00 P:75 SP:F9
B960  00        BRK                             A:60 X:07 Y:00 P:75 SP:F9
B961  00        BRK                             A:60 X:07 Y:00 P:75 SP:F9
B962  00        BRK                             A:60 X:07 Y:00 P:75 SP:F9
B963  00        BRK                             A:60 X:07 Y:00 P:75 SP:F9
B964  00        BRK                             A:60 X:07 Y:00 P:75 SP:F9
B965  00        BRK                             A:60 X:07 Y:00 P:75 SP:F9
B966  00        BRK                             A:60 X:07 Y:00 P:75 SP:F9
B967  00        BRK                             A:60 X:07 Y:00 P:75 SP:F9
B968  00        BRK                             A:60 X:07 Y:00 P:75 SP:F9
B969  00        BRK                             A:60 X:07 Y:00 P:75 SP:F9
B96A  00        BRK                             A:60 X:07 Y:00 P:75 SP:F9
B96B  00        BRK                             A:60 X:07 Y:00 P:75 SP:F9
B96C  00        BRK                             A:60 X:07 Y:00 P:75 SP:F9
B96D  00        BRK                             A:60 X:07 Y:00 P:75 SP:F9
B96E  00        BRK                             A:60 X:07 Y:00 P:75 SP:F9
B96F  00        BRK                             A:60 X:07 Y:00 P:75 SP:F9
B970  00        BRK                             A:60 X:07 Y:00 P:75 SP:F9
B971  00        BRK                             A:60 X:07 Y:00 P:75 SP:F9
B972  00        BRK                             A:60 X:07 Y:00 P:75 SP:F9
B973  00        BRK                             A:60 X:07 Y:00 P:75 SP:F9
B974  00        BRK                             A:60 X:07 Y:00 P:75 SP:F9
B975  00        BRK                             A:60 X:07 Y:00 P:75 SP:F9
B976  00        BRK                             A:60 X:07 Y:00 P:75 SP:F9
B977  00        BRK                             A:60 X:07 Y:00 P:75 SP:F9
B978  00        BRK                             A:60 X:07 Y:00 P:75 SP:F9
B979  00        BRK                             A:60 X:07 Y:00 P:75 SP:F9
B97A  00        BRK                             A:60 X:07 Y:00 P:75 SP:F9
B97B  00        BRK                             A:60 X:07 Y:00 P:75 SP:F9
B97C  00        BRK                             A:60 X:07 Y:00 P:75 SP:F9
B97D  00        BRK                             A:60 X:07 Y:00 P:75 SP:F9
B97E  00        BRK                             A:60 X:07 Y:00 P:75 SP:F9
B97F  00        BRK                             A:60 X:07 Y:00 P:75 SP:F9
B980  00        BRK                             A:60 X:07 Y:00 P:75 SP:F9
B981  00        BRK                             A:60 X:07 Y:00 P:75 SP:F9
B982  00        BRK                             A:60 X:07 Y:00 P:75 SP:F9
B983  00        BRK                             A:60 X:07 Y:00 P:75 SP:F9
B984  00        BRK                             A:60 X:07 Y:00 P:75 SP:F9
B985  00        BRK                             A:60 X:07 Y:00 P:75 SP:F9
B986  00        BRK                             A:60 X:07 Y:00 P:75 SP:F9
B987  00        BRK                             A:60 X:07 Y:00 P:75 SP:F9
B988  00        BRK                             A:60 X:07 Y:00 P:75 SP:F9
B989  00        BRK                             A:60 X:07 Y:00 P:75 SP:F9
B98A  00        BRK                             A:60 X:07 Y:00 P:75 SP:F9
B98B  00        BRK                             A:60 X:07 Y:00 P:75 SP:F9
B98C  00        BRK                             A:60 X:07 Y:00 P:75 SP:F9
B98D  00        BRK                             A:60 X:07 Y:00 P:75 SP:F9
B98E  00        BRK                             A:60 X:07 Y:00 P:75 SP:F9
B98F  00        BRK                             A:60 X:07 Y:00 P:75 SP:F9
B990  00        BRK                             A:60 X:07 Y:00 P:75 SP:F9
B991  00        BRK                             A:60 X:07 Y:00 P:75 SP:F9
B992  00        BRK                             A:60 X:07 Y:00 P:75 SP:F9
B993  00        BRK                             A:60 X:07 Y:00 P:75 SP:F9
B994  00        BRK                             A:60 X:07 Y:00 P:75 SP:F9
B995  00        BRK                             A:60 X:07 Y:00 P:75 SP:F9
B996  00        BRK                             A:60 X:07 Y:00 P:75 SP:F9
B997  00        BRK                             A:60 X:07 Y:00 P:75 SP:F9
B998  00        BRK                             A:60 X:07 Y:00 P:75 SP:F9
B999  00        BRK                             A:60 X:07 Y:00 P:75 SP:F9
B99A  00        BRK                             A:60 X:07 Y:00 P:75 SP:F9
B99B  00        BRK                             A:60 X:07 Y:00 P:75 SP:F9
B99C  00        BRK                             A:60 X:07 Y:00 P:75 SP:F9
B99D  00        BRK                             A:60 X:07 Y:00 P:75 SP:F9
B99E  00        BRK                             A:60 X:07 Y:00 P:75 SP:F9
B99F  00        BRK                             A:60 X:07 Y:00 P:75 SP:F9
B9A0  00        BRK                             A:60 X:07 Y:00 P:75 SP:F9
B9A1  00        BRK                             A:60 X:07 Y:00 P:75 SP:F9
B9A2  00        BRK                             A:60 X:07 Y:00 P:75 SP:F9
B9A3  00        BRK                             A:60 X:07 Y:00 P:75 SP:F9
B9A4  00        BRK                             A:60 X:07 Y:00 P:75 SP:F9
B9A5  00        BRK                             A:60 X:07 Y:00 P:75 SP:F9
B9A6  00        BRK                             A:60 X:07 Y:00 P:75 SP:F9
B9A7  00        BRK                             A:60 X:07 Y:00 P:75 SP:F9
B9A8  00        BRK                             A:60 X:07 Y:00 P:75 SP:F9
B9A9  00        BRK                             A:60 X:07 Y:00 P:75 SP:F9
B9AA  00        BRK                             A:60 X:07 Y:00 P:75 SP:F9
B9AB  00        BRK                             A:60 X:07 Y:00 P:75 SP:F9
B9AC  00        BRK                             A:60 X:07 Y:00 P:75 SP:F9
B9AD  00        BRK                             A:60 X:07 Y:00 P:75 SP:F9
B9AE  00        BRK                             A:60 X:07 Y:00 P:75 SP:F9
B9AF  00        BRK                             A:60 X:07 Y:00 P:75 SP:F9
B9B0  00        BRK                             A:60 X:07 Y:00 P:75 SP:F9
B9B1  00        BRK                             A:60 X:07 Y:00 P:75 SP:F9
B9B2  00        BRK                             A:60 X:07 Y:00 P:75 SP:F9
B9B3  00        BRK                             A:60 X:07 Y:00 P:75 SP:F9
B9B4  00        BRK                             A:60 X:07 Y:00 P:75 SP:F9
B9B5  00        BRK                             A:60 X:07 Y:00 P:75 SP:F9
B9B6  00        BRK                             A:60 X:07 Y:00 P:75 SP:F9
B9B7  00        BRK                             A:60 X:07 Y:00 P:75 SP:F9
B9B8  00        BRK                             A:60 X:07 Y:00 P:75 SP:F9
B9B9  00        BRK                             A:60 X:07 Y:00 P:75 SP:F9
B9BA  00        BRK                             A:60 X:07 Y:00 P:75 SP:F9
B9BB  00        BRK                             A:60 X:07 Y:00 P:75 SP:F9
B9BC  00        BRK                             A:60 X:07 Y:00 P:75 SP:F9
B9BD  00        BRK                             A:60 X:07 Y:00 P:75 SP:F9
B9BE  00        BRK                             A:60 X:07 Y:00 P:75 SP:F9
B9BF  00        BRK                             A:60 X:07 Y:00 P:75 SP:F9
B9C0  00        BRK                             A:60 X:07 Y:00 P:75 SP:F9
B9C1  00        BRK                             A:60 X:07 Y:00 P:75 SP:F9
B9C2  00        BRK                             A:60 X:07 Y:00 P:75 SP:F9
B9C3  00        BRK                             A:60 X:07 Y:00 P:75 SP:F9
B9C4  00        BRK                             A:60 X:07 Y:00 P:75 SP:F9
B9C5  00        BRK                             A:60 X:07 Y:00 P:75 SP:F9
B9C6  00        BRK                             A:60 X:07 Y:00 P:75 SP:F9
B9C7  00        BRK                             A:60 X:07 Y:00 P:75 SP:F9
B9C8  00        BRK                             A:60 X:07 Y:00 P:75 SP:F9
B9C9  00        BRK                             A:60 X:07 Y:00 P:75 SP:F9
B9CA  00        BRK                             A:60 X:07 Y:00 P:75 SP:F9
B9CB  00        BRK                             A:60 X:07 Y:00 P:75 SP:F9
B9CC  00        BRK                             A:60 X:07 Y:00 P:75 SP:F9
B9CD  00        BRK                             A:60 X:07 Y:00 P:75 SP:F9
B9CE  00        BRK                             A:60 X:07 Y:00 P:75 SP:F9
B9CF  00        BRK                             A:60 X:07 Y:00 P:75 SP:F9
B9D0  00        BRK                             A:60 X:07 Y:00 P:75 SP:F9
B9D1  00        BRK                             A:60 X:07 Y:00 P:75 SP:F9
B9D2  00        BRK                             A:60 X:07 Y:00 P:75 SP:F9
B9D3  00        BRK                             A:60 X:07 Y:00 P:75 SP:F9
B9D4  00        BRK                             A:60 X:07 Y:00 P:75 SP:F9
B9D5  00        BRK                             A:60 X:07 Y:00 P:75 SP:F9
B9D6  00        BRK                             A:60 X:07 Y:00 P:75 SP:F9
B9D7  00        BRK                             A:60 X:07 Y:00 P:75 SP:F9
B9D8  00        BRK                             A:60 X:07 Y:00 P:75 SP:F9
B9D9  00        BRK                             A:60 X:07 Y:00 P:75 SP:F9
B9DA  00        BRK                             A:60 X:07 Y:00 P:75 SP:F9
B9DB  00        BRK                             A:60 X:07 Y:00 P:75 SP:F9
B9DC  00        BRK                             A:60 X:07 Y:00 P:75 SP:F9
B9DD  00        BRK                             A:60 X:07 Y:00 P:75 SP:F9
B9DE  00        BRK                             A:60 X:07 Y:00 P:75 SP:F9
B9DF  00        BRK                             A:60 X:07 Y:00 P:75 SP:F9
B9E0  00        BRK                             A:60 X:07 Y:00 P:75 SP:F9
B9E1  00        BRK                             A:60 X:07 Y:00 P:75 SP:F9
B9E2  00        BRK                             A:60 X:07 Y:00 P:75 SP:F9
B9E3  00        BRK                             A:60 X:07 Y:00 P:75 SP:F9
B9E4  00        BRK                             A:60 X:07 Y:00 P:75 SP:F9
B9E5  00        BRK                             A:60 X:07 Y:00 P:75 SP:F9
B9E6  00        BRK                             A:60 X:07 Y:00 P:75 SP:F9
B9E7  00        BRK                             A:60 X:07 Y:00 P:75 SP:F9
B9E8  00        BRK                             A:60 X:07 Y:00 P:75 SP:F9
B9E9  00        BRK                             A:60 X:07 Y:00 P:75 SP:F9
B9EA  00        BRK                             A:60 X:07 Y:00 P:75 SP:F9
B9EB  00        BRK                             A:60 X:07 Y:00 P:75 SP:F9
B9EC  00        BRK                             A:60 X:07 Y:00 P:75 SP:F9
B9ED  00        BRK                             A:60 X:07 Y:00 P:75 SP:F9
B9EE  00        BRK                             A:60 X:07 Y:00 P:75 SP:F9
B9EF  00        BRK                             A:60 X:07 Y:00 P:75 SP:F9
B9F0  00        BRK                             A:60 X:07 Y:00 P:75 SP:F9
B9F1  00        BRK                             A:60 X:07 Y:00 P:75 SP:F9
B9F2  00        BRK                             A:60 X:07 Y:00 P:75 SP:F9
B9F3  00        BRK                             A:60 X:07 Y:00 P:75 SP:F9
B9F4  00        BRK                             A:60 X:07 Y:00 P:75 SP:F9
B9F5  00        BRK                             A:60 X:07 Y:00 P:75 SP:F9
B9F6  00        BRK                             A:60 X:07 Y:00 P:75 SP:F9
B9F7  00        BRK                             A:60 X:07 Y:00 P:75 SP:F9
B9F8  00        BRK                             A:60 X:07 Y:00 P:75 SP:F9
B9F9  00        BRK                             A:60 X:07 Y:00 P:75 SP:F9
B9FA  00        BRK                             A:60 X:07 Y:00 P:75 SP:F9
B9FB  00        BRK                             A:60 X:07 Y:00 P:75 SP:F9
B9FC  00        BRK                             A:60 X:07 Y:00 P:75 SP:F9
B9FD  00        BRK                             A:60 X:07 Y:00 P:75 SP:F9
B9FE  00        BRK                             A:60 X:07 Y:00 P:75 SP:F9
B9FF  00        BRK                             A:60 X:07 Y:00 P:75 SP:F9
BA00  00        BRK                             A:60 X:07 Y:00 P:75 SP:F9
BA01  00        BRK                             A:60 X:07 Y:00 P:75 SP:F9
BA02  00        BRK                             A:60 X:07 Y:00 P:75 SP:F9
BA03  00        BRK                             A:60 X:07 Y:00 P:75 SP:F9
BA04  00        BRK                             A:60 X:07 Y:00 P:75 SP:F9
BA05  00        BRK                             A:60 X:07 Y:00 P:75 SP:F9
BA06  00        BRK                             A:60 X:07 Y:00 P:75 SP:F9
BA07  00        BRK                             A:60 X:07 Y:00 P:75 SP:F9
BA08  00        BRK                             A:60 X:07 Y:00 P:75 SP:F9
BA09  00        BRK                             A:60 X:07 Y:00 P:75 SP:F9
BA0A  00        BRK                             A:60 X:07 Y:00 P:75 SP:F9
BA0B  00        BRK                             A:60 X:07 Y:00 P:75 SP:F9
BA0C  00        BRK                             A:60 X:07 Y:00 P:75 SP:F9
BA0D  00        BRK                             A:60 X:07 Y:00 P:75 SP:F9
BA0E  00        BRK                             A:60 X:07 Y:00 P:75 SP:F9
BA0F  00        BRK                             A:60 X:07 Y:00 P:75 SP:F9
BA10  00        BRK                             A:60 X:07 Y:00 P:75 SP:F9
BA11  00        BRK                             A:60 X:07 Y:00 P:75 SP:F9
BA12  00        BRK                             A:60 X:07 Y:00 P:75 SP:F9
BA13  00        BRK                             A:60 X:07 Y:00 P:75 SP:F9
BA14  00        BRK                             A:60 X:07 Y:00 P:75 SP:F9
BA15  00        BRK                             A:60 X:07 Y:00 P:75 SP:F9
BA16  00        BRK                             A:60 X:07 Y:00 P:75 SP:F9
BA17  00        BRK                             A:60 X:07 Y:00 P:75 SP:F9
BA18  00        BRK                             A:60 X:07 Y:00 P:75 SP:F9
BA19  00        BRK                             A:60 X:07 Y:00 P:75 SP:F9
BA1A  00        BRK                             A:60 X:07 Y:00 P:75 SP:F9
BA1B  00        BRK                             A:60 X:07 Y:00 P:75 SP:F9
BA1C  00        BRK                             A:60 X:07 Y:00 P:75 SP:F9
BA1D  00        BRK                             A:60 X:07 Y:00 P:75 SP:F9
BA1E  00        BRK                             A:60 X:07 Y:00 P:75 SP:F9
BA1F  00        BRK                             A:60 X:07 Y:00 P:75 SP:F9
BA20  00        BRK                             A:60 X:07 Y:00 P:75 SP:F9
BA21  00        BRK                             A:60 X:07 Y:00 P:75 SP:F9
BA22  00        BRK                             A:60 X:07 Y:00 P:75 SP:F9
BA23  00        BRK                             A:60 X:07 Y:00 P:75 SP:F9
BA24  00        BRK                             A:60 X:07 Y:00 P:75 SP:F9
BA25  00        BRK                             A:60 X:07 Y:00 P:75 SP:F9
BA26  00        BRK                             A:60 X:07 Y:00 P:75 SP:F9
BA27  00        BRK                             A:60 X:07 Y:00 P:75 SP:F9
BA28  00        BRK                             A:60 X:07 Y:00 P:75 SP:F9
BA29  00        BRK                             A:60 X:07 Y:00 P:75 SP:F9
BA2A  00        BRK                             A:60 X:07 Y:00 P:75 SP:F9
BA2B  00        BRK                             A:60 X:07 Y:00 P:75 SP:F9
BA2C  00        BRK                             A:60 X:07 Y:00 P:75 SP:F9
BA2D  00        BRK                             A:60 X:07 Y:00 P:75 SP:F9
BA2E  00        BRK                             A:60 X:07 Y:00 P:75 SP:F9
BA2F  00        BRK                             A:60 X:07 Y:00 P:75 SP:F9
BA30  00        BRK                             A:60 X:07 Y:00 P:75 SP:F9
BA31  00        BRK                             A:60 X:07 Y:00 P:75 SP:F9
BA32  00        BRK                             A:60 X:07 Y:00 P:75 SP:F9
BA33  00        BRK                             A:60 X:07 Y:00 P:75 SP:F9
BA34  00        BRK                             A:60 X:07 Y:00 P:75 SP:F9
BA35  00        BRK                             A:60 X:07 Y:00 P:75 SP:F9
BA36  00        BRK                             A:60 X:07 Y:00 P:75 SP:F9
BA37  00        BRK                             A:60 X:07 Y:00 P:75 SP:F9
BA38  00        BRK                             A:60 X:07 Y:00 P:75 SP:F9
BA39  00        BRK                             A:60 X:07 Y:00 P:75 SP:F9
BA3A  00        BRK                             A:60 X:07 Y:00 P:75 SP:F9
BA3B  00        BRK                             A:60 X:07 Y:00 P:75 SP:F9
BA3C  00        BRK                             A:60 X:07 Y:00 P:75 SP:F9
BA3D  00        BRK                             A:60 X:07 Y:00 P:75 SP:F9
BA3E  00        BRK                             A:60 X:07 Y:00 P:75 SP:F9
BA3F  00        BRK                             A:60 X:07 Y:00 P:75 SP:F9
BA40  00        BRK                             A:60 X:07 Y:00 P:75 SP:F9
BA41  00        BRK                             A:60 X:07 Y:00 P:75 SP:F9
BA42  00        BRK                             A:60 X:07 Y:00 P:75 SP:F9
BA43  00        BRK                             A:60 X:07 Y:00 P:75 SP:F9
BA44  00        BRK                             A:60 X:07 Y:00 P:75 SP:F9
BA45  00        BRK                             A:60 X:07 Y:00 P:75 SP:F9
BA46  00        BRK                             A:60 X:07 Y:00 P:75 SP:F9
BA47  00        BRK                             A:60 X:07 Y:00 P:75 SP:F9
BA48  00        BRK                             A:60 X:07 Y:00 P:75 SP:F9
BA49  00        BRK                             A:60 X:07 Y:00 P:75 SP:F9
BA4A  00        BRK                             A:60 X:07 Y:00 P:75 SP:F9
BA4B  00        BRK                             A:60 X:07 Y:00 P:75 SP:F9
BA4C  00        BRK                             A:60 X:07 Y:00 P:75 SP:F9
BA4D  00        BRK                             A:60 X:07 Y:00 P:75 SP:F9
BA4E  00        BRK                             A:60 X:07 Y:00 P:75 SP:F9
BA4F  00        BRK                             A:60 X:07 Y:00 P:75 SP:F9
BA50  00        BRK                             A:60 X:07 Y:00 P:75 SP:F9
BA51  00        BRK                             A:60 X:07 Y:00 P:75 SP:F9
BA52  00        BRK                             A:60 X:07 Y:00 P:75 SP:F9
BA53  00        BRK                             A:60 X:07 Y:00 P:75 SP:F9
BA54  00        BRK                             A:60 X:07 Y:00 P:75 SP:F9
BA55  00        BRK                             A:60 X:07 Y:00 P:75 SP:F9
BA56  00        BRK                             A:60 X:07 Y:00 P:75 SP:F9
BA57  00        BRK                             A:60 X:07 Y:00 P:75 SP:F9
BA58  00        BRK                             A:60 X:07 Y:00 P:75 SP:F9
BA59  00        BRK                             A:60 X:07 Y:00 P:75 SP:F9
BA5A  00        BRK                             A:60 X:07 Y:00 P:75 SP:F9
BA5B  00        BRK                             A:60 X:07 Y:00 P:75 SP:F9
BA5C  00        BRK                             A:60 X:07 Y:00 P:75 SP:F9
BA5D  00        BRK                             A:60 X:07 Y:00 P:75 SP:F9
BA5E  00        BRK                             A:60 X:07 Y:00 P:75 SP:F9
BA5F  00        BRK                             A:60 X:07 Y:00 P:75 SP:F9
BA60  00        BRK                             A:60 X:07 Y:00 P:75 SP:F9
BA61  00        BRK                             A:60 X:07 Y:00 P:75 SP:F9
BA62  00        BRK                             A:60 X:07 Y:00 P:75 SP:F9
BA63  00        BRK                             A:60 X:07 Y:00 P:75 SP:F9
BA64  00        BRK                             A:60 X:07 Y:00 P:75 SP:F9
BA65  00        BRK                             A:60 X:07 Y:00 P:75 SP:F9
BA66  00        BRK                             A:60 X:07 Y:00 P:75 SP:F9
BA67  00        BRK                             A:60 X:07 Y:00 P:75 SP:F9
BA68  00        BRK                             A:60 X:07 Y:00 P:75 SP:F9
BA69  00        BRK                             A:60 X:07 Y:00 P:75 SP:F9
BA6A  00        BRK                             A:60 X:07 Y:00 P:75 SP:F9
BA6B  00        BRK                             A:60 X:07 Y:00 P:75 SP:F9
BA6C  00        BRK                             A:60 X:07 Y:00 P:75 SP:F9
BA6D  00        BRK                             A:60 X:07 Y:00 P:75 SP:F9
BA6E  00        BRK                             A:60 X:07 Y:00 P:75 SP:F9
BA6F  00        BRK                             A:60 X:07 Y:00 P:75 SP:F9
BA70  00        BRK                             A:60 X:07 Y:00 P:75 SP:F9
BA71  00        BRK                             A:60 X:07 Y:00 P:75 SP:F9
BA72  00        BRK                             A:60 X:07 Y:00 P:75 SP:F9
BA73  00        BRK                             A:60 X:07 Y:00 P:75 SP:F9
BA74  00        BRK                             A:60 X:07 Y:00 P:75 SP:F9
BA75  00        BRK                             A:60 X:07 Y:00 P:75 SP:F9
BA76  00        BRK                             A:60 X:07 Y:00 P:75 SP:F9
BA77  00        BRK                             A:60 X:07 Y:00 P:75 SP:F9
BA78  00        BRK                             A:60 X:07 Y:00 P:75 SP:F9
BA79  00        BRK                             A:60 X:07 Y:00 P:75 SP:F9
BA7A  00        BRK                             A:60 X:07 Y:00 P:75 SP:F9
BA7B  00        BRK                             A:60 X:07 Y:00 P:75 SP:F9
BA7C  00        BRK                             A:60 X:07 Y:00 P:75 SP:F9
BA7D  00        BRK                             A:60 X:07 Y:00 P:75 SP:F9
BA7E  00        BRK                             A:60 X:07 Y:00 P:75 SP:F9
BA7F  00        BRK                             A:60 X:07 Y:00 P:75 SP:F9
BA80  00        BRK                             A:60 X:07 Y:00 P:75 SP:F9
BA81  00        BRK                             A:60 X:07 Y:00 P:75 SP:F9
BA82  00        BRK                             A:60 X:07 Y:00 P:75 SP:F9
BA83  00        BRK                             A:60 X:07 Y:00 P:75 SP:F9
BA84  00        BRK                             A:60 X:07 Y:00 P:75 SP:F9
BA85  00        BRK                             A:60 X:07 Y:00 P:75 SP:F9
BA86  00        BRK                             A:60 X:07 Y:00 P:75 SP:F9
BA87  00        BRK                             A:60 X:07 Y:00 P:75 SP:F9
BA88  00        BRK                             A:60 X:07 Y:00 P:75 SP:F9
BA89  00        BRK                             A:60 X:07 Y:00 P:75 SP:F9
BA8A  00        BRK                             A:60 X:07 Y:00 P:75 SP:F9
BA8B  00        BRK                             A:60 X:07 Y:00 P:75 SP:F9
BA8C  00        BRK                             A:60 X:07 Y:00 P:75 SP:F9
BA8D  00        BRK                             A:60 X:07 Y:00 P:75 SP:F9
BA8E  00        BRK                             A:60 X:07 Y:00 P:75 SP:F9
BA8F  00        BRK                             A:60 X:07 Y:00 P:75 SP:F9
BA90  00        BRK                             A:60 X:07 Y:00 P:75 SP:F9
BA91  00        BRK                             A:60 X:07 Y:00 P:75 SP:F9
BA92  00        BRK                             A:60 X:07 Y:00 P:75 SP:F9
BA93  00        BRK                             A:60 X:07 Y:00 P:75 SP:F9
BA94  00        BRK                             A:60 X:07 Y:00 P:75 SP:F9
BA95  00        BRK                             A:60 X:07 Y:00 P:75 SP:F9
BA96  00        BRK                             A:60 X:07 Y:00 P:75 SP:F9
BA97  00        BRK                             A:60 X:07 Y:00 P:75 SP:F9
BA98  00        BRK                             A:60 X:07 Y:00 P:75 SP:F9
BA99  00        BRK                             A:60 X:07 Y:00 P:75 SP:F9
BA9A  00        BRK                             A:60 X:07 Y:00 P:75 SP:F9
BA9B  00        BRK                             A:60 X:07 Y:00 P:75 SP:F9
BA9C  00        BRK                             A:60 X:07 Y:00 P:75 SP:F9
BA9D  00        BRK                             A:60 X:07 Y:00 P:75 SP:F9
BA9E  00        BRK                             A:60 X:07 Y:00 P:75 SP:F9
BA9F  00        BRK                             A:60 X:07 Y:00 P:75 SP:F9
BAA0  00        BRK                             A:60 X:07 Y:00 P:75 SP:F9
BAA1  00        BRK                             A:60 X:07 Y:00 P:75 SP:F9
BAA2  00        BRK                             A:60 X:07 Y:00 P:75 SP:F9
BAA3  00        BRK                             A:60 X:07 Y:00 P:75 SP:F9
BAA4  00        BRK                             A:60 X:07 Y:00 P:75 SP:F9
BAA5  00        BRK                             A:60 X:07 Y:00 P:75 SP:F9
BAA6  00        BRK                             A:60 X:07 Y:00 P:75 SP:F9
BAA7  00        BRK                             A:60 X:07 Y:00 P:75 SP:F9
BAA8  00        BRK                             A:60 X:07 Y:00 P:75 SP:F9
BAA9  00        BRK                             A:60 X:07 Y:00 P:75 SP:F9
BAAA  00        BRK                             A:60 X:07 Y:00 P:75 SP:F9
BAAB  00        BRK                             A:60 X:07 Y:00 P:75 SP:F9
BAAC  00        BRK                             A:60 X:07 Y:00 P:75 SP:F9
BAAD  00        BRK                             A:60 X:07 Y:00 P:75 SP:F9
BAAE  00        BRK                             A:60 X:07 Y:00 P:75 SP:F9
BAAF  00        BRK                             A:60 X:07 Y:00 P:75 SP:F9
BAB0  00        BRK                             A:60 X:07 Y:00 P:75 SP:F9
BAB1  00        BRK                             A:60 X:07 Y:00 P:75 SP:F9
BAB2  00        BRK                             A:60 X:07 Y:00 P:75 SP:F9
BAB3  00        BRK                             A:60 X:07 Y:00 P:75 SP:F9
BAB4  00        BRK                             A:60 X:07 Y:00 P:75 SP:F9
BAB5  00        BRK                             A:60 X:07 Y:00 P:75 SP:F9
BAB6  00        BRK                             A:60 X:07 Y:00 P:75 SP:F9
BAB7  00        BRK                             A:60 X:07 Y:00 P:75 SP:F9
BAB8  00        BRK                             A:60 X:07 Y:00 P:75 SP:F9
BAB9  00        BRK                             A:60 X:07 Y:00 P:75 SP:F9
BABA  00        BRK                             A:60 X:07 Y:00 P:75 SP:F9
BABB  00        BRK                             A:60 X:07 Y:00 P:75 SP:F9
BABC  00        BRK                             A:60 X:07 Y:00 P:75 SP:F9
BABD  00        BRK                             A:60 X:07 Y:00 P:75 SP:F9
BABE  00        BRK                             A:60 X:07 Y:00 P:75 SP:F9
BABF  00        BRK                             A:60 X:07 Y:00 P:75 SP:F9
BAC0  00        BRK                             A:60 X:07 Y:00 P:75 SP:F9
BAC1  00        BRK                             A:60 X:07 Y:00 P:75 SP:F9
BAC2  00        BRK                             A:60 X:07 Y:00 P:75 SP:F9
BAC3  00        BRK                             A:60 X:07 Y:00 P:75 SP:F9
BAC4  00        BRK                             A:60 X:07 Y:00 P:75 SP:F9
BAC5  00        BRK                             A:60 X:07 Y:00 P:75 SP:F9
BAC6  00        BRK                             A:60 X:07 Y:00 P:75 SP:F9
BAC7  00        BRK                             A:60 X:07 Y:00 P:75 SP:F9
BAC8  00        BRK                             A:60 X:07 Y:00 P:75 SP:F9
BAC9  00        BRK                             A:60 X:07 Y:00 P:75 SP:F9
BACA  00        BRK                             A:60 X:07 Y:00 P:75 SP:F9
BACB  00        BRK                             A:60 X:07 Y:00 P:75 SP:F9
BACC  00        BRK                             A:60 X:07 Y:00 P:75 SP:F9
BACD  00        BRK                             A:60 X:07 Y:00 P:75 SP:F9
BACE  00        BRK                             A:60 X:07 Y:00 P:75 SP:F9
BACF  00        BRK                             A:60 X:07 Y:00 P:75 SP:F9
BAD0  00        BRK                             A:60 X:07 Y:00 P:75 SP:F9
BAD1  00        BRK                             A:60 X:07 Y:00 P:75 SP:F9
BAD2  00        BRK                             A:60 X:07 Y:00 P:75 SP:F9
BAD3  00        BRK                             A:60 X:07 Y:00 P:75 SP:F9
BAD4  00        BRK                             A:60 X:07 Y:00 P:75 SP:F9
BAD5  00        BRK                             A:60 X:07 Y:00 P:75 SP:F9
BAD6  00        BRK                             A:60 X:07 Y:00 P:75 SP:F9
BAD7  00        BRK                             A:60 X:07 Y:00 P:75 SP:F9
BAD8  00        BRK                             A:60 X:07 Y:00 P:75 SP:F9
BAD9  00        BRK                             A:60 X:07 Y:00 P:75 SP:F9
BADA  00        BRK                             A:60 X:07 Y:00 P:75 SP:F9
BADB  00        BRK                             A:60 X:07 Y:00 P:75 SP:F9
BADC  00        BRK                             A:60 X:07 Y:00 P:75 SP:F9
BADD  00        BRK                             A:60 X:07 Y:00 P:75 SP:F9
BADE  00        BRK                             A:60 X:07 Y:00 P:75 SP:F9
BADF  00        BRK                             A:60 X:07 Y:00 P:75 SP:F9
BAE0  00        BRK                             A:60 X:07 Y:00 P:75 SP:F9
BAE1  00        BRK                             A:60 X:07 Y:00 P:75 SP:F9
BAE2  00        BRK                             A:60 X:07 Y:00 P:75 SP:F9
BAE3  00        BRK                             A:60 X:07 Y:00 P:75 SP:F9
BAE4  00        BRK                             A:60 X:07 Y:00 P:75 SP:F9
BAE5  00        BRK                             A:60 X:07 Y:00 P:75 SP:F9
BAE6  00        BRK                             A:60 X:07 Y:00 P:75 SP:F9
BAE7  00        BRK                             A:60 X:07 Y:00 P:75 SP:F9
BAE8  00        BRK                             A:60 X:07 Y:00 P:75 SP:F9
BAE9  00        BRK                             A:60 X:07 Y:00 P:75 SP:F9
BAEA  00        BRK                             A:60 X:07 Y:00 P:75 SP:F9
BAEB  00        BRK                             A:60 X:07 Y:00 P:75 SP:F9
BAEC  00        BRK                             A:60 X:07 Y:00 P:75 SP:F9
BAED  00        BRK                             A:60 X:07 Y:00 P:75 SP:F9
BAEE  00        BRK                             A:60 X:07 Y:00 P:75 SP:F9
BAEF  00        BRK                             A:60 X:07 Y:00 P:75 SP:F9
BAF0  00        BRK                             A:60 X:07 Y:00 P:75 SP:F9
BAF1  00        BRK                             A:60 X:07 Y:00 P:75 SP:F9
BAF2  00        BRK                             A:60 X:07 Y:00 P:75 SP:F9
BAF3  00        BRK                             A:60 X:07 Y:00 P:75 SP:F9
BAF4  00        BRK                             A:60 X:07 Y:00 P:75 SP:F9
BAF5  00        BRK                             A:60 X:07 Y:00 P:75 SP:F9
BAF6  00        BRK                             A:60 X:07 Y:00 P:75 SP:F9
BAF7  00        BRK                             A:60 X:07 Y:00 P:75 SP:F9
BAF8  00        BRK                             A:60 X:07 Y:00 P:75 SP:F9
BAF9  00        BRK                             A:60 X:07 Y:00 P:75 SP:F9
BAFA  00        BRK                             A:60 X:07 Y:00 P:75 SP:F9
BAFB  00        BRK                             A:60 X:07 Y:00 P:75 SP:F9
BAFC  00        BRK                             A:60 X:07 Y:00 P:75 SP:F9
BAFD  00        BRK                             A:60 X:07 Y:00 P:75 SP:F9
BAFE  00        BRK                             A:60 X:07 Y:00 P:75 SP:F9
BAFF  00        BRK                             A:60 X:07 Y:00 P:75 SP:F9
BB00  00        BRK                             A:60 X:07 Y:00 P:75 SP:F9
BB01  00        BRK                             A:60 X:07 Y:00 P:75 SP:F9
BB02  00        BRK                             A:60 X:07 Y:00 P:75 SP:F9
BB03  00        BRK                             A:60 X:07 Y:00 P:75 SP:F9
BB04  00        BRK                             A:60 X:07 Y:00 P:75 SP:F9
BB05  00        BRK                             A:60 X:07 Y:00 P:75 SP:F9
BB06  00        BRK                             A:60 X:07 Y:00 P:75 SP:F9
BB07  00        BRK                             A:60 X:07 Y:00 P:75 SP:F9
BB08  00        BRK                             A:60 X:07 Y:00 P:75 SP:F9
BB09  00        BRK                             A:60 X:07 Y:00 P:75 SP:F9
BB0A  00        BRK                             A:60 X:07 Y:00 P:75 SP:F9
BB0B  00        BRK                             A:60 X:07 Y:00 P:75 SP:F9
BB0C  00        BRK                             A:60 X:07 Y:00 P:75 SP:F9
BB0D  00        BRK                             A:60 X:07 Y:00 P:75 SP:F9
BB0E  00        BRK                             A:60 X:07 Y:00 P:75 SP:F9
BB0F  00        BRK                             A:60 X:07 Y:00 P:75 SP:F9
BB10  00        BRK                             A:60 X:07 Y:00 P:75 SP:F9
BB11  00        BRK                             A:60 X:07 Y:00 P:75 SP:F9
BB12  00        BRK                             A:60 X:07 Y:00 P:75 SP:F9
BB13  00        BRK                             A:60 X:07 Y:00 P:75 SP:F9
BB14  00        BRK                             A:60 X:07 Y:00 P:75 SP:F9
BB15  00        BRK                             A:60 X:07 Y:00 P:75 SP:F9
BB16  00        BRK                             A:60 X:07 Y:00 P:75 SP:F9
BB17  00        BRK                             A:60 X:07 Y:00 P:75 SP:F9
BB18  00        BRK                             A:60 X:07 Y:00 P:75 SP:F9
BB19  00        BRK                             A:60 X:07 Y:00 P:75 SP:F9
BB1A  00        BRK                             A:60 X:07 Y:00 P:75 SP:F9
BB1B  00        BRK                             A:60 X:07 Y:00 P:75 SP:F9
BB1C  00        BRK                             A:60 X:07 Y:00 P:75 SP:F9
BB1D  00        BRK                             A:60 X:07 Y:00 P:75 SP:F9
BB1E  00        BRK                             A:60 X:07 Y:00 P:75 SP:F9
BB1F  00        BRK                             A:60 X:07 Y:00 P:75 SP:F9
BB20  00        BRK                             A:60 X:07 Y:00 P:75 SP:F9
BB21  00        BRK                             A:60 X:07 Y:00 P:75 SP:F9
BB22  00        BRK                             A:60 X:07 Y:00 P:75 SP:F9
BB23  00        BRK                             A:60 X:07 Y:00 P:75 SP:F9
BB24  00        BRK                             A:60 X:07 Y:00 P:75 SP:F9
BB25  00        BRK                             A:60 X:07 Y:00 P:75 SP:F9
BB26  00        BRK                             A:60 X:07 Y:00 P:75 SP:F9
BB27  00        BRK                             A:60 X:07 Y:00 P:75 SP:F9
BB28  00        BRK                             A:60 X:07 Y:00 P:75 SP:F9
BB29  00        BRK                             A:60 X:07 Y:00 P:75 SP:F9
BB2A  00        BRK                             A:60 X:07 Y:00 P:75 SP:F9
BB2B  00        BRK                             A:60 X:07 Y:00 P:75 SP:F9
BB2C  00        BRK                             A:60 X:07 Y:00 P:75 SP:F9
BB2D  00        BRK                             A:60 X:07 Y:00 P:75 SP:F9
BB2E  00        BRK                             A:60 X:07 Y:00 P:75 SP:F9
BB2F  00        BRK                             A:60 X:07 Y:00 P:75 SP:F9
BB30  00        BRK                             A:60 X:07 Y:00 P:75 SP:F9
BB31  00        BRK                             A:60 X:07 Y:00 P:75 SP:F9
BB32  00        BRK                             A:60 X:07 Y:00 P:75 SP:F9
BB33  00        BRK                             A:60 X:07 Y:00 P:75 SP:F9
BB34  00        BRK                             A:60 X:07 Y:00 P:75 SP:F9
BB35  00        BRK                             A:60 X:07 Y:00 P:75 SP:F9
BB36  00        BRK                             A:60 X:07 Y:00 P:75 SP:F9
BB37  00        BRK                             A:60 X:07 Y:00 P:75 SP:F9
BB38  00        BRK                             A:60 X:07 Y:00 P:75 SP:F9
BB39  00        BRK                             A:60 X:07 Y:00 P:75 SP:F9
BB3A  00        BRK                             A:60 X:07 Y:00 P:75 SP:F9
BB3B  00        BRK                             A:60 X:07 Y:00 P:75 SP:F9
BB3C  00        BRK                             A:60 X:07 Y:00 P:75 SP:F9
BB3D  00        BRK                             A:60 X:07 Y:00 P:75 SP:F9
BB3E  00        BRK                             A:60 X:07 Y:00 P:75 SP:F9
BB3F  00        BRK                             A:60 X:07 Y:00 P:75 SP:F9
BB40  00        BRK                             A:60 X:07 Y:00 P:75 SP:F9
BB41  00        BRK                             A:60 X:07 Y:00 P:75 SP:F9
BB42  00        BRK                             A:60 X:07 Y:00 P:75 SP:F9
BB43  00        BRK                             A:60 X:07 Y:00 P:75 SP:F9
BB44  00        BRK                             A:60 X:07 Y:00 P:75 SP:F9
BB45  00        BRK                             A:60 X:07 Y:00 P:75 SP:F9
BB46  00        BRK                             A:60 X:07 Y:00 P:75 SP:F9
BB47  00        BRK                             A:60 X:07 Y:00 P:75 SP:F9
BB48  00        BRK                             A:60 X:07 Y:00 P:75 SP:F9
BB49  00        BRK                             A:60 X:07 Y:00 P:75 SP:F9
BB4A  00        BRK                             A:60 X:07 Y:00 P:75 SP:F9
BB4B  00        BRK                             A:60 X:07 Y:00 P:75 SP:F9
BB4C  00        BRK                             A:60 X:07 Y:00 P:75 SP:F9
BB4D  00        BRK                             A:60 X:07 Y:00 P:75 SP:F9
BB4E  00        BRK                             A:60 X:07 Y:00 P:75 SP:F9
BB4F  00        BRK                             A:60 X:07 Y:00 P:75 SP:F9
BB50  00        BRK                             A:60 X:07 Y:00 P:75 SP:F9
BB51  00        BRK                             A:60 X:07 Y:00 P:75 SP:F9
BB52  00        BRK                             A:60 X:07 Y:00 P:75 SP:F9
BB53  00        BRK                             A:60 X:07 Y:00 P:75 SP:F9
BB54  00        BRK                             A:60 X:07 Y:00 P:75 SP:F9
BB55  00        BRK                             A:60 X:07 Y:00 P:75 SP:F9
BB56  00        BRK                             A:60 X:07 Y:00 P:75 SP:F9
BB57  00        BRK                             A:60 X:07 Y:00 P:75 SP:F9
BB58  00        BRK                             A:60 X:07 Y:00 P:75 SP:F9
BB59  00        BRK                             A:60 X:07 Y:00 P:75 SP:F9
BB5A  00        BRK                             A:60 X:07 Y:00 P:75 SP:F9
BB5B  00        BRK                             A:60 X:07 Y:00 P:75 SP:F9
BB5C  00        BRK                             A:60 X:07 Y:00 P:75 SP:F9
BB5D  00        BRK                             A:60 X:07 Y:00 P:75 SP:F9
BB5E  00        BRK                             A:60 X:07 Y:00 P:75 SP:F9
BB5F  00        BRK                             A:60 X:07 Y:00 P:75 SP:F9
BB60  00        BRK                             A:60 X:07 Y:00 P:75 SP:F9
BB61  00        BRK                             A:60 X:07 Y:00 P:75 SP:F9
BB62  00        BRK                             A:60 X:07 Y:00 P:75 SP:F9
BB63  00        BRK                             A:60 X:07 Y:00 P:75 SP:F9
BB64  00        BRK                             A:60 X:07 Y:00 P:75 SP:F9
BB65  00        BRK                             A:60 X:07 Y:00 P:75 SP:F9
BB66  00        BRK                             A:60 X:07 Y:00 P:75 SP:F9
BB67  00        BRK                             A:60 X:07 Y:00 P:75 SP:F9
BB68  00        BRK                             A:60 X:07 Y:00 P:75 SP:F9
BB69  00        BRK                             A:60 X:07 Y:00 P:75 SP:F9
BB6A  00        BRK                             A:60 X:07 Y:00 P:75 SP:F9
BB6B  00        BRK                             A:60 X:07 Y:00 P:75 SP:F9
BB6C  00        BRK                             A:60 X:07 Y:00 P:75 SP:F9
BB6D  00        BRK                             A:60 X:07 Y:00 P:75 SP:F9
BB6E  00        BRK                             A:60 X:07 Y:00 P:75 SP:F9
BB6F  00        BRK                             A:60 X:07 Y:00 P:75 SP:F9
BB70  00        BRK                             A:60 X:07 Y:00 P:75 SP:F9
BB71  00        BRK                             A:60 X:07 Y:00 P:75 SP:F9
BB72  00        BRK                             A:60 X:07 Y:00 P:75 SP:F9
BB73  00        BRK                             A:60 X:07 Y:00 P:75 SP:F9
BB74  00        BRK                             A:60 X:07 Y:00 P:75 SP:F9
BB75  00        BRK                             A:60 X:07 Y:00 P:75 SP:F9
BB76  00        BRK                             A:60 X:07 Y:00 P:75 SP:F9
BB77  00        BRK                             A:60 X:07 Y:00 P:75 SP:F9
BB78  00        BRK                             A:60 X:07 Y:00 P:75 SP:F9
BB79  00        BRK                             A:60 X:07 Y:00 P:75 SP:F9
BB7A  00        BRK                             A:60 X:07 Y:00 P:75 SP:F9
BB7B  00        BRK                             A:60 X:07 Y:00 P:75 SP:F9
BB7C  00        BRK                             A:60 X:07 Y:00 P:75 SP:F9
BB7D  00        BRK                             A:60 X:07 Y:00 P:75 SP:F9
BB7E  00        BRK                             A:60 X:07 Y:00 P:75 SP:F9
BB7F  00        BRK                             A:60 X:07 Y:00 P:75 SP:F9
BB80  00        BRK                             A:60 X:07 Y:00 P:75 SP:F9
BB81  00        BRK                             A:60 X:07 Y:00 P:75 SP:F9
BB82  00        BRK                             A:60 X:07 Y:00 P:75 SP:F9
BB83  00        BRK                             A:60 X:07 Y:00 P:75 SP:F9
BB84  00        BRK                             A:60 X:07 Y:00 P:75 SP:F9
BB85  00        BRK                             A:60 X:07 Y:00 P:75 SP:F9
BB86  00        BRK                             A:60 X:07 Y:00 P:75 SP:F9
BB87  00        BRK                             A:60 X:07 Y:00 P:75 SP:F9
BB88  00        BRK                             A:60 X:07 Y:00 P:75 SP:F9
BB89  00        BRK                             A:60 X:07 Y:00 P:75 SP:F9
BB8A  00        BRK                             A:60 X:07 Y:00 P:75 SP:F9
BB8B  00        BRK                             A:60 X:07 Y:00 P:75 SP:F9
BB8C  00        BRK                             A:60 X:07 Y:00 P:75 SP:F9
BB8D  00        BRK                             A:60 X:07 Y:00 P:75 SP:F9
BB8E  00        BRK                             A:60 X:07 Y:00 P:75 SP:F9
BB8F  00        BRK                             A:60 X:07 Y:00 P:75 SP:F9
BB90  00        BRK                             A:60 X:07 Y:00 P:75 SP:F9
BB91  00        BRK                             A:60 X:07 Y:00 P:75 SP:F9
BB92  00        BRK                             A:60 X:07 Y:00 P:75 SP:F9
BB93  00        BRK                             A:60 X:07 Y:00 P:75 SP:F9
BB94  00        BRK                             A:60 X:07 Y:00 P:75 SP:F9
BB95  00        BRK                             A:60 X:07 Y:00 P:75 SP:F9
BB96  00        BRK                             A:60 X:07 Y:00 P:75 SP:F9
BB97  00        BRK                             A:60 X:07 Y:00 P:75 SP:F9
BB98  00        BRK                             A:60 X:07 Y:00 P:75 SP:F9
BB99  00        BRK                             A:60 X:07 Y:00 P:75 SP:F9
BB9A  00        BRK                             A:60 X:07 Y:00 P:75 SP:F9
BB9B  00        BRK                             A:60 X:07 Y:00 P:75 SP:F9
BB9C  00        BRK                             A:60 X:07 Y:00 P:75 SP:F9
BB9D  00        BRK                             A:60 X:07 Y:00 P:75 SP:F9
BB9E  00        BRK                             A:60 X:07 Y:00 P:75 SP:F9
BB9F  00        BRK                             A:60 X:07 Y:00 P:75 SP:F9
BBA0  00        BRK                             A:60 X:07 Y:00 P:75 SP:F9
BBA1  00        BRK                             A:60 X:07 Y:00 P:75 SP:F9
BBA2  00        BRK                             A:60 X:07 Y:00 P:75 SP:F9
BBA3  00        BRK                             A:60 X:07 Y:00 P:75 SP:F9
BBA4  00        BRK                             A:60 X:07 Y:00 P:75 SP:F9
BBA5  00        BRK                             A:60 X:07 Y:00 P:75 SP:F9
BBA6  00        BRK                             A:60 X:07 Y:00 P:75 SP:F9
BBA7  00        BRK                             A:60 X:07 Y:00 P:75 SP:F9
BBA8  00        BRK                             A:60 X:07 Y:00 P:75 SP:F9
BBA9  00        BRK                             A:60 X:07 Y:00 P:75 SP:F9
BBAA  00        BRK                             A:60 X:07 Y:00 P:75 SP:F9
BBAB  00        BRK                             A:60 X:07 Y:00 P:75 SP:F9
BBAC  00        BRK                             A:60 X:07 Y:00 P:75 SP:F9
BBAD  00        BRK                             A:60 X:07 Y:00 P:75 SP:F9
BBAE  00        BRK                             A:60 X:07 Y:00 P:75 SP:F9
BBAF  00        BRK                             A:60 X:07 Y:00 P:75 SP:F9
BBB0  00        BRK                             A:60 X:07 Y:00 P:75 SP:F9
BBB1  00        BRK                             A:60 X:07 Y:00 P:75 SP:F9
BBB2  00        BRK                             A:60 X:07 Y:00 P:75 SP:F9
BBB3  00        BRK                             A:60 X:07 Y:00 P:75 SP:F9
BBB4  00        BRK                             A:60 X:07 Y:00 P:75 SP:F9
BBB5  00        BRK                             A:60 X:07 Y:00 P:75 SP:F9
BBB6  00        BRK                             A:60 X:07 Y:00 P:75 SP:F9
BBB7  00        BRK                             A:60 X:07 Y:00 P:75 SP:F9
BBB8  00        BRK                             A:60 X:07 Y:00 P:75 SP:F9
BBB9  00        BRK                             A:60 X:07 Y:00 P:75 SP:F9
BBBA  00        BRK                             A:60 X:07 Y:00 P:75 SP:F9
BBBB  00        BRK                             A:60 X:07 Y:00 P:75 SP:F9
BBBC  00        BRK                             A:60 X:07 Y:00 P:75 SP:F9
BBBD  00        BRK                             A:60 X:07 Y:00 P:75 SP:F9
BBBE  00        BRK                             A:60 X:07 Y:00 P:75 SP:F9
BBBF  00        BRK                             A:60 X:07 Y:00 P:75 SP:F9
BBC0  00        BRK                             A:60 X:07 Y:00 P:75 SP:F9
BBC1  00        BRK                             A:60 X:07 Y:00 P:75 SP:F9
BBC2  00        BRK                             A:60 X:07 Y:00 P:75 SP:F9
BBC3  00        BRK                             A:60 X:07 Y:00 P:75 SP:F9
BBC4  00        BRK                             A:60 X:07 Y:00 P:75 SP:F9
BBC5  00        BRK                             A:60 X:07 Y:00 P:75 SP:F9
BBC6  00        BRK                             A:60 X:07 Y:00 P:75 SP:F9
BBC7  00        BRK                             A:60 X:07 Y:00 P:75 SP:F9
BBC8  00        BRK                             A:60 X:07 Y:00 P:75 SP:F9
BBC9  00        BRK                             A:60 X:07 Y:00 P:75 SP:F9
BBCA  00        BRK                             A:60 X:07 Y:00 P:75 SP:F9
BBCB  00        BRK                             A:60 X:07 Y:00 P:75 SP:F9
BBCC  00        BRK                             A:60 X:07 Y:00 P:75 SP:F9
BBCD  00        BRK                             A:60 X:07 Y:00 P:75 SP:F9
BBCE  00        BRK                             A:60 X:07 Y:00 P:75 SP:F9
BBCF  00        BRK                             A:60 X:07 Y:00 P:75 SP:F9
BBD0  00        BRK                             A:60 X:07 Y:00 P:75 SP:F9
BBD1  00        BRK                             A:60 X:07 Y:00 P:75 SP:F9
BBD2  00        BRK                             A:60 X:07 Y:00 P:75 SP:F9
BBD3  00        BRK                             A:60 X:07 Y:00 P:75 SP:F9
BBD4  00        BRK                             A:60 X:07 Y:00 P:75 SP:F9
BBD5  00        BRK                             A:60 X:07 Y:00 P:75 SP:F9
BBD6  00        BRK                             A:60 X:07 Y:00 P:75 SP:F9
BBD7  00        BRK                             A:60 X:07 Y:00 P:75 SP:F9
BBD8  00        BRK                             A:60 X:07 Y:00 P:75 SP:F9
BBD9  00        BRK                             A:60 X:07 Y:00 P:75 SP:F9
BBDA  00        BRK                             A:60 X:07 Y:00 P:75 SP:F9
BBDB  00        BRK                             A:60 X:07 Y:00 P:75 SP:F9
BBDC  00        BRK                             A:60 X:07 Y:00 P:75 SP:F9
BBDD  00        BRK                             A:60 X:07 Y:00 P:75 SP:F9
BBDE  00        BRK                             A:60 X:07 Y:00 P:75 SP:F9
BBDF  00        BRK                             A:60 X:07 Y:00 P:75 SP:F9
BBE0  00        BRK                             A:60 X:07 Y:00 P:75 SP:F9
BBE1  00        BRK                             A:60 X:07 Y:00 P:75 SP:F9
BBE2  00        BRK                             A:60 X:07 Y:00 P:75 SP:F9
BBE3  00        BRK                             A:60 X:07 Y:00 P:75 SP:F9
BBE4  00        BRK                             A:60 X:07 Y:00 P:75 SP:F9
BBE5  00        BRK                             A:60 X:07 Y:00 P:75 SP:F9
BBE6  00        BRK                             A:60 X:07 Y:00 P:75 SP:F9
BBE7  00        BRK                             A:60 X:07 Y:00 P:75 SP:F9
BBE8  00        BRK                             A:60 X:07 Y:00 P:75 SP:F9
BBE9  00        BRK                             A:60 X:07 Y:00 P:75 SP:F9
BBEA  00        BRK                             A:60 X:07 Y:00 P:75 SP:F9
BBEB  00        BRK                             A:60 X:07 Y:00 P:75 SP:F9
BBEC  00        BRK                             A:60 X:07 Y:00 P:75 SP:F9
BBED  00        BRK                             A:60 X:07 Y:00 P:75 SP:F9
BBEE  00        BRK                             A:60 X:07 Y:00 P:75 SP:F9
BBEF  00        BRK                             A:60 X:07 Y:00 P:75 SP:F9
BBF0  00        BRK                             A:60 X:07 Y:00 P:75 SP:F9
BBF1  00        BRK                             A:60 X:07 Y:00 P:75 SP:F9
BBF2  00        BRK                             A:60 X:07 Y:00 P:75 SP:F9
BBF3  00        BRK                             A:60 X:07 Y:00 P:75 SP:F9
BBF4  00        BRK                             A:60 X:07 Y:00 P:75 SP:F9
BBF5  00        BRK                             A:60 X:07 Y:00 P:75 SP:F9
BBF6  00        BRK                             A:60 X:07 Y:00 P:75 SP:F9
BBF7  00        BRK                             A:60 X:07 Y:00 P:75 SP:F9
BBF8  00        BRK                             A:60 X:07 Y:00 P:75 SP:F9
BBF9  00        BRK                             A:60 X:07 Y:00 P:75 SP:F9
BBFA  00        BRK                             A:60 X:07 Y:00 P:75 SP:F9
BBFB  00        BRK                             A:60 X:07 Y:00 P:75 SP:F9
BBFC  00        BRK                             A:60 X:07 Y:00 P:75 SP:F9
BBFD  00        BRK                             A:60 X:07 Y:00 P:75 SP:F9
BBFE  00        BRK                             A:60 X:07 Y:00 P:75 SP:F9
BBFF  00        BRK                             A:60 X:07 Y:00 P:75 SP:F9
BC00  00        BRK                             A:60 X:07 Y:00 P:75 SP:F9
BC01  00        BRK                             A:60 X:07 Y:00 P:75 SP:F9
BC02  00        BRK                             A:60 X:07 Y:00 P:75 SP:F9
BC03  00        BRK                             A:60 X:07 Y:00 P:75 SP:F9
BC04  00        BRK                             A:60 X:07 Y:00 P:75 SP:F9
BC05  00        BRK                             A:60 X:07 Y:00 P:75 SP:F9
BC06  00        BRK                             A:60 X:07 Y:00 P:75 SP:F9
BC07  00        BRK                             A:60 X:07 Y:00 P:75 SP:F9
BC08  00        BRK                             A:60 X:07 Y:00 P:75 SP:F9
BC09  00        BRK                             A:60 X:07 Y:00 P:75 SP:F9
BC0A  00        BRK                             A:60 X:07 Y:00 P:75 SP:F9
BC0B  00        BRK                             A:60 X:07 Y:00 P:75 SP:F9
BC0C  00        BRK                             A:60 X:07 Y:00 P:75 SP:F9
BC0D  00        BRK                             A:60 X:07 Y:00 P:75 SP:F9
BC0E  00        BRK                             A:60 X:07 Y:00 P:75 SP:F9
BC0F  00        BRK                             A:60 X:07 Y:00 P:75 SP:F9
BC10  00        BRK                             A:60 X:07 Y:00 P:75 SP:F9
BC11  00        BRK                             A:60 X:07 Y:00 P:75 SP:F9
BC12  00        BRK                             A:60 X:07 Y:00 P:75 SP:F9
BC13  00        BRK                             A:60 X:07 Y:00 P:75 SP:F9
BC14  00        BRK                             A:60 X:07 Y:00 P:75 SP:F9
BC15  00        BRK                             A:60 X:07 Y:00 P:75 SP:F9
BC16  00        BRK                             A:60 X:07 Y:00 P:75 SP:F9
BC17  00        BRK                             A:60 X:07 Y:00 P:75 SP:F9
BC18  00        BRK                             A:60 X:07 Y:00 P:75 SP:F9
BC19  00        BRK                             A:60 X:07 Y:00 P:75 SP:F9
BC1A  00        BRK                             A:60 X:07 Y:00 P:75 SP:F9
BC1B  00        BRK                             A:60 X:07 Y:00 P:75 SP:F9
BC1C  00        BRK                             A:60 X:07 Y:00 P:75 SP:F9
BC1D  00        BRK                             A:60 X:07 Y:00 P:75 SP:F9
BC1E  00        BRK                             A:60 X:07 Y:00 P:75 SP:F9
BC1F  00        BRK                             A:60 X:07 Y:00 P:75 SP:F9
BC20  00        BRK                             A:60 X:07 Y:00 P:75 SP:F9
BC21  00        BRK                             A:60 X:07 Y:00 P:75 SP:F9
BC22  00        BRK                             A:60 X:07 Y:00 P:75 SP:F9
BC23  00        BRK                             A:60 X:07 Y:00 P:75 SP:F9
BC24  00        BRK                             A:60 X:07 Y:00 P:75 SP:F9
BC25  00        BRK                             A:60 X:07 Y:00 P:75 SP:F9
BC26  00        BRK                             A:60 X:07 Y:00 P:75 SP:F9
BC27  00        BRK                             A:60 X:07 Y:00 P:75 SP:F9
BC28  00        BRK                             A:60 X:07 Y:00 P:75 SP:F9
BC29  00        BRK                             A:60 X:07 Y:00 P:75 SP:F9
BC2A  00        BRK                             A:60 X:07 Y:00 P:75 SP:F9
BC2B  00        BRK                             A:60 X:07 Y:00 P:75 SP:F9
BC2C  00        BRK                             A:60 X:07 Y:00 P:75 SP:F9
BC2D  00        BRK                             A:60 X:07 Y:00 P:75 SP:F9
BC2E  00        BRK                             A:60 X:07 Y:00 P:75 SP:F9
BC2F  00        BRK                             A:60 X:07 Y:00 P:75 SP:F9
BC30  00        BRK                             A:60 X:07 Y:00 P:75 SP:F9
BC31  00        BRK                             A:60 X:07 Y:00 P:75 SP:F9
BC32  00        BRK                             A:60 X:07 Y:00 P:75 SP:F9
BC33  00        BRK                             A:60 X:07 Y:00 P:75 SP:F9
BC34  00        BRK                             A:60 X:07 Y:00 P:75 SP:F9
BC35  00        BRK                             A:60 X:07 Y:00 P:75 SP:F9
BC36  00        BRK                             A:60 X:07 Y:00 P:75 SP:F9
BC37  00        BRK                             A:60 X:07 Y:00 P:75 SP:F9
BC38  00        BRK                             A:60 X:07 Y:00 P:75 SP:F9
BC39  00        BRK                             A:60 X:07 Y:00 P:75 SP:F9
BC3A  00        BRK                             A:60 X:07 Y:00 P:75 SP:F9
BC3B  00        BRK                             A:60 X:07 Y:00 P:75 SP:F9
BC3C  00        BRK                             A:60 X:07 Y:00 P:75 SP:F9
BC3D  00        BRK                             A:60 X:07 Y:00 P:75 SP:F9
BC3E  00        BRK                             A:60 X:07 Y:00 P:75 SP:F9
BC3F  00        BRK                             A:60 X:07 Y:00 P:75 SP:F9
BC40  00        BRK                             A:60 X:07 Y:00 P:75 SP:F9
BC41  00        BRK                             A:60 X:07 Y:00 P:75 SP:F9
BC42  00        BRK                             A:60 X:07 Y:00 P:75 SP:F9
BC43  00        BRK                             A:60 X:07 Y:00 P:75 SP:F9
BC44  00        BRK                             A:60 X:07 Y:00 P:75 SP:F9
BC45  00        BRK                             A:60 X:07 Y:00 P:75 SP:F9
BC46  00        BRK                             A:60 X:07 Y:00 P:75 SP:F9
BC47  00        BRK                             A:60 X:07 Y:00 P:75 SP:F9
BC48  00        BRK                             A:60 X:07 Y:00 P:75 SP:F9
BC49  00        BRK                             A:60 X:07 Y:00 P:75 SP:F9
BC4A  00        BRK                             A:60 X:07 Y:00 P:75 SP:F9
BC4B  00        BRK                             A:60 X:07 Y:00 P:75 SP:F9
BC4C  00        BRK                             A:60 X:07 Y:00 P:75 SP:F9
BC4D  00        BRK                             A:60 X:07 Y:00 P:75 SP:F9
BC4E  00        BRK                             A:60 X:07 Y:00 P:75 SP:F9
BC4F  00        BRK                             A:60 X:07 Y:00 P:75 SP:F9
BC50  00        BRK                             A:60 X:07 Y:00 P:75 SP:F9
BC51  00        BRK                             A:60 X:07 Y:00 P:75 SP:F9
BC52  00        BRK                             A:60 X:07 Y:00 P:75 SP:F9
BC53  00        BRK                             A:60 X:07 Y:00 P:75 SP:F9
BC54  00        BRK                             A:60 X:07 Y:00 P:75 SP:F9
BC55  00        BRK                             A:60 X:07 Y:00 P:75 SP:F9
BC56  00        BRK                             A:60 X:07 Y:00 P:75 SP:F9
BC57  00        BRK                             A:60 X:07 Y:00 P:75 SP:F9
BC58  00        BRK                             A:60 X:07 Y:00 P:75 SP:F9
BC59  00        BRK                             A:60 X:07 Y:00 P:75 SP:F9
BC5A  00        BRK                             A:60 X:07 Y:00 P:75 SP:F9
BC5B  00        BRK                             A:60 X:07 Y:00 P:75 SP:F9
BC5C  00        BRK                             A:60 X:07 Y:00 P:75 SP:F9
BC5D  00        BRK                             A:60 X:07 Y:00 P:75 SP:F9
BC5E  00        BRK                             A:60 X:07 Y:00 P:75 SP:F9
BC5F  00        BRK                             A:60 X:07 Y:00 P:75 SP:F9
BC60  00        BRK                             A:60 X:07 Y:00 P:75 SP:F9
BC61  00        BRK                             A:60 X:07 Y:00 P:75 SP:F9
BC62  00        BRK                             A:60 X:07 Y:00 P:75 SP:F9
BC63  00        BRK                             A:60 X:07 Y:00 P:75 SP:F9
BC64  00        BRK                             A:60 X:07 Y:00 P:75 SP:F9
BC65  00        BRK                             A:60 X:07 Y:00 P:75 SP:F9
BC66  00        BRK                             A:60 X:07 Y:00 P:75 SP:F9
BC67  00        BRK                             A:60 X:07 Y:00 P:75 SP:F9
BC68  00        BRK                             A:60 X:07 Y:00 P:75 SP:F9
BC69  00        BRK                             A:60 X:07 Y:00 P:75 SP:F9
BC6A  00        BRK                             A:60 X:07 Y:00 P:75 SP:F9
BC6B  00        BRK                             A:60 X:07 Y:00 P:75 SP:F9
BC6C  00        BRK                             A:60 X:07 Y:00 P:75 SP:F9
BC6D  00        BRK                             A:60 X:07 Y:00 P:75 SP:F9
BC6E  00        BRK                             A:60 X:07 Y:00 P:75 SP:F9
BC6F  00        BRK                             A:60 X:07 Y:00 P:75 SP:F9
BC70  00        BRK                             A:60 X:07 Y:00 P:75 SP:F9
BC71  00        BRK                             A:60 X:07 Y:00 P:75 SP:F9
BC72  00        BRK                             A:60 X:07 Y:00 P:75 SP:F9
BC73  00        BRK                             A:60 X:07 Y:00 P:75 SP:F9
BC74  00        BRK                             A:60 X:07 Y:00 P:75 SP:F9
BC75  00        BRK                             A:60 X:07 Y:00 P:75 SP:F9
BC76  00        BRK                             A:60 X:07 Y:00 P:75 SP:F9
BC77  00        BRK                             A:60 X:07 Y:00 P:75 SP:F9
BC78  00        BRK                             A:60 X:07 Y:00 P:75 SP:F9
BC79  00        BRK                             A:60 X:07 Y:00 P:75 SP:F9
BC7A  00        BRK                             A:60 X:07 Y:00 P:75 SP:F9
BC7B  00        BRK                             A:60 X:07 Y:00 P:75 SP:F9
BC7C  00        BRK                             A:60 X:07 Y:00 P:75 SP:F9
BC7D  00        BRK                             A:60 X:07 Y:00 P:75 SP:F9
BC7E  00        BRK                             A:60 X:07 Y:00 P:75 SP:F9
BC7F  00        BRK                             A:60 X:07 Y:00 P:75 SP:F9
BC80  00        BRK                             A:60 X:07 Y:00 P:75 SP:F9
BC81  00        BRK                             A:60 X:07 Y:00 P:75 SP:F9
BC82  00        BRK                             A:60 X:07 Y:00 P:75 SP:F9
BC83  00        BRK                             A:60 X:07 Y:00 P:75 SP:F9
BC84  00        BRK                             A:60 X:07 Y:00 P:75 SP:F9
BC85  00        BRK                             A:60 X:07 Y:00 P:75 SP:F9
BC86  00        BRK                             A:60 X:07 Y:00 P:75 SP:F9
BC87  00        BRK                             A:60 X:07 Y:00 P:75 SP:F9
BC88  00        BRK                             A:60 X:07 Y:00 P:75 SP:F9
BC89  00        BRK                             A:60 X:07 Y:00 P:75 SP:F9
BC8A  00        BRK                             A:60 X:07 Y:00 P:75 SP:F9
BC8B  00        BRK                             A:60 X:07 Y:00 P:75 SP:F9
BC8C  00        BRK                             A:60 X:07 Y:00 P:75 SP:F9
BC8D  00        BRK                             A:60 X:07 Y:00 P:75 SP:F9
BC8E  00        BRK                             A:60 X:07 Y:00 P:75 SP:F9
BC8F  00        BRK                             A:60 X:07 Y:00 P:75 SP:F9
BC90  00        BRK                             A:60 X:07 Y:00 P:75 SP:F9
BC91  00        BRK                             A:60 X:07 Y:00 P:75 SP:F9
BC92  00        BRK                             A:60 X:07 Y:00 P:75 SP:F9
BC93  00        BRK                             A:60 X:07 Y:00 P:75 SP:F9
BC94  00        BRK                             A:60 X:07 Y:00 P:75 SP:F9
BC95  00        BRK                             A:60 X:07 Y:00 P:75 SP:F9
BC96  00        BRK                             A:60 X:07 Y:00 P:75 SP:F9
BC97  00        BRK                             A:60 X:07 Y:00 P:75 SP:F9
BC98  00        BRK                             A:60 X:07 Y:00 P:75 SP:F9
BC99  00        BRK                             A:60 X:07 Y:00 P:75 SP:F9
BC9A  00        BRK                             A:60 X:07 Y:00 P:75 SP:F9
BC9B  00        BRK                             A:60 X:07 Y:00 P:75 SP:F9
BC9C  00        BRK                             A:60 X:07 Y:00 P:75 SP:F9
BC9D  00        BRK                             A:60 X:07 Y:00 P:75 SP:F9
BC9E  00        BRK                             A:60 X:07 Y:00 P:75 SP:F9
BC9F  00        BRK                             A:60 X:07 Y:00 P:75 SP:F9
BCA0  00        BRK                             A:60 X:07 Y:00 P:75 SP:F9
BCA1  00        BRK                             A:60 X:07 Y:00 P:75 SP:F9
BCA2  00        BRK                             A:60 X:07 Y:00 P:75 SP:F9
BCA3  00        BRK                             A:60 X:07 Y:00 P:75 SP:F9
BCA4  00        BRK                             A:60 X:07 Y:00 P:75 SP:F9
BCA5  00        BRK                             A:60 X:07 Y:00 P:75 SP:F9
BCA6  00        BRK                             A:60 X:07 Y:00 P:75 SP:F9
BCA7  00        BRK                             A:60 X:07 Y:00 P:75 SP:F9
BCA8  00        BRK                             A:60 X:07 Y:00 P:75 SP:F9
BCA9  00        BRK                             A:60 X:07 Y:00 P:75 SP:F9
BCAA  00        BRK                             A:60 X:07 Y:00 P:75 SP:F9
BCAB  00        BRK                             A:60 X:07 Y:00 P:75 SP:F9
BCAC  00        BRK                             A:60 X:07 Y:00 P:75 SP:F9
BCAD  00        BRK                             A:60 X:07 Y:00 P:75 SP:F9
BCAE  00        BRK                             A:60 X:07 Y:00 P:75 SP:F9
BCAF  00        BRK                             A:60 X:07 Y:00 P:75 SP:F9
BCB0  00        BRK                             A:60 X:07 Y:00 P:75 SP:F9
BCB1  00        BRK                             A:60 X:07 Y:00 P:75 SP:F9
BCB2  00        BRK                             A:60 X:07 Y:00 P:75 SP:F9
BCB3  00        BRK                             A:60 X:07 Y:00 P:75 SP:F9
BCB4  00        BRK                             A:60 X:07 Y:00 P:75 SP:F9
BCB5  00        BRK                             A:60 X:07 Y:00 P:75 SP:F9
BCB6  00        BRK                             A:60 X:07 Y:00 P:75 SP:F9
BCB7  00        BRK                             A:60 X:07 Y:00 P:75 SP:F9
BCB8  00        BRK                             A:60 X:07 Y:00 P:75 SP:F9
BCB9  00        BRK                             A:60 X:07 Y:00 P:75 SP:F9
BCBA  00        BRK                             A:60 X:07 Y:00 P:75 SP:F9
BCBB  00        BRK                             A:60 X:07 Y:00 P:75 SP:F9
BCBC  00        BRK                             A:60 X:07 Y:00 P:75 SP:F9
BCBD  00        BRK                             A:60 X:07 Y:00 P:75 SP:F9
BCBE  00        BRK                             A:60 X:07 Y:00 P:75 SP:F9
BCBF  00        BRK                             A:60 X:07 Y:00 P:75 SP:F9
BCC0  00        BRK                             A:60 X:07 Y:00 P:75 SP:F9
BCC1  00        BRK                             A:60 X:07 Y:00 P:75 SP:F9
BCC2  00        BRK                             A:60 X:07 Y:00 P:75 SP:F9
BCC3  00        BRK                             A:60 X:07 Y:00 P:75 SP:F9
BCC4  00        BRK                             A:60 X:07 Y:00 P:75 SP:F9
BCC5  00        BRK                             A:60 X:07 Y:00 P:75 SP:F9
BCC6  00        BRK                             A:60 X:07 Y:00 P:75 SP:F9
BCC7  00        BRK                             A:60 X:07 Y:00 P:75 SP:F9
BCC8  00        BRK                             A:60 X:07 Y:00 P:75 SP:F9
BCC9  00        BRK                             A:60 X:07 Y:00 P:75 SP:F9
BCCA  00        BRK                             A:60 X:07 Y:00 P:75 SP:F9
BCCB  00        BRK                             A:60 X:07 Y:00 P:75 SP:F9
BCCC  00        BRK                             A:60 X:07 Y:00 P:75 SP:F9
BCCD  00        BRK                             A:60 X:07 Y:00 P:75 SP:F9
BCCE  00        BRK                             A:60 X:07 Y:00 P:75 SP:F9
BCCF  00        BRK                             A:60 X:07 Y:00 P:75 SP:F9
BCD0  00        BRK                             A:60 X:07 Y:00 P:75 SP:F9
BCD1  00        BRK                             A:60 X:07 Y:00 P:75 SP:F9
BCD2  00        BRK                             A:60 X:07 Y:00 P:75 SP:F9
BCD3  00        BRK                             A:60 X:07 Y:00 P:75 SP:F9
BCD4  00        BRK                             A:60 X:07 Y:00 P:75 SP:F9
BCD5  00        BRK                             A:60 X:07 Y:00 P:75 SP:F9
BCD6  00        BRK                             A:60 X:07 Y:00 P:75 SP:F9
BCD7  00        BRK                             A:60 X:07 Y:00 P:75 SP:F9
BCD8  00        BRK                             A:60 X:07 Y:00 P:75 SP:F9
BCD9  00        BRK                             A:60 X:07 Y:00 P:75 SP:F9
BCDA  00        BRK                             A:60 X:07 Y:00 P:75 SP:F9
BCDB  00        BRK                             A:60 X:07 Y:00 P:75 SP:F9
BCDC  00        BRK                             A:60 X:07 Y:00 P:75 SP:F9
BCDD  00        BRK                             A:60 X:07 Y:00 P:75 SP:F9
BCDE  00        BRK                             A:60 X:07 Y:00 P:75 SP:F9
BCDF  00        BRK                             A:60 X:07 Y:00 P:75 SP:F9
BCE0  00        BRK                             A:60 X:07 Y:00 P:75 SP:F9
BCE1  00        BRK                             A:60 X:07 Y:00 P:75 SP:F9
BCE2  00        BRK                             A:60 X:07 Y:00 P:75 SP:F9
BCE3  00        BRK                             A:60 X:07 Y:00 P:75 SP:F9
BCE4  00        BRK                             A:60 X:07 Y:00 P:75 SP:F9
BCE5  00        BRK                             A:60 X:07 Y:00 P:75 SP:F9
BCE6  00        BRK                             A:60 X:07 Y:00 P:75 SP:F9
BCE7  00        BRK                             A:60 X:07 Y:00 P:75 SP:F9
BCE8  00        BRK                             A:60 X:07 Y:00 P:75 SP:F9
BCE9  00        BRK                             A:60 X:07 Y:00 P:75 SP:F9
BCEA  00        BRK                             A:60 X:07 Y:00 P:75 SP:F9
BCEB  00        BRK                             A:60 X:07 Y:00 P:75 SP:F9
BCEC  00        BRK                             A:60 X:07 Y:00 P:75 SP:F9
BCED  00        BRK                             A:60 X:07 Y:00 P:75 SP:F9
BCEE  00        BRK                             A:60 X:07 Y:00 P:75 SP:F9
BCEF  00        BRK                             A:60 X:07 Y:00 P:75 SP:F9
BCF0  00        BRK                             A:60 X:07 Y:00 P:75 SP:F9
BCF1  00        BRK                             A:60 X:07 Y:00 P:75 SP:F9
BCF2  00        BRK                             A:60 X:07 Y:00 P:75 SP:F9
BCF3  00        BRK                             A:60 X:07 Y:00 P:75 SP:F9
BCF4  00        BRK                             A:60 X:07 Y:00 P:75 SP:F9
BCF5  00        BRK                             A:60 X:07 Y:00 P:75 SP:F9
BCF6  00        BRK                             A:60 X:07 Y:00 P:75 SP:F9
BCF7  00        BRK                             A:60 X:07 Y:00 P:75 SP:F9
BCF8  00        BRK                             A:60 X:07 Y:00 P:75 SP:F9
BCF9  00        BRK                             A:60 X:07 Y:00 P:75 SP:F9
BCFA  00        BRK                             A:60 X:07 Y:00 P:75 SP:F9
BCFB  00        BRK                             A:60 X:07 Y:00 P:75 SP:F9
BCFC  00        BRK                             A:60 X:07 Y:00 P:75 SP:F9
BCFD  00        BRK                             A:60 X:07 Y:00 P:75 SP:F9
BCFE  00        BRK                             A:60 X:07 Y:00 P:75 SP:F9
BCFF  00        BRK                             A:60 X:07 Y:00 P:75 SP:F9
BD00  00        BRK                             A:60 X:07 Y:00 P:75 SP:F9
BD01  00        BRK                             A:60 X:07 Y:00 P:75 SP:F9
BD02  00        BRK                             A:60 X:07 Y:00 P:75 SP:F9
BD03  00        BRK                             A:60 X:07 Y:00 P:75 SP:F9
BD04  00        BRK                             A:60 X:07 Y:00 P:75 SP:F9
BD05  00        BRK                             A:60 X:07 Y:00 P:75 SP:F9
BD06  00        BRK                             A:60 X:07 Y:00 P:75 SP:F9
BD07  00        BRK                             A:60 X:07 Y:00 P:75 SP:F9
BD08  00        BRK                             A:60 X:07 Y:00 P:75 SP:F9
BD09  00        BRK                             A:60 X:07 Y:00 P:75 SP:F9
BD0A  00        BRK                             A:60 X:07 Y:00 P:75 SP:F9
BD0B  00        BRK                             A:60 X:07 Y:00 P:75 SP:F9
BD0C  00        BRK                             A:60 X:07 Y:00 P:75 SP:F9
BD0D  00        BRK                             A:60 X:07 Y:00 P:75 SP:F9
BD0E  00        BRK                             A:60 X:07 Y:00 P:75 SP:F9
BD0F  00        BRK                             A:60 X:07 Y:00 P:75 SP:F9
BD10  00        BRK                             A:60 X:07 Y:00 P:75 SP:F9
BD11  00        BRK                             A:60 X:07 Y:00 P:75 SP:F9
BD12  00        BRK                             A:60 X:07 Y:00 P:75 SP:F9
BD13  00        BRK                             A:60 X:07 Y:00 P:75 SP:F9
BD14  00        BRK                             A:60 X:07 Y:00 P:75 SP:F9
BD15  00        BRK                             A:60 X:07 Y:00 P:75 SP:F9
BD16  00        BRK                             A:60 X:07 Y:00 P:75 SP:F9
BD17  00        BRK                             A:60 X:07 Y:00 P:75 SP:F9
BD18  00        BRK                             A:60 X:07 Y:00 P:75 SP:F9
BD19  00        BRK                             A:60 X:07 Y:00 P:75 SP:F9
BD1A  00        BRK                             A:60 X:07 Y:00 P:75 SP:F9
BD1B  00        BRK                             A:60 X:07 Y:00 P:75 SP:F9
BD1C  00        BRK                             A:60 X:07 Y:00 P:75 SP:F9
BD1D  00        BRK                             A:60 X:07 Y:00 P:75 SP:F9
BD1E  00        BRK                             A:60 X:07 Y:00 P:75 SP:F9
BD1F  00        BRK                             A:60 X:07 Y:00 P:75 SP:F9
BD20  00        BRK                             A:60 X:07 Y:00 P:75 SP:F9
BD21  00        BRK                             A:60 X:07 Y:00 P:75 SP:F9
BD22  00        BRK                             A:60 X:07 Y:00 P:75 SP:F9
BD23  00        BRK                             A:60 X:07 Y:00 P:75 SP:F9
BD24  00        BRK                             A:60 X:07 Y:00 P:75 SP:F9
BD25  00        BRK                             A:60 X:07 Y:00 P:75 SP:F9
BD26  00        BRK                             A:60 X:07 Y:00 P:75 SP:F9
BD27  00        BRK                             A:60 X:07 Y:00 P:75 SP:F9
BD28  00        BRK                             A:60 X:07 Y:00 P:75 SP:F9
BD29  00        BRK                             A:60 X:07 Y:00 P:75 SP:F9
BD2A  00        BRK                             A:60 X:07 Y:00 P:75 SP:F9
BD2B  00        BRK                             A:60 X:07 Y:00 P:75 SP:F9
BD2C  00        BRK                             A:60 X:07 Y:00 P:75 SP:F9
BD2D  00        BRK                             A:60 X:07 Y:00 P:75 SP:F9
BD2E  00        BRK                             A:60 X:07 Y:00 P:75 SP:F9
BD2F  00        BRK                             A:60 X:07 Y:00 P:75 SP:F9
BD30  00        BRK                             A:60 X:07 Y:00 P:75 SP:F9
BD31  00        BRK                             A:60 X:07 Y:00 P:75 SP:F9
BD32  00        BRK                             A:60 X:07 Y:00 P:75 SP:F9
BD33  00        BRK                             A:60 X:07 Y:00 P:75 SP:F9
BD34  00        BRK                             A:60 X:07 Y:00 P:75 SP:F9
BD35  00        BRK                             A:60 X:07 Y:00 P:75 SP:F9
BD36  00        BRK                             A:60 X:07 Y:00 P:75 SP:F9
BD37  00        BRK                             A:60 X:07 Y:00 P:75 SP:F9
BD38  00        BRK                             A:60 X:07 Y:00 P:75 SP:F9
BD39  00        BRK                             A:60 X:07 Y:00 P:75 SP:F9
BD3A  00        BRK                             A:60 X:07 Y:00 P:75 SP:F9
BD3B  00        BRK                             A:60 X:07 Y:00 P:75 SP:F9
BD3C  00        BRK                             A:60 X:07 Y:00 P:75 SP:F9
BD3D  00        BRK                             A:60 X:07 Y:00 P:75 SP:F9
BD3E  00        BRK                             A:60 X:07 Y:00 P:75 SP:F9
BD3F  00        BRK                             A:60 X:07 Y:00 P:75 SP:F9
BD40  00        BRK                             A:60 X:07 Y:00 P:75 SP:F9
BD41  00        BRK                             A:60 X:07 Y:00 P:75 SP:F9
BD42  00        BRK                             A:60 X:07 Y:00 P:75 SP:F9
BD43  00        BRK                             A:60 X:07 Y:00 P:75 SP:F9
BD44  00        BRK                             A:60 X:07 Y:00 P:75 SP:F9
BD45  00        BRK                             A:60 X:07 Y:00 P:75 SP:F9
BD46  00        BRK                             A:60 X:07 Y:00 P:75 SP:F9
BD47  00        BRK                             A:60 X:07 Y:00 P:75 SP:F9
BD48  00        BRK                             A:60 X:07 Y:00 P:75 SP:F9
BD49  00        BRK                             A:60 X:07 Y:00 P:75 SP:F9
BD4A  00        BRK                             A:60 X:07 Y:00 P:75 SP:F9
BD4B  00        BRK                             A:60 X:07 Y:00 P:75 SP:F9
BD4C  00        BRK                             A:60 X:07 Y:00 P:75 SP:F9
BD4D  00        BRK                             A:60 X:07 Y:00 P:75 SP:F9
BD4E  00        BRK                             A:60 X:07 Y:00 P:75 SP:F9
BD4F  00        BRK                             A:60 X:07 Y:00 P:75 SP:F9
BD50  00        BRK                             A:60 X:07 Y:00 P:75 SP:F9
BD51  00        BRK                             A:60 X:07 Y:00 P:75 SP:F9
BD52  00        BRK                             A:60 X:07 Y:00 P:75 SP:F9
BD53  00        BRK                             A:60 X:07 Y:00 P:75 SP:F9
BD54  00        BRK                             A:60 X:07 Y:00 P:75 SP:F9
BD55  00        BRK                             A:60 X:07 Y:00 P:75 SP:F9
BD56  00        BRK                             A:60 X:07 Y:00 P:75 SP:F9
BD57  00        BRK                             A:60 X:07 Y:00 P:75 SP:F9
BD58  00        BRK                             A:60 X:07 Y:00 P:75 SP:F9
BD59  00        BRK                             A:60 X:07 Y:00 P:75 SP:F9
BD5A  00        BRK                             A:60 X:07 Y:00 P:75 SP:F9
BD5B  00        BRK                             A:60 X:07 Y:00 P:75 SP:F9
BD5C  00        BRK                             A:60 X:07 Y:00 P:75 SP:F9
BD5D  00        BRK                             A:60 X:07 Y:00 P:75 SP:F9
BD5E  00        BRK                             A:60 X:07 Y:00 P:75 SP:F9
BD5F  00        BRK                             A:60 X:07 Y:00 P:75 SP:F9
BD60  00        BRK                             A:60 X:07 Y:00 P:75 SP:F9
BD61  00        BRK                             A:60 X:07 Y:00 P:75 SP:F9
BD62  00        BRK                             A:60 X:07 Y:00 P:75 SP:F9
BD63  00        BRK                             A:60 X:07 Y:00 P:75 SP:F9
BD64  00        BRK                             A:60 X:07 Y:00 P:75 SP:F9
BD65  00        BRK                             A:60 X:07 Y:00 P:75 SP:F9
BD66  00        BRK                             A:60 X:07 Y:00 P:75 SP:F9
BD67  00        BRK                             A:60 X:07 Y:00 P:75 SP:F9
BD68  00        BRK                             A:60 X:07 Y:00 P:75 SP:F9
BD69  00        BRK                             A:60 X:07 Y:00 P:75 SP:F9
BD6A  00        BRK                             A:60 X:07 Y:00 P:75 SP:F9
BD6B  00        BRK                             A:60 X:07 Y:00 P:75 SP:F9
BD6C  00        BRK                             A:60 X:07 Y:00 P:75 SP:F9
BD6D  00        BRK                             A:60 X:07 Y:00 P:75 SP:F9
BD6E  00        BRK                             A:60 X:07 Y:00 P:75 SP:F9
BD6F  00        BRK                             A:60 X:07 Y:00 P:75 SP:F9
BD70  00        BRK                             A:60 X:07 Y:00 P:75 SP:F9
BD71  00        BRK                             A:60 X:07 Y:00 P:75 SP:F9
BD72  00        BRK                             A:60 X:07 Y:00 P:75 SP:F9
BD73  00        BRK                             A:60 X:07 Y:00 P:75 SP:F9
BD74  00        BRK                             A:60 X:07 Y:00 P:75 SP:F9
BD75  00        BRK                             A:60 X:07 Y:00 P:75 SP:F9
BD76  00        BRK                             A:60 X:07 Y:00 P:75 SP:F9
BD77  00        BRK                             A:60 X:07 Y:00 P:75 SP:F9
BD78  00        BRK                             A:60 X:07 Y:00 P:75 SP:F9
BD79  00        BRK                             A:60 X:07 Y:00 P:75 SP:F9
BD7A  00        BRK                             A:60 X:07 Y:00 P:75 SP:F9
BD7B  00        BRK                             A:60 X:07 Y:00 P:75 SP:F9
BD7C  00        BRK                             A:60 X:07 Y:00 P:75 SP:F9
BD7D  00        BRK                             A:60 X:07 Y:00 P:75 SP:F9
BD7E  00        BRK                             A:60 X:07 Y:00 P:75 SP:F9
BD7F  00        BRK                             A:60 X:07 Y:00 P:75 SP:F9
BD80  00        BRK                             A:60 X:07 Y:00 P:75 SP:F9
BD81  00        BRK                             A:60 X:07 Y:00 P:75 SP:F9
BD82  00        BRK                             A:60 X:07 Y:00 P:75 SP:F9
BD83  00        BRK                             A:60 X:07 Y:00 P:75 SP:F9
BD84  00        BRK                             A:60 X:07 Y:00 P:75 SP:F9
BD85  00        BRK                             A:60 X:07 Y:00 P:75 SP:F9
BD86  00        BRK                             A:60 X:07 Y:00 P:75 SP:F9
BD87  00        BRK                             A:60 X:07 Y:00 P:75 SP:F9
BD88  00        BRK                             A:60 X:07 Y:00 P:75 SP:F9
BD89  00        BRK                             A:60 X:07 Y:00 P:75 SP:F9
BD8A  00        BRK                             A:60 X:07 Y:00 P:75 SP:F9
BD8B  00        BRK                             A:60 X:07 Y:00 P:75 SP:F9
BD8C  00        BRK                             A:60 X:07 Y:00 P:75 SP:F9
BD8D  00        BRK                             A:60 X:07 Y:00 P:75 SP:F9
BD8E  00        BRK                             A:60 X:07 Y:00 P:75 SP:F9
BD8F  00        BRK                             A:60 X:07 Y:00 P:75 SP:F9
BD90  00        BRK                             A:60 X:07 Y:00 P:75 SP:F9
BD91  00        BRK                             A:60 X:07 Y:00 P:75 SP:F9
BD92  00        BRK                             A:60 X:07 Y:00 P:75 SP:F9
BD93  00        BRK                             A:60 X:07 Y:00 P:75 SP:F9
BD94  00        BRK                             A:60 X:07 Y:00 P:75 SP:F9
BD95  00        BRK                             A:60 X:07 Y:00 P:75 SP:F9
BD96  00        BRK                             A:60 X:07 Y:00 P:75 SP:F9
BD97  00        BRK                             A:60 X:07 Y:00 P:75 SP:F9
BD98  00        BRK                             A:60 X:07 Y:00 P:75 SP:F9
BD99  00        BRK                             A:60 X:07 Y:00 P:75 SP:F9
BD9A  00        BRK                             A:60 X:07 Y:00 P:75 SP:F9
BD9B  00        BRK                             A:60 X:07 Y:00 P:75 SP:F9
BD9C  00        BRK                             A:60 X:07 Y:00 P:75 SP:F9
BD9D  00        BRK                             A:60 X:07 Y:00 P:75 SP:F9
BD9E  00        BRK                             A:60 X:07 Y:00 P:75 SP:F9
BD9F  00        BRK                             A:60 X:07 Y:00 P:75 SP:F9
BDA0  00        BRK                             A:60 X:07 Y:00 P:75 SP:F9
BDA1  00        BRK                             A:60 X:07 Y:00 P:75 SP:F9
BDA2  00        BRK                             A:60 X:07 Y:00 P:75 SP:F9
BDA3  00        BRK                             A:60 X:07 Y:00 P:75 SP:F9
BDA4  00        BRK                             A:60 X:07 Y:00 P:75 SP:F9
BDA5  00        BRK                             A:60 X:07 Y:00 P:75 SP:F9
BDA6  00        BRK                             A:60 X:07 Y:00 P:75 SP:F9
BDA7  00        BRK                             A:60 X:07 Y:00 P:75 SP:F9
BDA8  00        BRK                             A:60 X:07 Y:00 P:75 SP:F9
BDA9  00        BRK                             A:60 X:07 Y:00 P:75 SP:F9
BDAA  00        BRK                             A:60 X:07 Y:00 P:75 SP:F9
BDAB  00        BRK                             A:60 X:07 Y:00 P:75 SP:F9
BDAC  00        BRK                             A:60 X:07 Y:00 P:75 SP:F9
BDAD  00        BRK                             A:60 X:07 Y:00 P:75 SP:F9
BDAE  00        BRK                             A:60 X:07 Y:00 P:75 SP:F9
BDAF  00        BRK                             A:60 X:07 Y:00 P:75 SP:F9
BDB0  00        BRK                             A:60 X:07 Y:00 P:75 SP:F9
BDB1  00        BRK                             A:60 X:07 Y:00 P:75 SP:F9
BDB2  00        BRK                             A:60 X:07 Y:00 P:75 SP:F9
BDB3  00        BRK                             A:60 X:07 Y:00 P:75 SP:F9
BDB4  00        BRK                             A:60 X:07 Y:00 P:75 SP:F9
BDB5  00        BRK                             A:60 X:07 Y:00 P:75 SP:F9
BDB6  00        BRK                             A:60 X:07 Y:00 P:75 SP:F9
BDB7  00        BRK                             A:60 X:07 Y:00 P:75 SP:F9
BDB8  00        BRK                             A:60 X:07 Y:00 P:75 SP:F9
BDB9  00        BRK                             A:60 X:07 Y:00 P:75 SP:F9
BDBA  00        BRK                             A:60 X:07 Y:00 P:75 SP:F9
BDBB  00        BRK                             A:60 X:07 Y:00 P:75 SP:F9
BDBC  00        BRK                             A:60 X:07 Y:00 P:75 SP:F9
BDBD  00        BRK                             A:60 X:07 Y:00 P:75 SP:F9
BDBE  00        BRK                             A:60 X:07 Y:00 P:75 SP:F9
BDBF  00        BRK                             A:60 X:07 Y:00 P:75 SP:F9
BDC0  00        BRK                             A:60 X:07 Y:00 P:75 SP:F9
BDC1  00        BRK                             A:60 X:07 Y:00 P:75 SP:F9
BDC2  00        BRK                             A:60 X:07 Y:00 P:75 SP:F9
BDC3  00        BRK                             A:60 X:07 Y:00 P:75 SP:F9
BDC4  00        BRK                             A:60 X:07 Y:00 P:75 SP:F9
BDC5  00        BRK                             A:60 X:07 Y:00 P:75 SP:F9
BDC6  00        BRK                             A:60 X:07 Y:00 P:75 SP:F9
BDC7  00        BRK                             A:60 X:07 Y:00 P:75 SP:F9
BDC8  00        BRK                             A:60 X:07 Y:00 P:75 SP:F9
BDC9  00        BRK                             A:60 X:07 Y:00 P:75 SP:F9
BDCA  00        BRK                             A:60 X:07 Y:00 P:75 SP:F9
BDCB  00        BRK                             A:60 X:07 Y:00 P:75 SP:F9
BDCC  00        BRK                             A:60 X:07 Y:00 P:75 SP:F9
BDCD  00        BRK                             A:60 X:07 Y:00 P:75 SP:F9
BDCE  00        BRK                             A:60 X:07 Y:00 P:75 SP:F9
BDCF  00        BRK                             A:60 X:07 Y:00 P:75 SP:F9
BDD0  00        BRK                             A:60 X:07 Y:00 P:75 SP:F9
BDD1  00        BRK                             A:60 X:07 Y:00 P:75 SP:F9
BDD2  00        BRK                             A:60 X:07 Y:00 P:75 SP:F9
BDD3  00        BRK                             A:60 X:07 Y:00 P:75 SP:F9
BDD4  00        BRK                             A:60 X:07 Y:00 P:75 SP:F9
BDD5  00        BRK                             A:60 X:07 Y:00 P:75 SP:F9
BDD6  00        BRK                             A:60 X:07 Y:00 P:75 SP:F9
BDD7  00        BRK                             A:60 X:07 Y:00 P:75 SP:F9
BDD8  00        BRK                             A:60 X:07 Y:00 P:75 SP:F9
BDD9  00        BRK                             A:60 X:07 Y:00 P:75 SP:F9
BDDA  00        BRK                             A:60 X:07 Y:00 P:75 SP:F9
BDDB  00        BRK                             A:60 X:07 Y:00 P:75 SP:F9
BDDC  00        BRK                             A:60 X:07 Y:00 P:75 SP:F9
BDDD  00        BRK                             A:60 X:07 Y:00 P:75 SP:F9
BDDE  00        BRK                             A:60 X:07 Y:00 P:75 SP:F9
BDDF  00        BRK                             A:60 X:07 Y:00 P:75 SP:F9
BDE0  00        BRK                             A:60 X:07 Y:00 P:75 SP:F9
BDE1  00        BRK                             A:60 X:07 Y:00 P:75 SP:F9
BDE2  00        BRK                             A:60 X:07 Y:00 P:75 SP:F9
BDE3  00        BRK                             A:60 X:07 Y:00 P:75 SP:F9
BDE4  00        BRK                             A:60 X:07 Y:00 P:75 SP:F9
BDE5  00        BRK                             A:60 X:07 Y:00 P:75 SP:F9
BDE6  00        BRK                             A:60 X:07 Y:00 P:75 SP:F9
BDE7  00        BRK                             A:60 X:07 Y:00 P:75 SP:F9
BDE8  00        BRK                             A:60 X:07 Y:00 P:75 SP:F9
BDE9  00        BRK                             A:60 X:07 Y:00 P:75 SP:F9
BDEA  00        BRK                             A:60 X:07 Y:00 P:75 SP:F9
BDEB  00        BRK                             A:60 X:07 Y:00 P:75 SP:F9
BDEC  00        BRK                             A:60 X:07 Y:00 P:75 SP:F9
BDED  00        BRK                             A:60 X:07 Y:00 P:75 SP:F9
BDEE  00        BRK                             A:60 X:07 Y:00 P:75 SP:F9
BDEF  00        BRK                             A:60 X:07 Y:00 P:75 SP:F9
BDF0  00        BRK                             A:60 X:07 Y:00 P:75 SP:F9
BDF1  00        BRK                             A:60 X:07 Y:00 P:75 SP:F9
BDF2  00        BRK                             A:60 X:07 Y:00 P:75 SP:F9
BDF3  00        BRK                             A:60 X:07 Y:00 P:75 SP:F9
BDF4  00        BRK                             A:60 X:07 Y:00 P:75 SP:F9
BDF5  00        BRK                             A:60 X:07 Y:00 P:75 SP:F9
BDF6  00        BRK                             A:60 X:07 Y:00 P:75 SP:F9
BDF7  00        BRK                             A:60 X:07 Y:00 P:75 SP:F9
BDF8  00        BRK                             A:60 X:07 Y:00 P:75 SP:F9
BDF9  00        BRK                             A:60 X:07 Y:00 P:75 SP:F9
BDFA  00        BRK                             A:60 X:07 Y:00 P:75 SP:F9
BDFB  00        BRK                             A:60 X:07 Y:00 P:75 SP:F9
BDFC  00        BRK                             A:60 X:07 Y:00 P:75 SP:F9
BDFD  00        BRK                             A:60 X:07 Y:00 P:75 SP:F9
BDFE  00        BRK                             A:60 X:07 Y:00 P:75 SP:F9
BDFF  00        BRK                             A:60 X:07 Y:00 P:75 SP:F9
BE00  00        BRK                             A:60 X:07 Y:00 P:75 SP:F9
BE01  00        BRK                             A:60 X:07 Y:00 P:75 SP:F9
BE02  00        BRK                             A:60 X:07 Y:00 P:75 SP:F9
BE03  00        BRK                             A:60 X:07 Y:00 P:75 SP:F9
BE04  00        BRK                             A:60 X:07 Y:00 P:75 SP:F9
BE05  00        BRK                             A:60 X:07 Y:00 P:75 SP:F9
BE06  00        BRK                             A:60 X:07 Y:00 P:75 SP:F9
BE07  00        BRK                             A:60 X:07 Y:00 P:75 SP:F9
BE08  00        BRK                             A:60 X:07 Y:00 P:75 SP:F9
BE09  00        BRK                             A:60 X:07 Y:00 P:75 SP:F9
BE0A  00        BRK                             A:60 X:07 Y:00 P:75 SP:F9
BE0B  00        BRK                             A:60 X:07 Y:00 P:75 SP:F9
BE0C  00        BRK                             A:60 X:07 Y:00 P:75 SP:F9
BE0D  00        BRK                             A:60 X:07 Y:00 P:75 SP:F9
BE0E  00        BRK                             A:60 X:07 Y:00 P:75 SP:F9
BE0F  00        BRK                             A:60 X:07 Y:00 P:75 SP:F9
BE10  00        BRK                             A:60 X:07 Y:00 P:75 SP:F9
BE11  00        BRK                             A:60 X:07 Y:00 P:75 SP:F9
BE12  00        BRK                             A:60 X:07 Y:00 P:75 SP:F9
BE13  00        BRK                             A:60 X:07 Y:00 P:75 SP:F9
BE14  00        BRK                             A:60 X:07 Y:00 P:75 SP:F9
BE15  00        BRK                             A:60 X:07 Y:00 P:75 SP:F9
BE16  00        BRK                             A:60 X:07 Y:00 P:75 SP:F9
BE17  00        BRK                             A:60 X:07 Y:00 P:75 SP:F9
BE18  00        BRK                             A:60 X:07 Y:00 P:75 SP:F9
BE19  00        BRK                             A:60 X:07 Y:00 P:75 SP:F9
BE1A  00        BRK                             A:60 X:07 Y:00 P:75 SP:F9
BE1B  00        BRK                             A:60 X:07 Y:00 P:75 SP:F9
BE1C  00        BRK                             A:60 X:07 Y:00 P:75 SP:F9
BE1D  00        BRK                             A:60 X:07 Y:00 P:75 SP:F9
BE1E  00        BRK                             A:60 X:07 Y:00 P:75 SP:F9
BE1F  00        BRK                             A:60 X:07 Y:00 P:75 SP:F9
BE20  00        BRK                             A:60 X:07 Y:00 P:75 SP:F9
BE21  00        BRK                             A:60 X:07 Y:00 P:75 SP:F9
BE22  00        BRK                             A:60 X:07 Y:00 P:75 SP:F9
BE23  00        BRK                             A:60 X:07 Y:00 P:75 SP:F9
BE24  00        BRK                             A:60 X:07 Y:00 P:75 SP:F9
BE25  00        BRK                             A:60 X:07 Y:00 P:75 SP:F9
BE26  00        BRK                             A:60 X:07 Y:00 P:75 SP:F9
BE27  00        BRK                             A:60 X:07 Y:00 P:75 SP:F9
BE28  00        BRK                             A:60 X:07 Y:00 P:75 SP:F9
BE29  00        BRK                             A:60 X:07 Y:00 P:75 SP:F9
BE2A  00        BRK                             A:60 X:07 Y:00 P:75 SP:F9
BE2B  00        BRK                             A:60 X:07 Y:00 P:75 SP:F9
BE2C  00        BRK                             A:60 X:07 Y:00 P:75 SP:F9
BE2D  00        BRK                             A:60 X:07 Y:00 P:75 SP:F9
BE2E  00        BRK                             A:60 X:07 Y:00 P:75 SP:F9
BE2F  00        BRK                             A:60 X:07 Y:00 P:75 SP:F9
BE30  00        BRK                             A:60 X:07 Y:00 P:75 SP:F9
BE31  00        BRK                             A:60 X:07 Y:00 P:75 SP:F9
BE32  00        BRK                             A:60 X:07 Y:00 P:75 SP:F9
BE33  00        BRK                             A:60 X:07 Y:00 P:75 SP:F9
BE34  00        BRK                             A:60 X:07 Y:00 P:75 SP:F9
BE35  00        BRK                             A:60 X:07 Y:00 P:75 SP:F9
BE36  00        BRK                             A:60 X:07 Y:00 P:75 SP:F9
BE37  00        BRK                             A:60 X:07 Y:00 P:75 SP:F9
BE38  00        BRK                             A:60 X:07 Y:00 P:75 SP:F9
BE39  00        BRK                             A:60 X:07 Y:00 P:75 SP:F9
BE3A  00        BRK                             A:60 X:07 Y:00 P:75 SP:F9
BE3B  00        BRK                             A:60 X:07 Y:00 P:75 SP:F9
BE3C  00        BRK                             A:60 X:07 Y:00 P:75 SP:F9
BE3D  00        BRK                             A:60 X:07 Y:00 P:75 SP:F9
BE3E  00        BRK                             A:60 X:07 Y:00 P:75 SP:F9
BE3F  00        BRK                             A:60 X:07 Y:00 P:75 SP:F9
BE40  00        BRK                             A:60 X:07 Y:00 P:75 SP:F9
BE41  00        BRK                             A:60 X:07 Y:00 P:75 SP:F9
BE42  00        BRK                             A:60 X:07 Y:00 P:75 SP:F9
BE43  00        BRK                             A:60 X:07 Y:00 P:75 SP:F9
BE44  00        BRK                             A:60 X:07 Y:00 P:75 SP:F9
BE45  00        BRK                             A:60 X:07 Y:00 P:75 SP:F9
BE46  00        BRK                             A:60 X:07 Y:00 P:75 SP:F9
BE47  00        BRK                             A:60 X:07 Y:00 P:75 SP:F9
BE48  00        BRK                             A:60 X:07 Y:00 P:75 SP:F9
BE49  00        BRK                             A:60 X:07 Y:00 P:75 SP:F9
BE4A  00        BRK                             A:60 X:07 Y:00 P:75 SP:F9
BE4B  00        BRK                             A:60 X:07 Y:00 P:75 SP:F9
BE4C  00        BRK                             A:60 X:07 Y:00 P:75 SP:F9
BE4D  00        BRK                             A:60 X:07 Y:00 P:75 SP:F9
BE4E  00        BRK                             A:60 X:07 Y:00 P:75 SP:F9
BE4F  00        BRK                             A:60 X:07 Y:00 P:75 SP:F9
BE50  00        BRK                             A:60 X:07 Y:00 P:75 SP:F9
BE51  00        BRK                             A:60 X:07 Y:00 P:75 SP:F9
BE52  00        BRK                             A:60 X:07 Y:00 P:75 SP:F9
BE53  00        BRK                             A:60 X:07 Y:00 P:75 SP:F9
BE54  00        BRK                             A:60 X:07 Y:00 P:75 SP:F9
BE55  00        BRK                             A:60 X:07 Y:00 P:75 SP:F9
BE56  00        BRK                             A:60 X:07 Y:00 P:75 SP:F9
BE57  00        BRK                             A:60 X:07 Y:00 P:75 SP:F9
BE58  00        BRK                             A:60 X:07 Y:00 P:75 SP:F9
BE59  00        BRK                             A:60 X:07 Y:00 P:75 SP:F9
BE5A  00        BRK                             A:60 X:07 Y:00 P:75 SP:F9
BE5B  00        BRK                             A:60 X:07 Y:00 P:75 SP:F9
BE5C  00        BRK                             A:60 X:07 Y:00 P:75 SP:F9
BE5D  00        BRK                             A:60 X:07 Y:00 P:75 SP:F9
BE5E  00        BRK                             A:60 X:07 Y:00 P:75 SP:F9
BE5F  00        BRK                             A:60 X:07 Y:00 P:75 SP:F9
BE60  00        BRK                             A:60 X:07 Y:00 P:75 SP:F9
BE61  00        BRK                             A:60 X:07 Y:00 P:75 SP:F9
BE62  00        BRK                             A:60 X:07 Y:00 P:75 SP:F9
BE63  00        BRK                             A:60 X:07 Y:00 P:75 SP:F9
BE64  00        BRK                             A:60 X:07 Y:00 P:75 SP:F9
BE65  00        BRK                             A:60 X:07 Y:00 P:75 SP:F9
BE66  00        BRK                             A:60 X:07 Y:00 P:75 SP:F9
BE67  00        BRK                             A:60 X:07 Y:00 P:75 SP:F9
BE68  00        BRK                             A:60 X:07 Y:00 P:75 SP:F9
BE69  00        BRK                             A:60 X:07 Y:00 P:75 SP:F9
BE6A  00        BRK                             A:60 X:07 Y:00 P:75 SP:F9
BE6B  00        BRK                             A:60 X:07 Y:00 P:75 SP:F9
BE6C  00        BRK                             A:60 X:07 Y:00 P:75 SP:F9
BE6D  00        BRK                             A:60 X:07 Y:00 P:75 SP:F9
BE6E  00        BRK                             A:60 X:07 Y:00 P:75 SP:F9
BE6F  00        BRK                             A:60 X:07 Y:00 P:75 SP:F9
BE70  00        BRK                             A:60 X:07 Y:00 P:75 SP:F9
BE71  00        BRK                             A:60 X:07 Y:00 P:75 SP:F9
BE72  00        BRK                             A:60 X:07 Y:00 P:75 SP:F9
BE73  00        BRK                             A:60 X:07 Y:00 P:75 SP:F9
BE74  00        BRK                             A:60 X:07 Y:00 P:75 SP:F9
BE75  00        BRK                             A:60 X:07 Y:00 P:75 SP:F9
BE76  00        BRK                             A:60 X:07 Y:00 P:75 SP:F9
BE77  00        BRK                             A:60 X:07 Y:00 P:75 SP:F9
BE78  00        BRK                             A:60 X:07 Y:00 P:75 SP:F9
BE79  00        BRK                             A:60 X:07 Y:00 P:75 SP:F9
BE7A  00        BRK                             A:60 X:07 Y:00 P:75 SP:F9
BE7B  00        BRK                             A:60 X:07 Y:00 P:75 SP:F9
BE7C  00        BRK                             A:60 X:07 Y:00 P:75 SP:F9
BE7D  00        BRK                             A:60 X:07 Y:00 P:75 SP:F9
BE7E  00        BRK                             A:60 X:07 Y:00 P:75 SP:F9
BE7F  00        BRK                             A:60 X:07 Y:00 P:75 SP:F9
BE80  00        BRK                             A:60 X:07 Y:00 P:75 SP:F9
BE81  00        BRK                             A:60 X:07 Y:00 P:75 SP:F9
BE82  00        BRK                             A:60 X:07 Y:00 P:75 SP:F9
BE83  00        BRK                             A:60 X:07 Y:00 P:75 SP:F9
BE84  00        BRK                             A:60 X:07 Y:00 P:75 SP:F9
BE85  00        BRK                             A:60 X:07 Y:00 P:75 SP:F9
BE86  00        BRK                             A:60 X:07 Y:00 P:75 SP:F9
BE87  00        BRK                             A:60 X:07 Y:00 P:75 SP:F9
BE88  00        BRK                             A:60 X:07 Y:00 P:75 SP:F9
BE89  00        BRK                             A:60 X:07 Y:00 P:75 SP:F9
BE8A  00        BRK                             A:60 X:07 Y:00 P:75 SP:F9
BE8B  00        BRK                             A:60 X:07 Y:00 P:75 SP:F9
BE8C  00        BRK                             A:60 X:07 Y:00 P:75 SP:F9
BE8D  00        BRK                             A:60 X:07 Y:00 P:75 SP:F9
BE8E  00        BRK                             A:60 X:07 Y:00 P:75 SP:F9
BE8F  00        BRK                             A:60 X:07 Y:00 P:75 SP:F9
BE90  00        BRK                             A:60 X:07 Y:00 P:75 SP:F9
BE91  00        BRK                             A:60 X:07 Y:00 P:75 SP:F9
BE92  00        BRK                             A:60 X:07 Y:00 P:75 SP:F9
BE93  00        BRK                             A:60 X:07 Y:00 P:75 SP:F9
BE94  00        BRK                             A:60 X:07 Y:00 P:75 SP:F9
BE95  00        BRK                             A:60 X:07 Y:00 P:75 SP:F9
BE96  00        BRK                             A:60 X:07 Y:00 P:75 SP:F9
BE97  00        BRK                             A:60 X:07 Y:00 P:75 SP:F9
BE98  00        BRK                             A:60 X:07 Y:00 P:75 SP:F9
BE99  00        BRK                             A:60 X:07 Y:00 P:75 SP:F9
BE9A  00        BRK                             A:60 X:07 Y:00 P:75 SP:F9
BE9B  00        BRK                             A:60 X:07 Y:00 P:75 SP:F9
BE9C  00        BRK                             A:60 X:07 Y:00 P:75 SP:F9
BE9D  00        BRK                             A:60 X:07 Y:00 P:75 SP:F9
BE9E  00        BRK                             A:60 X:07 Y:00 P:75 SP:F9
BE9F  00        BRK                             A:60 X:07 Y:00 P:75 SP:F9
BEA0  00        BRK                             A:60 X:07 Y:00 P:75 SP:F9
BEA1  00        BRK                             A:60 X:07 Y:00 P:75 SP:F9
BEA2  00        BRK                             A:60 X:07 Y:00 P:75 SP:F9
BEA3  00        BRK                             A:60 X:07 Y:00 P:75 SP:F9
BEA4  00        BRK                             A:60 X:07 Y:00 P:75 SP:F9
BEA5  00        BRK                             A:60 X:07 Y:00 P:75 SP:F9
BEA6  00        BRK                             A:60 X:07 Y:00 P:75 SP:F9
BEA7  00        BRK                             A:60 X:07 Y:00 P:75 SP:F9
BEA8  00        BRK                             A:60 X:07 Y:00 P:75 SP:F9
BEA9  00        BRK                             A:60 X:07 Y:00 P:75 SP:F9
BEAA  00        BRK                             A:60 X:07 Y:00 P:75 SP:F9
BEAB  00        BRK                             A:60 X:07 Y:00 P:75 SP:F9
BEAC  00        BRK                             A:60 X:07 Y:00 P:75 SP:F9
BEAD  00        BRK                             A:60 X:07 Y:00 P:75 SP:F9
BEAE  00        BRK                             A:60 X:07 Y:00 P:75 SP:F9
BEAF  00        BRK                             A:60 X:07 Y:00 P:75 SP:F9
BEB0  00        BRK                             A:60 X:07 Y:00 P:75 SP:F9
BEB1  00        BRK                             A:60 X:07 Y:00 P:75 SP:F9
BEB2  00        BRK                             A:60 X:07 Y:00 P:75 SP:F9
BEB3  00        BRK                             A:60 X:07 Y:00 P:75 SP:F9
BEB4  00        BRK                             A:60 X:07 Y:00 P:75 SP:F9
BEB5  00        BRK                             A:60 X:07 Y:00 P:75 SP:F9
BEB6  00        BRK                             A:60 X:07 Y:00 P:75 SP:F9
BEB7  00        BRK                             A:60 X:07 Y:00 P:75 SP:F9
BEB8  00        BRK                             A:60 X:07 Y:00 P:75 SP:F9
BEB9  00        BRK                             A:60 X:07 Y:00 P:75 SP:F9
BEBA  00        BRK                             A:60 X:07 Y:00 P:75 SP:F9
BEBB  00        BRK                             A:60 X:07 Y:00 P:75 SP:F9
BEBC  00        BRK                             A:60 X:07 Y:00 P:75 SP:F9
BEBD  00        BRK                             A:60 X:07 Y:00 P:75 SP:F9
BEBE  00        BRK                             A:60 X:07 Y:00 P:75 SP:F9
BEBF  00        BRK                             A:60 X:07 Y:00 P:75 SP:F9
BEC0  00        BRK                             A:60 X:07 Y:00 P:75 SP:F9
BEC1  00        BRK                             A:60 X:07 Y:00 P:75 SP:F9
BEC2  00        BRK                             A:60 X:07 Y:00 P:75 SP:F9
BEC3  00        BRK                             A:60 X:07 Y:00 P:75 SP:F9
BEC4  00        BRK                             A:60 X:07 Y:00 P:75 SP:F9
BEC5  00        BRK                             A:60 X:07 Y:00 P:75 SP:F9
BEC6  00        BRK                             A:60 X:07 Y:00 P:75 SP:F9
BEC7  00        BRK                             A:60 X:07 Y:00 P:75 SP:F9
BEC8  00        BRK                             A:60 X:07 Y:00 P:75 SP:F9
BEC9  00        BRK                             A:60 X:07 Y:00 P:75 SP:F9
BECA  00        BRK                             A:60 X:07 Y:00 P:75 SP:F9
BECB  00        BRK                             A:60 X:07 Y:00 P:75 SP:F9
BECC  00        BRK                             A:60 X:07 Y:00 P:75 SP:F9
BECD  00        BRK                             A:60 X:07 Y:00 P:75 SP:F9
BECE  00        BRK                             A:60 X:07 Y:00 P:75 SP:F9
BECF  00        BRK                             A:60 X:07 Y:00 P:75 SP:F9
BED0  00        BRK                             A:60 X:07 Y:00 P:75 SP:F9
BED1  00        BRK                             A:60 X:07 Y:00 P:75 SP:F9
BED2  00        BRK                             A:60 X:07 Y:00 P:75 SP:F9
BED3  00        BRK                             A:60 X:07 Y:00 P:75 SP:F9
BED4  00        BRK                             A:60 X:07 Y:00 P:75 SP:F9
BED5  00        BRK                             A:60 X:07 Y:00 P:75 SP:F9
BED6  00        BRK                             A:60 X:07 Y:00 P:75 SP:F9
BED7  00        BRK                             A:60 X:07 Y:00 P:75 SP:F9
BED8  00        BRK                             A:60 X:07 Y:00 P:75 SP:F9
BED9  00        BRK                             A:60 X:07 Y:00 P:75 SP:F9
BEDA  00        BRK                             A:60 X:07 Y:00 P:75 SP:F9
BEDB  00        BRK                             A:60 X:07 Y:00 P:75 SP:F9
BEDC  00        BRK                             A:60 X:07 Y:00 P:75 SP:F9
BEDD  00        BRK                             A:60 X:07 Y:00 P:75 SP:F9
BEDE  00        BRK                             A:60 X:07 Y:00 P:75 SP:F9
BEDF  00        BRK                             A:60 X:07 Y:00 P:75 SP:F9
BEE0  00        BRK                             A:60 X:07 Y:00 P:75 SP:F9
BEE1  00        BRK                             A:60 X:07 Y:00 P:75 SP:F9
BEE2  00        BRK                             A:60 X:07 Y:00 P:75 SP:F9
BEE3  00        BRK                             A:60 X:07 Y:00 P:75 SP:F9
BEE4  00        BRK                             A:60 X:07 Y:00 P:75 SP:F9
BEE5  00        BRK                             A:60 X:07 Y:00 P:75 SP:F9
BEE6  00        BRK                             A:60 X:07 Y:00 P:75 SP:F9
BEE7  00        BRK                             A:60 X:07 Y:00 P:75 SP:F9
BEE8  00        BRK                             A:60 X:07 Y:00 P:75 SP:F9
BEE9  00        BRK                             A:60 X:07 Y:00 P:75 SP:F9
BEEA  00        BRK                             A:60 X:07 Y:00 P:75 SP:F9
BEEB  00        BRK                             A:60 X:07 Y:00 P:75 SP:F9
BEEC  00        BRK                             A:60 X:07 Y:00 P:75 SP:F9
BEED  00        BRK                             A:60 X:07 Y:00 P:75 SP:F9
BEEE  00        BRK                             A:60 X:07 Y:00 P:75 SP:F9
BEEF  00        BRK                             A:60 X:07 Y:00 P:75 SP:F9
BEF0  00        BRK                             A:60 X:07 Y:00 P:75 SP:F9
BEF1  00        BRK                             A:60 X:07 Y:00 P:75 SP:F9
BEF2  00        BRK                             A:60 X:07 Y:00 P:75 SP:F9
BEF3  00        BRK                             A:60 X:07 Y:00 P:75 SP:F9
BEF4  00        BRK                             A:60 X:07 Y:00 P:75 SP:F9
BEF5  00        BRK                             A:60 X:07 Y:00 P:75 SP:F9
BEF6  00        BRK                             A:60 X:07 Y:00 P:75 SP:F9
BEF7  00        BRK                             A:60 X:07 Y:00 P:75 SP:F9
BEF8  00        BRK                             A:60 X:07 Y:00 P:75 SP:F9
BEF9  00        BRK                             A:60 X:07 Y:00 P:75 SP:F9
BEFA  00        BRK                             A:60 X:07 Y:00 P:75 SP:F9
BEFB  00        BRK                             A:60 X:07 Y:00 P:75 SP:F9
BEFC  00        BRK                             A:60 X:07 Y:00 P:75 SP:F9
BEFD  00        BRK                             A:60 X:07 Y:00 P:75 SP:F9
BEFE  00        BRK                             A:60 X:07 Y:00 P:75 SP:F9
BEFF  00        BRK                             A:60 X:07 Y:00 P:75 SP:F9
BF00  00        BRK                             A:60 X:07 Y:00 P:75 SP:F9
BF01  00        BRK                             A:60 X:07 Y:00 P:75 SP:F9
BF02  00        BRK                             A:60 X:07 Y:00 P:75 SP:F9
BF03  00        BRK                             A:60 X:07 Y:00 P:75 SP:F9
BF04  00        BRK                             A:60 X:07 Y:00 P:75 SP:F9
BF05  00        BRK                             A:60 X:07 Y:00 P:75 SP:F9
BF06  00        BRK                             A:60 X:07 Y:00 P:75 SP:F9
BF07  00        BRK                             A:60 X:07 Y:00 P:75 SP:F9
BF08  00        BRK                             A:60 X:07 Y:00 P:75 SP:F9
BF09  00        BRK                             A:60 X:07 Y:00 P:75 SP:F9
BF0A  00        BRK                             A:60 X:07 Y:00 P:75 SP:F9
BF0B  00        BRK                             A:60 X:07 Y:00 P:75 SP:F9
BF0C  00        BRK                             A:60 X:07 Y:00 P:75 SP:F9
BF0D  00        BRK                             A:60 X:07 Y:00 P:75 SP:F9
BF0E  00        BRK                             A:60 X:07 Y:00 P:75 SP:F9
